 TinyCad

 Timestamp is 4bc78c1d (Thu Apr 15 16:58:53 2010)

 Preferred load address is 00400000

 Start         Length     Name                   Class
 0001:00000000 000f6b48H .text                   CODE
 0001:000f6b50 0000beabH .text$x                 CODE
 0001:00102a00 00000719H .text$yc                CODE
 0001:00103120 000003ccH .text$yd                CODE
 0002:00000000 0000092cH .idata$5                DATA
 0002:0000092c 00000004H .CRT$XCA                DATA
 0002:00000930 0000000cH .CRT$XCC                DATA
 0002:0000093c 00000014H .CRT$XCL                DATA
 0002:00000950 000000bcH .CRT$XCU                DATA
 0002:00000a0c 00000004H .CRT$XCZ                DATA
 0002:00000a10 00000004H .CRT$XIA                DATA
 0002:00000a14 00000014H .CRT$XIC                DATA
 0002:00000a28 00000004H .CRT$XIY                DATA
 0002:00000a2c 00000004H .CRT$XIZ                DATA
 0002:00000a30 00000004H .CRT$XPA                DATA
 0002:00000a34 00000004H .CRT$XPX                DATA
 0002:00000a38 00000004H .CRT$XPXA               DATA
 0002:00000a3c 00000004H .CRT$XPZ                DATA
 0002:00000a40 00000004H .CRT$XTA                DATA
 0002:00000a44 00000004H .CRT$XTZ                DATA
 0002:00000a50 0001c810H .rdata                  DATA
 0002:0001d260 00000043H .rdata$debug            DATA
 0002:0001d2a4 00006428H .rdata$r                DATA
 0002:000236d0 00000cd0H .rdata$sxdata           DATA
 0002:000243a0 00000004H .rtc$IAA                DATA
 0002:000243a4 00000004H .rtc$IZZ                DATA
 0002:000243a8 00000004H .rtc$TAA                DATA
 0002:000243ac 00000004H .rtc$TZZ                DATA
 0002:000243b0 0000e580H .xdata$x                DATA
 0002:00032930 00000000H ATL$__a                 DATA
 0002:00032930 00000000H ATL$__z                 DATA
 0002:00032930 00000154H .idata$2                DATA
 0002:00032a84 00000014H .idata$3                DATA
 0002:00032a98 0000092cH .idata$4                DATA
 0002:000333c4 000023eaH .idata$6                DATA
 0002:000357ae 00000000H .edata                  DATA
 0003:00000000 00005805H .data                   DATA
 0003:00005820 00004edcH .bss                    DATA
 0004:00000000 00002564H .rsrc$01                DATA
 0004:00002570 00036290H .rsrc$02                DATA

  Address         Publics by Value              Rva+Base       Lib:Object

 0000:00000000       __except_list              00000000     <absolute>
 0000:00000334       ___safe_se_handler_count   00000334     <absolute>
 0000:00000000       ___ImageBase               00400000     <linker-defined>
 0001:00000000       ?AfxCrtErrorCheck@@YAHH@Z  00401000 f i AutoSave.obj
 0001:00000090       ?AtlThrowImpl@ATL@@YGXJ@Z  00401090 f i AutoSave.obj
 0001:000000b0       ?_AtlGetStringResourceImage@ATL@@YAPBUATLSTRINGRESOURCEIMAGE@1@PAUHINSTANCE__@@PAUHRSRC__@@I@Z 004010b0 f i AutoSave.obj
 0001:00000120       ?AtlGetStringResourceImage@ATL@@YAPBUATLSTRINGRESOURCEIMAGE@1@PAUHINSTANCE__@@I@Z 00401120 f i AutoSave.obj
 0001:00000160       ?Release@CStringData@ATL@@QAEXXZ 00401160 f i AutoSave.obj
 0001:00000180       ?AfxGetMainWnd@@YGPAVCWnd@@XZ 00401180 f i AutoSave.obj
 0001:000001a0       ?SetLength@?$CSimpleStringT@_W$0A@@ATL@@AAEXH@Z 004011a0 f i AutoSave.obj
 0001:000001d0       ?ThrowMemoryException@?$CSimpleStringT@_W$0A@@ATL@@KAXXZ 004011d0 f i AutoSave.obj
 0001:000001e0       ?Fork@?$CSimpleStringT@_W$0A@@ATL@@AAEXH@Z 004011e0 f i AutoSave.obj
 0001:00000260       ?Reallocate@?$CSimpleStringT@_W$0A@@ATL@@AAEXH@Z 00401260 f i AutoSave.obj
 0001:000002a0       ?Stop@CAutoSave@@SAXXZ     004012a0 f   AutoSave.obj
 0001:000002d0       ??0?$CSimpleStringT@_W$0A@@ATL@@QAE@PAUIAtlStringMgr@1@@Z 004012d0 f i AutoSave.obj
 0001:000002d0       ??0?$CStringT@_WV?$StrTraitMFC@_WV?$ChTraitsCRT@_W@ATL@@@@@ATL@@QAE@PAUIAtlStringMgr@1@@Z 004012d0 f i DlgAbout.obj
 0001:00000300       ?Empty@?$CSimpleStringT@_W$0A@@ATL@@QAEXXZ 00401300 f i AutoSave.obj
 0001:00000370       ?PrepareWrite2@?$CSimpleStringT@_W$0A@@ATL@@AAEXH@Z 00401370 f i AutoSave.obj
 0001:000003c0       ?PrepareWrite@?$CSimpleStringT@_W$0A@@ATL@@AAEPA_WH@Z 004013c0 f i AutoSave.obj
 0001:000003c0       ?GetBuffer@?$CSimpleStringT@_W$0A@@ATL@@QAEPA_WH@Z 004013c0 f i AutoSave.obj
 0001:000003f0       ??4?$CStringT@_WV?$StrTraitMFC@_WV?$ChTraitsCRT@_W@ATL@@@@@ATL@@QAEAAV01@PBD@Z 004013f0 f i AutoSave.obj
 0001:00000480       ?LoadStringW@?$CStringT@_WV?$StrTraitMFC@_WV?$ChTraitsCRT@_W@ATL@@@@@ATL@@QAEHPAUHINSTANCE__@@I@Z 00401480 f i AutoSave.obj
 0001:00000550       ?LoadStringW@?$CStringT@_WV?$StrTraitMFC@_WV?$ChTraitsCRT@_W@ATL@@@@@ATL@@QAEHI@Z 00401550 f i AutoSave.obj
 0001:00000580       ?CheckImplicitLoad@?$CStringT@_WV?$StrTraitMFC@_WV?$ChTraitsCRT@_W@ATL@@@@@ATL@@AAE_NPBX@Z 00401580 f i AutoSave.obj
 0001:000005c0       ??0?$CStringT@_WV?$StrTraitMFC@_WV?$ChTraitsCRT@_W@ATL@@@@@ATL@@QAE@PBD@Z 004015c0 f i AutoSave.obj
 0001:00000660       ?GetInstance@CAutoSave@@CAPAV1@XZ 00401660 f   AutoSave.obj
 0001:000006f0       ?GetDelay@CAutoSave@@SAKXZ 004016f0 f   AutoSave.obj
 0001:00000700       ?SetDelay@CAutoSave@@SAXK@Z 00401700 f   AutoSave.obj
 0001:00000730       ?IsEnabled@CAutoSave@@SAEXZ 00401730 f   AutoSave.obj
 0001:00000740       ?SetEnabled@CAutoSave@@SAXE@Z 00401740 f   AutoSave.obj
 0001:00000790       ?Start@CAutoSave@@SAXXZ    00401790 f   AutoSave.obj
 0001:000007d0       ??A?$vector@PAVCTinyCadSymbolDoc@@V?$allocator@PAVCTinyCadSymbolDoc@@@std@@@std@@QAEAAPAVCTinyCadSymbolDoc@@I@Z 004017d0 f i TinyCadMultiSymbolDoc.obj
 0001:000007d0       ??A?$vector@V?$CStringT@_WV?$StrTraitMFC@_WV?$ChTraitsCRT@_W@ATL@@@@@ATL@@V?$allocator@V?$CStringT@_WV?$StrTraitMFC@_WV?$ChTraitsCRT@_W@ATL@@@@@ATL@@@std@@@std@@QAEAAV?$CStringT@_WV?$StrTraitMFC@_WV?$ChTraitsCRT@_W@ATL@@@@@ATL@@I@Z 004017d0 f i BOMGenerator.obj
 0001:00000800       ?_Max@?$_Tree@V?$_Tset_traits@UBomObject@BomSort@CBOMGenerator@@V23@V?$allocator@UBomObject@BomSort@CBOMGenerator@@@std@@$0A@@std@@@std@@KAPAU_Node@?$_Tree_nod@V?$_Tset_traits@UBomObject@BomSort@CBOMGenerator@@V23@V?$allocator@UBomObject@BomSort@CBOMGenerator@@@std@@$0A@@std@@@2@PAU342@@Z 00401800 f i BOMGenerator.obj
 0001:00000800       ?_Max@?$_Tree@V?$_Tmap_traits@VsBrush@CContext@@PAVCBrush@@U?$less@VsBrush@CContext@@@std@@V?$allocator@U?$pair@$$CBVsBrush@CContext@@PAVCBrush@@@std@@@5@$0A@@std@@@std@@KAPAU_Node@?$_Tree_nod@V?$_Tmap_traits@VsBrush@CContext@@PAVCBrush@@U?$less@VsBrush@CContext@@@std@@V?$allocator@U?$pair@$$CBVsBrush@CContext@@PAVCBrush@@@std@@@5@$0A@@std@@@2@PAU342@@Z 00401800 f i Context.obj
 0001:00000820       ??1bad_alloc@std@@UAE@XZ   00401820 f i BOMGenerator.obj
 0001:00000830       ??_Ebad_alloc@std@@UAEPAXI@Z 00401830 f i BOMGenerator.obj
 0001:00000830       ??_Gbad_alloc@std@@UAEPAXI@Z 00401830 f i BOMGenerator.obj
 0001:00000860       ??$_Allocate@D@std@@YAPADIPAD@Z 00401860 f i BOMGenerator.obj
 0001:000008c0       ??0bad_alloc@std@@QAE@ABV01@@Z 004018c0 f i BOMGenerator.obj
 0001:000008e0       ?Compare@?$CStringT@_WV?$StrTraitMFC@_WV?$ChTraitsCRT@_W@ATL@@@@@ATL@@QBEHPB_W@Z 004018e0 f i BOMGenerator.obj
 0001:00000930       ?_Lrotate@?$_Tree@V?$_Tset_traits@UBomObject@BomSort@CBOMGenerator@@V23@V?$allocator@UBomObject@BomSort@CBOMGenerator@@@std@@$0A@@std@@@std@@IAEXPAU_Node@?$_Tree_nod@V?$_Tset_traits@UBomObject@BomSort@CBOMGenerator@@V23@V?$allocator@UBomObject@BomSort@CBOMGenerator@@@std@@$0A@@std@@@2@@Z 00401930 f i BOMGenerator.obj
 0001:00000930       ?_Lrotate@?$_Tree@V?$_Tmap_traits@VsBrush@CContext@@PAVCBrush@@U?$less@VsBrush@CContext@@@std@@V?$allocator@U?$pair@$$CBVsBrush@CContext@@PAVCBrush@@@std@@@5@$0A@@std@@@std@@IAEXPAU_Node@?$_Tree_nod@V?$_Tmap_traits@VsBrush@CContext@@PAVCBrush@@U?$less@VsBrush@CContext@@@std@@V?$allocator@U?$pair@$$CBVsBrush@CContext@@PAVCBrush@@@std@@@5@$0A@@std@@@2@@Z 00401930 f i Context.obj
 0001:00000980       ?_Rrotate@?$_Tree@V?$_Tmap_traits@VsBrush@CContext@@PAVCBrush@@U?$less@VsBrush@CContext@@@std@@V?$allocator@U?$pair@$$CBVsBrush@CContext@@PAVCBrush@@@std@@@5@$0A@@std@@@std@@IAEXPAU_Node@?$_Tree_nod@V?$_Tmap_traits@VsBrush@CContext@@PAVCBrush@@U?$less@VsBrush@CContext@@@std@@V?$allocator@U?$pair@$$CBVsBrush@CContext@@PAVCBrush@@@std@@@5@$0A@@std@@@2@@Z 00401980 f i Context.obj
 0001:00000980       ?_Rrotate@?$_Tree@V?$_Tset_traits@UBomObject@BomSort@CBOMGenerator@@V23@V?$allocator@UBomObject@BomSort@CBOMGenerator@@@std@@$0A@@std@@@std@@IAEXPAU_Node@?$_Tree_nod@V?$_Tset_traits@UBomObject@BomSort@CBOMGenerator@@V23@V?$allocator@UBomObject@BomSort@CBOMGenerator@@@std@@$0A@@std@@@2@@Z 00401980 f i BOMGenerator.obj
 0001:000009e0       ?_Inc@const_iterator@?$_Tree@V?$_Tset_traits@UBomObject@BomSort@CBOMGenerator@@V23@V?$allocator@UBomObject@BomSort@CBOMGenerator@@@std@@$0A@@std@@@std@@QAEXXZ 004019e0 f i BOMGenerator.obj
 0001:000009e0       ?_Inc@const_iterator@?$_Tree@V?$_Tmap_traits@VsBrush@CContext@@PAVCBrush@@U?$less@VsBrush@CContext@@@std@@V?$allocator@U?$pair@$$CBVsBrush@CContext@@PAVCBrush@@@std@@@5@$0A@@std@@@std@@QAEXXZ 004019e0 f i Context.obj
 0001:00000a50       ??$_Allocate@V?$CStringT@_WV?$StrTraitMFC@_WV?$ChTraitsCRT@_W@ATL@@@@@ATL@@@std@@YAPAV?$CStringT@_WV?$StrTraitMFC@_WV?$ChTraitsCRT@_W@ATL@@@@@ATL@@IPAV12@@Z 00401a50 f i BOMGenerator.obj
 0001:00000a50       ??$_Allocate@PAV?$CStringT@_WV?$StrTraitMFC@_WV?$ChTraitsCRT@_W@ATL@@@@@ATL@@@std@@YAPAPAV?$CStringT@_WV?$StrTraitMFC@_WV?$ChTraitsCRT@_W@ATL@@@@@ATL@@IPAPAV12@@Z 00401a50 f i XMLWriter.obj
 0001:00000a50       ??$_Allocate@PAVCTinyCadSymbolDoc@@@std@@YAPAPAVCTinyCadSymbolDoc@@IPAPAV1@@Z 00401a50 f i TinyCadMultiSymbolDoc.obj
 0001:00000a50       ??$_Allocate@PAPAVCLibraryStoreSymbol@@@std@@YAPAPAPAVCLibraryStoreSymbol@@IPAPAPAV1@@Z 00401a50 f i DlgGetFindBox.obj
 0001:00000a50       ??$_Allocate@PAPAVxml_parse_tag@@@std@@YAPAPAPAVxml_parse_tag@@IPAPAPAV1@@Z 00401a50 f i XMLReader.obj
 0001:00000a50       ??$_Allocate@PAVCTinyCadDoc@@@std@@YAPAPAVCTinyCadDoc@@IPAPAV1@@Z 00401a50 f i TinyCadMultiDoc.obj
 0001:00000a50       ??$_Allocate@PAVCImportFile@@@std@@YAPAPAVCImportFile@@IPAPAV1@@Z 00401a50 f i BOMGenerator.obj
 0001:00000ab0       ?CloneData@?$CSimpleStringT@_W$0A@@ATL@@CAPAUCStringData@2@PAU32@@Z 00401ab0 f i BOMGenerator.obj
 0001:00000b20       ??8ATL@@YA_NABV?$CStringT@_WV?$StrTraitMFC@_WV?$ChTraitsCRT@_W@ATL@@@@@0@0@Z 00401b20 f i BOMGenerator.obj
 0001:00000b80       ??9ATL@@YA_NABV?$CStringT@_WV?$StrTraitMFC@_WV?$ChTraitsCRT@_W@ATL@@@@@0@0@Z 00401b80 f i BOMGenerator.obj
 0001:00000be0       ??MATL@@YA_NABV?$CStringT@_WV?$StrTraitMFC@_WV?$ChTraitsCRT@_W@ATL@@@@@0@0@Z 00401be0 f i BOMGenerator.obj
 0001:00000c40       ??E?$_Iterator@$00@?$list@PAVCDrawingObject@@V?$allocator@PAVCDrawingObject@@@std@@@std@@QAEAAV012@XZ 00401c40 f i BOMGenerator.obj
 0001:00000c40       ??E?$_Const_iterator@$00@?$list@PAVCDrawingObject@@V?$allocator@PAVCDrawingObject@@@std@@@std@@QAEAAV012@XZ 00401c40 f i BOMGenerator.obj
 0001:00000c40       ??E?$_Const_iterator@$00@?$list@VCDocUndoAction@CDocUndoSet@@V?$allocator@VCDocUndoAction@CDocUndoSet@@@std@@@std@@QAEAAV012@XZ 00401c40 f i TinyCadDoc.obj
 0001:00000c80       ??9?$_Const_iterator@$00@?$list@VCDocUndoAction@CDocUndoSet@@V?$allocator@VCDocUndoAction@CDocUndoSet@@@std@@@std@@QBE_NABV012@@Z 00401c80 f i TinyCadDoc.obj
 0001:00000c80       ??9?$_Const_iterator@$00@?$list@PAVCDrawingObject@@V?$allocator@PAVCDrawingObject@@@std@@@std@@QBE_NABV012@@Z 00401c80 f i BOMGenerator.obj
 0001:00000cb0       ?GetManager@?$CStringT@_WV?$StrTraitMFC@_WV?$ChTraitsCRT@_W@ATL@@@@@ATL@@QBEPAUIAtlStringMgr@2@XZ 00401cb0 f i BOMGenerator.obj
 0001:00000ce0       ??$unchecked_copy@PAPAVCImportFile@@PAPAV1@@stdext@@YAPAPAVCImportFile@@PAPAV1@00@Z 00401ce0 f i BOMGenerator.obj
 0001:00000d20       ??0?$CStringT@_WV?$StrTraitMFC@_WV?$ChTraitsCRT@_W@ATL@@@@@ATL@@QAE@XZ 00401d20 f i BOMGenerator.obj
 0001:00000d50       ?erase@?$basic_string@DU?$char_traits@D@std@@V?$allocator@D@2@@std@@QAEAAV12@II@Z 00401d50 f i BOMGenerator.obj
 0001:00000de0       ?_Copy@?$basic_string@DU?$char_traits@D@std@@V?$allocator@D@2@@std@@IAEXII@Z 00401de0 f i BOMGenerator.obj
 0001:00000f20       ??1BomObject@BomSort@CBOMGenerator@@QAE@XZ 00401f20 f i BOMGenerator.obj
 0001:00000f40       ??H?$_Vector_iterator@PAVCTinyCadSymbolDoc@@V?$allocator@PAVCTinyCadSymbolDoc@@@std@@@std@@QBE?AV01@H@Z 00401f40 f i TinyCadMultiSymbolDoc.obj
 0001:00000f40       ??H?$_Vector_iterator@V?$CStringT@_WV?$StrTraitMFC@_WV?$ChTraitsCRT@_W@ATL@@@@@ATL@@V?$allocator@V?$CStringT@_WV?$StrTraitMFC@_WV?$ChTraitsCRT@_W@ATL@@@@@ATL@@@std@@@std@@QBE?AV01@H@Z 00401f40 f i BOMGenerator.obj
 0001:00000f90       ??_G?$CStringT@_WV?$StrTraitMFC@_WV?$ChTraitsCRT@_W@ATL@@@@@ATL@@QAEPAXI@Z 00401f90 f i BOMGenerator.obj
 0001:00000fd0       ??0?$CStringT@_WV?$StrTraitMFC@_WV?$ChTraitsCRT@_W@ATL@@@@@ATL@@QAE@ABV01@@Z 00401fd0 f i BOMGenerator.obj
 0001:00000fd0       ??0?$CSimpleStringT@_W$0A@@ATL@@QAE@ABV01@@Z 00401fd0 f i BOMGenerator.obj
 0001:00000ff0       ??1?$basic_string@DU?$char_traits@D@std@@V?$allocator@D@2@@std@@QAE@XZ 00401ff0 f i BOMGenerator.obj
 0001:00001020       ?SetString@?$CSimpleStringT@_W$0A@@ATL@@QAEXPB_WH@Z 00402020 f i BOMGenerator.obj
 0001:000010d0       ?FormatV@?$CStringT@_WV?$StrTraitMFC@_WV?$ChTraitsCRT@_W@ATL@@@@@ATL@@QAEXPB_WPAD@Z 004020d0 f i BOMGenerator.obj
 0001:00001150       ?GetRef@CDrawMethod@@QBE?AV?$CStringT@_WV?$StrTraitMFC@_WV?$ChTraitsCRT@_W@ATL@@@@@ATL@@XZ 00402150 f i BOMGenerator.obj
 0001:00001190       ??RBomSort@CBOMGenerator@@QBE_NABUBomObject@01@0@Z 00402190 f i BOMGenerator.obj
 0001:00001270       ??1?$vector@PAVCImportFile@@V?$allocator@PAVCImportFile@@@std@@@std@@QAE@XZ 00402270 f i BOMGenerator.obj
 0001:00001270       ??1?$vector@PAVCTinyCadDoc@@V?$allocator@PAVCTinyCadDoc@@@std@@@std@@QAE@XZ 00402270 f i TinyCadMultiDoc.obj
 0001:00001270       ??1?$vector@VCDPoint@@V?$allocator@VCDPoint@@@std@@@std@@QAE@XZ 00402270 f i Polygon.obj
 0001:00001270       ??1?$vector@PAVCTinyCadSymbolDoc@@V?$allocator@PAVCTinyCadSymbolDoc@@@std@@@std@@QAE@XZ 00402270 f i TinyCadMultiSymbolDoc.obj
 0001:00001270       ??1?$vector@VCArcPoint@@V?$allocator@VCArcPoint@@@std@@@std@@QAE@XZ 00402270 f i Polygon.obj
 0001:000012b0       ?Append@?$CSimpleStringT@_W$0A@@ATL@@QAEXPB_WH@Z 004022b0 f i BOMGenerator.obj
 0001:00001370       ??$_Umove@PAPAVCTinyCadSymbolDoc@@@?$vector@PAVCTinyCadSymbolDoc@@V?$allocator@PAVCTinyCadSymbolDoc@@@std@@@std@@IAEPAPAVCTinyCadSymbolDoc@@PAPAV2@00@Z 00402370 f i TinyCadMultiSymbolDoc.obj
 0001:00001370       ??$_Umove@PAPAVCTinyCadDoc@@@?$vector@PAVCTinyCadDoc@@V?$allocator@PAVCTinyCadDoc@@@std@@@std@@IAEPAPAVCTinyCadDoc@@PAPAV2@00@Z 00402370 f i TinyCadMultiDoc.obj
 0001:00001370       ??$_Umove@PAPAVCImportFile@@@?$vector@PAVCImportFile@@V?$allocator@PAVCImportFile@@@std@@@std@@IAEPAPAVCImportFile@@PAPAV2@00@Z 00402370 f i BOMGenerator.obj
 0001:00001370       ??$_Ucopy@PAPAVCImportFile@@@?$vector@PAVCImportFile@@V?$allocator@PAVCImportFile@@@std@@@std@@IAEPAPAVCImportFile@@PAPAV2@00@Z 00402370 f i NetList.obj
 0001:000013b0       ??$_Construct@V?$CStringT@_WV?$StrTraitMFC@_WV?$ChTraitsCRT@_W@ATL@@@@@ATL@@V12@@std@@YAXPAV?$CStringT@_WV?$StrTraitMFC@_WV?$ChTraitsCRT@_W@ATL@@@@@ATL@@ABV12@@Z 004023b0 f i BOMGenerator.obj
 0001:00001420       ?what@logic_error@std@@UBEPBDXZ 00402420 f i BOMGenerator.obj
 0001:00001430       ??4?$CSimpleStringT@_W$0A@@ATL@@QAEAAV01@ABV01@@Z 00402430 f i BOMGenerator.obj
 0001:000014b0       ?assign@?$basic_string@DU?$char_traits@D@std@@V?$allocator@D@2@@std@@QAEAAV12@ABV12@II@Z 004024b0 f i BOMGenerator.obj
 0001:00001590       ?Format@?$CStringT@_WV?$StrTraitMFC@_WV?$ChTraitsCRT@_W@ATL@@@@@ATL@@QAAXPB_WZZ 00402590 f i BOMGenerator.obj
 0001:000015b0       ??0?$CStringT@_WV?$StrTraitMFC@_WV?$ChTraitsCRT@_W@ATL@@@@@ATL@@QAE@PBDPAUIAtlStringMgr@1@@Z 004025b0 f i BOMGenerator.obj
 0001:00001650       ?erase@?$vector@PAVCImportFile@@V?$allocator@PAVCImportFile@@@std@@@std@@QAE?AV?$_Vector_iterator@PAVCImportFile@@V?$allocator@PAVCImportFile@@@std@@@2@V?$_Vector_const_iterator@PAVCImportFile@@V?$allocator@PAVCImportFile@@@std@@@2@0@Z 00402650 f i BOMGenerator.obj
 0001:00001650       ?erase@?$vector@PAVCTinyCadDoc@@V?$allocator@PAVCTinyCadDoc@@@std@@@std@@QAE?AV?$_Vector_iterator@PAVCTinyCadDoc@@V?$allocator@PAVCTinyCadDoc@@@std@@@2@V?$_Vector_const_iterator@PAVCTinyCadDoc@@V?$allocator@PAVCTinyCadDoc@@@std@@@2@0@Z 00402650 f i TinyCadMultiDoc.obj
 0001:00001650       ?erase@?$vector@PAVCTinyCadSymbolDoc@@V?$allocator@PAVCTinyCadSymbolDoc@@@std@@@std@@QAE?AV?$_Vector_iterator@PAVCTinyCadSymbolDoc@@V?$allocator@PAVCTinyCadSymbolDoc@@@std@@@2@V?$_Vector_const_iterator@PAVCTinyCadSymbolDoc@@V?$allocator@PAVCTinyCadSymbolDoc@@@std@@@2@0@Z 00402650 f i TinyCadMultiSymbolDoc.obj
 0001:000016e0       ?assign@?$basic_string@DU?$char_traits@D@std@@V?$allocator@D@2@@std@@QAEAAV12@PBDI@Z 004026e0 f i BOMGenerator.obj
 0001:000017c0       ?destroy@?$allocator@V?$CStringT@_WV?$StrTraitMFC@_WV?$ChTraitsCRT@_W@ATL@@@@@ATL@@@std@@QAEXPAV?$CStringT@_WV?$StrTraitMFC@_WV?$ChTraitsCRT@_W@ATL@@@@@ATL@@@Z 004027c0 f i BOMGenerator.obj
 0001:000017f0       ??$_Uninit_copy@PAV?$CStringT@_WV?$StrTraitMFC@_WV?$ChTraitsCRT@_W@ATL@@@@@ATL@@PAV12@V?$allocator@V?$CStringT@_WV?$StrTraitMFC@_WV?$ChTraitsCRT@_W@ATL@@@@@ATL@@@std@@@std@@YAPAV?$CStringT@_WV?$StrTraitMFC@_WV?$ChTraitsCRT@_W@ATL@@@@@ATL@@PAV12@00AAV?$allocator@V?$CStringT@_WV?$StrTraitMFC@_WV?$ChTraitsCRT@_W@ATL@@@@@ATL@@@0@U_Nonscalar_ptr_iterator_tag@0@U_Range_checked_iterator_tag@0@@Z 004027f0 f i BOMGenerator.obj
 0001:000018a0       ??4?$CStringT@_WV?$StrTraitMFC@_WV?$ChTraitsCRT@_W@ATL@@@@@ATL@@QAEAAV01@ABV01@@Z 004028a0 f i BOMGenerator.obj
 0001:000018c0       ?GetRefSheet@CDrawMethod@@QBE?AV?$CStringT@_WV?$StrTraitMFC@_WV?$ChTraitsCRT@_W@ATL@@@@@ATL@@HHHH@Z 004028c0 f i BOMGenerator.obj
 0001:00001aa0       ??0BomObject@BomSort@CBOMGenerator@@QAE@PAVCDrawMethod@@HV?$CStringT@_WV?$StrTraitMFC@_WV?$ChTraitsCRT@_W@ATL@@@@@ATL@@@Z 00402aa0 f i BOMGenerator.obj
 0001:00001b60       ??9ATL@@YA_NABV?$CStringT@_WV?$StrTraitMFC@_WV?$ChTraitsCRT@_W@ATL@@@@@0@PBD@Z 00402b60 f i BOMGenerator.obj
 0001:00001bd0       ?clear@?$vector@PAVCImportFile@@V?$allocator@PAVCImportFile@@@std@@@std@@QAEXXZ 00402bd0 f i BOMGenerator.obj
 0001:00001c10       ?_Buynode@?$_Tree@V?$_Tset_traits@UBomObject@BomSort@CBOMGenerator@@V23@V?$allocator@UBomObject@BomSort@CBOMGenerator@@@std@@$0A@@std@@@std@@IAEPAU_Node@?$_Tree_nod@V?$_Tset_traits@UBomObject@BomSort@CBOMGenerator@@V23@V?$allocator@UBomObject@BomSort@CBOMGenerator@@@std@@$0A@@std@@@2@PAU342@00ABUBomObject@BomSort@CBOMGenerator@@D@Z 00402c10 f i BOMGenerator.obj
 0001:00001cd0       ??$_Uninit_fill_n@PAV?$CStringT@_WV?$StrTraitMFC@_WV?$ChTraitsCRT@_W@ATL@@@@@ATL@@IV12@V?$allocator@V?$CStringT@_WV?$StrTraitMFC@_WV?$ChTraitsCRT@_W@ATL@@@@@ATL@@@std@@@std@@YAXPAV?$CStringT@_WV?$StrTraitMFC@_WV?$ChTraitsCRT@_W@ATL@@@@@ATL@@IABV12@AAV?$allocator@V?$CStringT@_WV?$StrTraitMFC@_WV?$ChTraitsCRT@_W@ATL@@@@@ATL@@@0@U_Nonscalar_ptr_iterator_tag@0@U_Range_checked_iterator_tag@0@@Z 00402cd0 f i BOMGenerator.obj
 0001:00001d80       ??$_Destroy_range@V?$allocator@V?$CStringT@_WV?$StrTraitMFC@_WV?$ChTraitsCRT@_W@ATL@@@@@ATL@@@std@@@std@@YAXPAV?$CStringT@_WV?$StrTraitMFC@_WV?$ChTraitsCRT@_W@ATL@@@@@ATL@@0AAV?$allocator@V?$CStringT@_WV?$StrTraitMFC@_WV?$ChTraitsCRT@_W@ATL@@@@@ATL@@@0@U_Nonscalar_ptr_iterator_tag@0@@Z 00402d80 f i BOMGenerator.obj
 0001:00001dc0       ??0logic_error@std@@QAE@ABV?$basic_string@DU?$char_traits@D@std@@V?$allocator@D@2@@1@@Z 00402dc0 f i BOMGenerator.obj
 0001:00001e30       ??0length_error@std@@QAE@ABV?$basic_string@DU?$char_traits@D@std@@V?$allocator@D@2@@1@@Z 00402e30 f i BOMGenerator.obj
 0001:00001e50       ??_Elogic_error@std@@UAEPAXI@Z 00402e50 f i BOMGenerator.obj
 0001:00001e50       ??_Glogic_error@std@@UAEPAXI@Z 00402e50 f i BOMGenerator.obj
 0001:00001e50       ??_Gout_of_range@std@@UAEPAXI@Z 00402e50 f i BOMGenerator.obj
 0001:00001e50       ??_Elength_error@std@@UAEPAXI@Z 00402e50 f i BOMGenerator.obj
 0001:00001e50       ??_Glength_error@std@@UAEPAXI@Z 00402e50 f i BOMGenerator.obj
 0001:00001e50       ??_Eout_of_range@std@@UAEPAXI@Z 00402e50 f i BOMGenerator.obj
 0001:00001ea0       ??0out_of_range@std@@QAE@ABV?$basic_string@DU?$char_traits@D@std@@V?$allocator@D@2@@1@@Z 00402ea0 f i BOMGenerator.obj
 0001:00001ec0       ??1length_error@std@@UAE@XZ 00402ec0 f i BOMGenerator.obj
 0001:00001ec0       ??1out_of_range@std@@UAE@XZ 00402ec0 f i BOMGenerator.obj
 0001:00001f00       ?WriteToFile@CBOMGenerator@@QAEXPAU_iobuf@@_N@Z 00402f00 f   BOMGenerator.obj
 0001:000025a0       ??Y?$CStringT@_WV?$StrTraitMFC@_WV?$ChTraitsCRT@_W@ATL@@@@@ATL@@QAEAAV01@ABV?$CSimpleStringT@_W$0A@@1@@Z 004035a0 f i BOMGenerator.obj
 0001:000025c0       ??Y?$CStringT@_WV?$StrTraitMFC@_WV?$ChTraitsCRT@_W@ATL@@@@@ATL@@QAEAAV01@PBD@Z 004035c0 f i BOMGenerator.obj
 0001:00002670       ?_Erase@?$_Tree@V?$_Tset_traits@UBomObject@BomSort@CBOMGenerator@@V23@V?$allocator@UBomObject@BomSort@CBOMGenerator@@@std@@$0A@@std@@@std@@IAEXPAU_Node@?$_Tree_nod@V?$_Tset_traits@UBomObject@BomSort@CBOMGenerator@@V23@V?$allocator@UBomObject@BomSort@CBOMGenerator@@@std@@$0A@@std@@@2@@Z 00403670 f i BOMGenerator.obj
 0001:000026d0       ??0?$basic_string@DU?$char_traits@D@std@@V?$allocator@D@2@@std@@QAE@PBD@Z 004036d0 f i BOMGenerator.obj
 0001:00002710       ??0logic_error@std@@QAE@ABV01@@Z 00403710 f i BOMGenerator.obj
 0001:00002790       ??0length_error@std@@QAE@ABV01@@Z 00403790 f i BOMGenerator.obj
 0001:000027b0       ?erase@?$_Tree@V?$_Tset_traits@UBomObject@BomSort@CBOMGenerator@@V23@V?$allocator@UBomObject@BomSort@CBOMGenerator@@@std@@$0A@@std@@@std@@QAE?AViterator@12@Vconst_iterator@12@@Z 004037b0 f i BOMGenerator.obj
 0001:00002aa0       ??0out_of_range@std@@QAE@ABV01@@Z 00403aa0 f i BOMGenerator.obj
 0001:00002ac0       ??$fill@PAV?$CStringT@_WV?$StrTraitMFC@_WV?$ChTraitsCRT@_W@ATL@@@@@ATL@@V12@@std@@YAXPAV?$CStringT@_WV?$StrTraitMFC@_WV?$ChTraitsCRT@_W@ATL@@@@@ATL@@0ABV12@@Z 00403ac0 f i BOMGenerator.obj
 0001:00002af0       ?_Buy@?$vector@PAVCImportFile@@V?$allocator@PAVCImportFile@@@std@@@std@@IAE_NI@Z 00403af0 f i BOMGenerator.obj
 0001:00002b40       ?_Insert@?$_Tree@V?$_Tset_traits@UBomObject@BomSort@CBOMGenerator@@V23@V?$allocator@UBomObject@BomSort@CBOMGenerator@@@std@@$0A@@std@@@std@@IAE?AViterator@12@_NPAU_Node@?$_Tree_nod@V?$_Tset_traits@UBomObject@BomSort@CBOMGenerator@@V23@V?$allocator@UBomObject@BomSort@CBOMGenerator@@@std@@$0A@@std@@@2@ABUBomObject@BomSort@CBOMGenerator@@@Z 00403b40 f i BOMGenerator.obj
 0001:00002d40       ?_Ufill@?$vector@V?$CStringT@_WV?$StrTraitMFC@_WV?$ChTraitsCRT@_W@ATL@@@@@ATL@@V?$allocator@V?$CStringT@_WV?$StrTraitMFC@_WV?$ChTraitsCRT@_W@ATL@@@@@ATL@@@std@@@std@@IAEPAV?$CStringT@_WV?$StrTraitMFC@_WV?$ChTraitsCRT@_W@ATL@@@@@ATL@@PAV34@IABV34@@Z 00403d40 f i BOMGenerator.obj
 0001:00002d80       ?erase@?$_Tree@V?$_Tset_traits@UBomObject@BomSort@CBOMGenerator@@V23@V?$allocator@UBomObject@BomSort@CBOMGenerator@@@std@@$0A@@std@@@std@@QAE?AViterator@12@Vconst_iterator@12@0@Z 00403d80 f i BOMGenerator.obj
 0001:00002e60       ?_Destroy@?$vector@V?$CStringT@_WV?$StrTraitMFC@_WV?$ChTraitsCRT@_W@ATL@@@@@ATL@@V?$allocator@V?$CStringT@_WV?$StrTraitMFC@_WV?$ChTraitsCRT@_W@ATL@@@@@ATL@@@std@@@std@@IAEXPAV?$CStringT@_WV?$StrTraitMFC@_WV?$ChTraitsCRT@_W@ATL@@@@@ATL@@0@Z 00403e60 f i BOMGenerator.obj
 0001:00002e80       ??$unchecked_copy@PAV?$CStringT@_WV?$StrTraitMFC@_WV?$ChTraitsCRT@_W@ATL@@@@@ATL@@PAV12@@stdext@@YAPAV?$CStringT@_WV?$StrTraitMFC@_WV?$ChTraitsCRT@_W@ATL@@@@@ATL@@PAV12@00@Z 00403e80 f i BOMGenerator.obj
 0001:00002ec0       ?insert@?$_Tree@V?$_Tset_traits@UBomObject@BomSort@CBOMGenerator@@V23@V?$allocator@UBomObject@BomSort@CBOMGenerator@@@std@@$0A@@std@@@std@@QAE?AU?$pair@Viterator@?$_Tree@V?$_Tset_traits@UBomObject@BomSort@CBOMGenerator@@V23@V?$allocator@UBomObject@BomSort@CBOMGenerator@@@std@@$0A@@std@@@std@@_N@2@ABUBomObject@BomSort@CBOMGenerator@@@Z 00403ec0 f i BOMGenerator.obj
 0001:00002fb0       ?erase@?$vector@V?$CStringT@_WV?$StrTraitMFC@_WV?$ChTraitsCRT@_W@ATL@@@@@ATL@@V?$allocator@V?$CStringT@_WV?$StrTraitMFC@_WV?$ChTraitsCRT@_W@ATL@@@@@ATL@@@std@@@std@@QAE?AV?$_Vector_iterator@V?$CStringT@_WV?$StrTraitMFC@_WV?$ChTraitsCRT@_W@ATL@@@@@ATL@@V?$allocator@V?$CStringT@_WV?$StrTraitMFC@_WV?$ChTraitsCRT@_W@ATL@@@@@ATL@@@std@@@2@V?$_Vector_const_iterator@V?$CStringT@_WV?$StrTraitMFC@_WV?$ChTraitsCRT@_W@ATL@@@@@ATL@@V?$allocator@V?$CStringT@_WV?$StrTraitMFC@_WV?$ChTraitsCRT@_W@ATL@@@@@ATL@@@std@@@2@0@Z 00403fb0 f i BOMGenerator.obj
 0001:00003040       ??$_Umove@PAV?$CStringT@_WV?$StrTraitMFC@_WV?$ChTraitsCRT@_W@ATL@@@@@ATL@@@?$vector@V?$CStringT@_WV?$StrTraitMFC@_WV?$ChTraitsCRT@_W@ATL@@@@@ATL@@V?$allocator@V?$CStringT@_WV?$StrTraitMFC@_WV?$ChTraitsCRT@_W@ATL@@@@@ATL@@@std@@@std@@IAEPAV?$CStringT@_WV?$StrTraitMFC@_WV?$ChTraitsCRT@_W@ATL@@@@@ATL@@PAV23@00@Z 00404040 f i BOMGenerator.obj
 0001:00003070       ??$_Unchecked_move_backward@PAV?$CStringT@_WV?$StrTraitMFC@_WV?$ChTraitsCRT@_W@ATL@@@@@ATL@@PAV12@@stdext@@YAPAV?$CStringT@_WV?$StrTraitMFC@_WV?$ChTraitsCRT@_W@ATL@@@@@ATL@@PAV12@00@Z 00404070 f i BOMGenerator.obj
 0001:000030b0       ??1?$_Tree@V?$_Tset_traits@UBomObject@BomSort@CBOMGenerator@@V23@V?$allocator@UBomObject@BomSort@CBOMGenerator@@@std@@$0A@@std@@@std@@QAE@XZ 004040b0 f i BOMGenerator.obj
 0001:00003130       ??1?$vector@V?$CStringT@_WV?$StrTraitMFC@_WV?$ChTraitsCRT@_W@ATL@@@@@ATL@@V?$allocator@V?$CStringT@_WV?$StrTraitMFC@_WV?$ChTraitsCRT@_W@ATL@@@@@ATL@@@std@@@std@@QAE@XZ 00404130 f i BOMGenerator.obj
 0001:000031b0       ?clear@?$vector@V?$CStringT@_WV?$StrTraitMFC@_WV?$ChTraitsCRT@_W@ATL@@@@@ATL@@V?$allocator@V?$CStringT@_WV?$StrTraitMFC@_WV?$ChTraitsCRT@_W@ATL@@@@@ATL@@@std@@@std@@QAEXXZ 004041b0 f i BOMGenerator.obj
 0001:000031f0       ?_Insert_n@?$vector@V?$CStringT@_WV?$StrTraitMFC@_WV?$ChTraitsCRT@_W@ATL@@@@@ATL@@V?$allocator@V?$CStringT@_WV?$StrTraitMFC@_WV?$ChTraitsCRT@_W@ATL@@@@@ATL@@@std@@@std@@IAEXV?$_Vector_const_iterator@V?$CStringT@_WV?$StrTraitMFC@_WV?$ChTraitsCRT@_W@ATL@@@@@ATL@@V?$allocator@V?$CStringT@_WV?$StrTraitMFC@_WV?$ChTraitsCRT@_W@ATL@@@@@ATL@@@std@@@2@IABV?$CStringT@_WV?$StrTraitMFC@_WV?$ChTraitsCRT@_W@ATL@@@@@ATL@@@Z 004041f0 f i BOMGenerator.obj
 0001:00003480       ??1?$set@UBomObject@BomSort@CBOMGenerator@@V23@V?$allocator@UBomObject@BomSort@CBOMGenerator@@@std@@@std@@QAE@XZ 00404480 f i BOMGenerator.obj
 0001:00003490       ??1CBOMGenerator@@QAE@XZ   00404490 f   BOMGenerator.obj
 0001:00003600       ?resize@?$vector@V?$CStringT@_WV?$StrTraitMFC@_WV?$ChTraitsCRT@_W@ATL@@@@@ATL@@V?$allocator@V?$CStringT@_WV?$StrTraitMFC@_WV?$ChTraitsCRT@_W@ATL@@@@@ATL@@@std@@@std@@QAEXIV?$CStringT@_WV?$StrTraitMFC@_WV?$ChTraitsCRT@_W@ATL@@@@@ATL@@@Z 00404600 f i BOMGenerator.obj
 0001:00003700       ?insert@?$vector@V?$CStringT@_WV?$StrTraitMFC@_WV?$ChTraitsCRT@_W@ATL@@@@@ATL@@V?$allocator@V?$CStringT@_WV?$StrTraitMFC@_WV?$ChTraitsCRT@_W@ATL@@@@@ATL@@@std@@@std@@QAE?AV?$_Vector_iterator@V?$CStringT@_WV?$StrTraitMFC@_WV?$ChTraitsCRT@_W@ATL@@@@@ATL@@V?$allocator@V?$CStringT@_WV?$StrTraitMFC@_WV?$ChTraitsCRT@_W@ATL@@@@@ATL@@@std@@@2@V?$_Vector_const_iterator@V?$CStringT@_WV?$StrTraitMFC@_WV?$ChTraitsCRT@_W@ATL@@@@@ATL@@V?$allocator@V?$CStringT@_WV?$StrTraitMFC@_WV?$ChTraitsCRT@_W@ATL@@@@@ATL@@@std@@@2@ABV?$CStringT@_WV?$StrTraitMFC@_WV?$ChTraitsCRT@_W@ATL@@@@@ATL@@@Z 00404700 f i BOMGenerator.obj
 0001:000037b0       ??0CBOMGenerator@@QAE@XZ   004047b0 f   BOMGenerator.obj
 0001:00003860       ?push_back@?$vector@V?$CStringT@_WV?$StrTraitMFC@_WV?$ChTraitsCRT@_W@ATL@@@@@ATL@@V?$allocator@V?$CStringT@_WV?$StrTraitMFC@_WV?$ChTraitsCRT@_W@ATL@@@@@ATL@@@std@@@std@@QAEXABV?$CStringT@_WV?$StrTraitMFC@_WV?$ChTraitsCRT@_W@ATL@@@@@ATL@@@Z 00404860 f i BOMGenerator.obj
 0001:000038e0       ?GenerateBomForDesign@CBOMGenerator@@AAEXHPAVCMultiSheetDoc@@@Z 004048e0 f   BOMGenerator.obj
 0001:00004040       ?GenerateBomForDesign@CBOMGenerator@@QAEX_N000PAVCMultiSheetDoc@@@Z 00405040 f   BOMGenerator.obj
 0001:00004160       ?GetRuntimeClass@CChildFrame@@UBEPAUCRuntimeClass@@XZ 00405160 f   ChildFrm.obj
 0001:00004170       ??1CChildFrame@@UAE@XZ     00405170 f   ChildFrm.obj
 0001:000041f0       ?PreCreateWindow@CChildFrame@@UAEHAAUtagCREATESTRUCTW@@@Z 004051f0 f   ChildFrm.obj
 0001:00004210       ?OnCreateClient@CChildFrame@@MAEHPAUtagCREATESTRUCTW@@PAUCCreateContext@@@Z 00405210 f   ChildFrm.obj
 0001:00004250       ??3CObject@@SGXPAX@Z       00405250 f i ChildFrm.obj
 0001:00004260       ?GetMessageMap@CChildFrame@@MBEPBUAFX_MSGMAP@@XZ 00405260 f   ChildFrm.obj
 0001:00004270       ??0CChildFrame@@QAE@XZ     00405270 f   ChildFrm.obj
 0001:000042e0       ??_ECChildFrame@@UAEPAXI@Z 004052e0 f i ChildFrm.obj
 0001:000042e0       ??_GCChildFrame@@UAEPAXI@Z 004052e0 f i ChildFrm.obj
 0001:00004300       ?CreateObject@CChildFrame@@SGPAVCObject@@XZ 00405300 f   ChildFrm.obj
 0001:00004370       ??HCDPoint@@QAE?AV0@V0@@Z  00405370 f i Context.obj
 0001:000043a0       ??M@YA_NABUtagLOGFONTW@@0@Z 004053a0 f i Context.obj
 0001:00004450       ?SetTRM@CContext@@QAE?AVCDPoint@@V2@0H@Z 00405450 f   Context.obj
 0001:000044b0       ?EndTRM@CContext@@QAEXVCDPoint@@@Z 004054b0 f   Context.obj
 0001:000044e0       ?SetOrigin@CContext@@QAEXVCDPoint@@@Z 004054e0 f   Context.obj
 0001:00004510       ?SetZoomFactor@CContext@@QAEXN@Z 00405510 f   Context.obj
 0001:00004530       ?SetScaling@CContext@@QAEXHNN@Z 00405530 f   Context.obj
 0001:00004560       ?SetPixelOffset@CContext@@QAEXAAVCPoint@@@Z 00405560 f   Context.obj
 0001:00004570       ??_H@YGXPAXIHP6EPAX0@Z@Z   00405570 f i Context.obj
 0001:000045b0       ??R?$less@UtagLOGFONTW@@@std@@QBE_NABUtagLOGFONTW@@0@Z 004055b0 f i Context.obj
 0001:000045d0       ??R?$less@VsPen@CContext@@@std@@QBE_NABVsPen@CContext@@0@Z 004055d0 f i Context.obj
 0001:00004610       ??R?$less@VsBrush@CContext@@@std@@QBE_NABVsBrush@CContext@@0@Z 00405610 f i Context.obj
 0001:00004640       ?_Min@?$_Tree@V?$_Tmap_traits@UtagLOGFONTW@@PAVsFont@CContext@@U?$less@UtagLOGFONTW@@@std@@V?$allocator@U?$pair@$$CBUtagLOGFONTW@@PAVsFont@CContext@@@std@@@5@$0A@@std@@@std@@KAPAU_Node@?$_Tree_nod@V?$_Tmap_traits@UtagLOGFONTW@@PAVsFont@CContext@@U?$less@UtagLOGFONTW@@@std@@V?$allocator@U?$pair@$$CBUtagLOGFONTW@@PAVsFont@CContext@@@std@@@5@$0A@@std@@@2@PAU342@@Z 00405640 f i Context.obj
 0001:00004660       ?_Rrotate@?$_Tree@V?$_Tmap_traits@UtagLOGFONTW@@PAVsFont@CContext@@U?$less@UtagLOGFONTW@@@std@@V?$allocator@U?$pair@$$CBUtagLOGFONTW@@PAVsFont@CContext@@@std@@@5@$0A@@std@@@std@@IAEXPAU_Node@?$_Tree_nod@V?$_Tmap_traits@UtagLOGFONTW@@PAVsFont@CContext@@U?$less@UtagLOGFONTW@@@std@@V?$allocator@U?$pair@$$CBUtagLOGFONTW@@PAVsFont@CContext@@@std@@@5@$0A@@std@@@2@@Z 00405660 f i Context.obj
 0001:000046c0       ?_Min@?$_Tree@V?$_Tmap_traits@VsPen@CContext@@PAVCPen@@U?$less@VsPen@CContext@@@std@@V?$allocator@U?$pair@$$CBVsPen@CContext@@PAVCPen@@@std@@@5@$0A@@std@@@std@@KAPAU_Node@?$_Tree_nod@V?$_Tmap_traits@VsPen@CContext@@PAVCPen@@U?$less@VsPen@CContext@@@std@@V?$allocator@U?$pair@$$CBVsPen@CContext@@PAVCPen@@@std@@@5@$0A@@std@@@2@PAU342@@Z 004056c0 f i Context.obj
 0001:000046e0       ?_Rrotate@?$_Tree@V?$_Tmap_traits@VsPen@CContext@@PAVCPen@@U?$less@VsPen@CContext@@@std@@V?$allocator@U?$pair@$$CBVsPen@CContext@@PAVCPen@@@std@@@5@$0A@@std@@@std@@IAEXPAU_Node@?$_Tree_nod@V?$_Tmap_traits@VsPen@CContext@@PAVCPen@@U?$less@VsPen@CContext@@@std@@V?$allocator@U?$pair@$$CBVsPen@CContext@@PAVCPen@@@std@@@5@$0A@@std@@@2@@Z 004056e0 f i Context.obj
 0001:00004740       ?_Min@?$_Tree@V?$_Tmap_traits@VsBrush@CContext@@PAVCBrush@@U?$less@VsBrush@CContext@@@std@@V?$allocator@U?$pair@$$CBVsBrush@CContext@@PAVCBrush@@@std@@@5@$0A@@std@@@std@@KAPAU_Node@?$_Tree_nod@V?$_Tmap_traits@VsBrush@CContext@@PAVCBrush@@U?$less@VsBrush@CContext@@@std@@V?$allocator@U?$pair@$$CBVsBrush@CContext@@PAVCBrush@@@std@@@5@$0A@@std@@@2@PAU342@@Z 00405740 f i Context.obj
 0001:00004740       ?_Min@?$_Tree@V?$_Tset_traits@UBomObject@BomSort@CBOMGenerator@@V23@V?$allocator@UBomObject@BomSort@CBOMGenerator@@@std@@$0A@@std@@@std@@KAPAU_Node@?$_Tree_nod@V?$_Tset_traits@UBomObject@BomSort@CBOMGenerator@@V23@V?$allocator@UBomObject@BomSort@CBOMGenerator@@@std@@$0A@@std@@@2@PAU342@@Z 00405740 f i BOMGenerator.obj
 0001:00004760       ?_Max@?$_Tree@V?$_Tmap_traits@UtagLOGFONTW@@PAVsFont@CContext@@U?$less@UtagLOGFONTW@@@std@@V?$allocator@U?$pair@$$CBUtagLOGFONTW@@PAVsFont@CContext@@@std@@@5@$0A@@std@@@std@@KAPAU_Node@?$_Tree_nod@V?$_Tmap_traits@UtagLOGFONTW@@PAVsFont@CContext@@U?$less@UtagLOGFONTW@@@std@@V?$allocator@U?$pair@$$CBUtagLOGFONTW@@PAVsFont@CContext@@@std@@@5@$0A@@std@@@2@PAU342@@Z 00405760 f i Context.obj
 0001:00004780       ?_Max@?$_Tree@V?$_Tmap_traits@VsPen@CContext@@PAVCPen@@U?$less@VsPen@CContext@@@std@@V?$allocator@U?$pair@$$CBVsPen@CContext@@PAVCPen@@@std@@@5@$0A@@std@@@std@@KAPAU_Node@?$_Tree_nod@V?$_Tmap_traits@VsPen@CContext@@PAVCPen@@U?$less@VsPen@CContext@@@std@@V?$allocator@U?$pair@$$CBVsPen@CContext@@PAVCPen@@@std@@@5@$0A@@std@@@2@PAU342@@Z 00405780 f i Context.obj
 0001:000047a0       ?CreateFontIndirectW@CFont@@QAEHPBUtagLOGFONTW@@@Z 004057a0 f i Context.obj
 0001:000047c0       ?Ellipse@CDC@@QAEHPBUtagRECT@@@Z 004057c0 f i Context.obj
 0001:000047e0       ?PolyBezier@CContext@@QAEXPAVCDPoint@@H@Z 004057e0 f   Context.obj
 0001:00004a00       ?PaintTracker@CContext@@QAEXAAVCDRect@@@Z 00405a00 f   Context.obj
 0001:00004ae0       ?_Lbound@?$_Tree@V?$_Tmap_traits@UtagLOGFONTW@@PAVsFont@CContext@@U?$less@UtagLOGFONTW@@@std@@V?$allocator@U?$pair@$$CBUtagLOGFONTW@@PAVsFont@CContext@@@std@@@5@$0A@@std@@@std@@IBEPAU_Node@?$_Tree_nod@V?$_Tmap_traits@UtagLOGFONTW@@PAVsFont@CContext@@U?$less@UtagLOGFONTW@@@std@@V?$allocator@U?$pair@$$CBUtagLOGFONTW@@PAVsFont@CContext@@@std@@@5@$0A@@std@@@2@ABUtagLOGFONTW@@@Z 00405ae0 f i Context.obj
 0001:00004b20       ?_Inc@const_iterator@?$_Tree@V?$_Tmap_traits@UtagLOGFONTW@@PAVsFont@CContext@@U?$less@UtagLOGFONTW@@@std@@V?$allocator@U?$pair@$$CBUtagLOGFONTW@@PAVsFont@CContext@@@std@@@5@$0A@@std@@@std@@QAEXXZ 00405b20 f i Context.obj
 0001:00004b90       ?_Lbound@?$_Tree@V?$_Tmap_traits@VsPen@CContext@@PAVCPen@@U?$less@VsPen@CContext@@@std@@V?$allocator@U?$pair@$$CBVsPen@CContext@@PAVCPen@@@std@@@5@$0A@@std@@@std@@IBEPAU_Node@?$_Tree_nod@V?$_Tmap_traits@VsPen@CContext@@PAVCPen@@U?$less@VsPen@CContext@@@std@@V?$allocator@U?$pair@$$CBVsPen@CContext@@PAVCPen@@@std@@@5@$0A@@std@@@2@ABVsPen@CContext@@@Z 00405b90 f i Context.obj
 0001:00004be0       ?_Lbound@?$_Tree@V?$_Tmap_traits@VsBrush@CContext@@PAVCBrush@@U?$less@VsBrush@CContext@@@std@@V?$allocator@U?$pair@$$CBVsBrush@CContext@@PAVCBrush@@@std@@@5@$0A@@std@@@std@@IBEPAU_Node@?$_Tree_nod@V?$_Tmap_traits@VsBrush@CContext@@PAVCBrush@@U?$less@VsBrush@CContext@@@std@@V?$allocator@U?$pair@$$CBVsBrush@CContext@@PAVCBrush@@@std@@@5@$0A@@std@@@2@ABVsBrush@CContext@@@Z 00405be0 f i Context.obj
 0001:00004c20       ?_Inc@const_iterator@?$_Tree@V?$_Tmap_traits@VsPen@CContext@@PAVCPen@@U?$less@VsPen@CContext@@@std@@V?$allocator@U?$pair@$$CBVsPen@CContext@@PAVCPen@@@std@@@5@$0A@@std@@@std@@QAEXXZ 00405c20 f i Context.obj
 0001:00004c90       ?_Lrotate@?$_Tree@V?$_Tmap_traits@UtagLOGFONTW@@PAVsFont@CContext@@U?$less@UtagLOGFONTW@@@std@@V?$allocator@U?$pair@$$CBUtagLOGFONTW@@PAVsFont@CContext@@@std@@@5@$0A@@std@@@std@@IAEXPAU_Node@?$_Tree_nod@V?$_Tmap_traits@UtagLOGFONTW@@PAVsFont@CContext@@U?$less@UtagLOGFONTW@@@std@@V?$allocator@U?$pair@$$CBUtagLOGFONTW@@PAVsFont@CContext@@@std@@@5@$0A@@std@@@2@@Z 00405c90 f i Context.obj
 0001:00004ce0       ?_Dec@const_iterator@?$_Tree@V?$_Tmap_traits@UtagLOGFONTW@@PAVsFont@CContext@@U?$less@UtagLOGFONTW@@@std@@V?$allocator@U?$pair@$$CBUtagLOGFONTW@@PAVsFont@CContext@@@std@@@5@$0A@@std@@@std@@QAEXXZ 00405ce0 f i Context.obj
 0001:00004d70       ?_Lrotate@?$_Tree@V?$_Tmap_traits@VsPen@CContext@@PAVCPen@@U?$less@VsPen@CContext@@@std@@V?$allocator@U?$pair@$$CBVsPen@CContext@@PAVCPen@@@std@@@5@$0A@@std@@@std@@IAEXPAU_Node@?$_Tree_nod@V?$_Tmap_traits@VsPen@CContext@@PAVCPen@@U?$less@VsPen@CContext@@@std@@V?$allocator@U?$pair@$$CBVsPen@CContext@@PAVCPen@@@std@@@5@$0A@@std@@@2@@Z 00405d70 f i Context.obj
 0001:00004dc0       ?_Dec@const_iterator@?$_Tree@V?$_Tmap_traits@VsPen@CContext@@PAVCPen@@U?$less@VsPen@CContext@@@std@@V?$allocator@U?$pair@$$CBVsPen@CContext@@PAVCPen@@@std@@@5@$0A@@std@@@std@@QAEXXZ 00405dc0 f i Context.obj
 0001:00004e50       ?_Dec@const_iterator@?$_Tree@V?$_Tset_traits@UBomObject@BomSort@CBOMGenerator@@V23@V?$allocator@UBomObject@BomSort@CBOMGenerator@@@std@@$0A@@std@@@std@@QAEXXZ 00405e50 f i BOMGenerator.obj
 0001:00004e50       ?_Dec@const_iterator@?$_Tree@V?$_Tmap_traits@VsBrush@CContext@@PAVCBrush@@U?$less@VsBrush@CContext@@@std@@V?$allocator@U?$pair@$$CBVsBrush@CContext@@PAVCBrush@@@std@@@5@$0A@@std@@@std@@QAEXXZ 00405e50 f i Context.obj
 0001:00004ee0       ??A?$CSimpleStringT@_W$0A@@ATL@@QBE_WH@Z 00405ee0 f i Context.obj
 0001:00004f10       ?_Erase@?$_Tree@V?$_Tmap_traits@UtagLOGFONTW@@PAVsFont@CContext@@U?$less@UtagLOGFONTW@@@std@@V?$allocator@U?$pair@$$CBUtagLOGFONTW@@PAVsFont@CContext@@@std@@@5@$0A@@std@@@std@@IAEXPAU_Node@?$_Tree_nod@V?$_Tmap_traits@UtagLOGFONTW@@PAVsFont@CContext@@U?$less@UtagLOGFONTW@@@std@@V?$allocator@U?$pair@$$CBUtagLOGFONTW@@PAVsFont@CContext@@@std@@@5@$0A@@std@@@2@@Z 00405f10 f i Context.obj
 0001:00004f50       ?_Erase@?$_Tree@V?$_Tmap_traits@VsPen@CContext@@PAVCPen@@U?$less@VsPen@CContext@@@std@@V?$allocator@U?$pair@$$CBVsPen@CContext@@PAVCPen@@@std@@@5@$0A@@std@@@std@@IAEXPAU_Node@?$_Tree_nod@V?$_Tmap_traits@VsPen@CContext@@PAVCPen@@U?$less@VsPen@CContext@@@std@@V?$allocator@U?$pair@$$CBVsPen@CContext@@PAVCPen@@@std@@@5@$0A@@std@@@2@@Z 00405f50 f i Context.obj
 0001:00004f90       ?_Erase@?$_Tree@V?$_Tmap_traits@VsBrush@CContext@@PAVCBrush@@U?$less@VsBrush@CContext@@@std@@V?$allocator@U?$pair@$$CBVsBrush@CContext@@PAVCBrush@@@std@@@5@$0A@@std@@@std@@IAEXPAU_Node@?$_Tree_nod@V?$_Tmap_traits@VsBrush@CContext@@PAVCBrush@@U?$less@VsBrush@CContext@@@std@@V?$allocator@U?$pair@$$CBVsBrush@CContext@@PAVCBrush@@@std@@@5@$0A@@std@@@2@@Z 00405f90 f i Context.obj
 0001:00004fd0       ?ExtTextOutW@CDC@@QAEHHHIPBUtagRECT@@ABV?$CStringT@_WV?$StrTraitMFC@_WV?$ChTraitsCRT@_W@ATL@@@@@ATL@@PAH@Z 00405fd0 f i Context.obj
 0001:00005010       ?GetTextExtent@CDC@@QBE?AVCSize@@ABV?$CStringT@_WV?$StrTraitMFC@_WV?$ChTraitsCRT@_W@ATL@@@@@ATL@@@Z 00406010 f i Context.obj
 0001:00005050       ?GetTextExtentI@CContext@@AAE?AVCSize@@V?$CStringT@_WV?$StrTraitMFC@_WV?$ChTraitsCRT@_W@ATL@@@@@ATL@@@Z 00406050 f   Context.obj
 0001:000051b0       ?_Buynode@?$_Tree@V?$_Tmap_traits@UtagLOGFONTW@@PAVsFont@CContext@@U?$less@UtagLOGFONTW@@@std@@V?$allocator@U?$pair@$$CBUtagLOGFONTW@@PAVsFont@CContext@@@std@@@5@$0A@@std@@@std@@IAEPAU_Node@?$_Tree_nod@V?$_Tmap_traits@UtagLOGFONTW@@PAVsFont@CContext@@U?$less@UtagLOGFONTW@@@std@@V?$allocator@U?$pair@$$CBUtagLOGFONTW@@PAVsFont@CContext@@@std@@@5@$0A@@std@@@2@XZ 004061b0 f i Context.obj
 0001:000051f0       ?_Buynode@?$_Tree@V?$_Tmap_traits@UtagLOGFONTW@@PAVsFont@CContext@@U?$less@UtagLOGFONTW@@@std@@V?$allocator@U?$pair@$$CBUtagLOGFONTW@@PAVsFont@CContext@@@std@@@5@$0A@@std@@@std@@IAEPAU_Node@?$_Tree_nod@V?$_Tmap_traits@UtagLOGFONTW@@PAVsFont@CContext@@U?$less@UtagLOGFONTW@@@std@@V?$allocator@U?$pair@$$CBUtagLOGFONTW@@PAVsFont@CContext@@@std@@@5@$0A@@std@@@2@PAU342@00ABU?$pair@$$CBUtagLOGFONTW@@PAVsFont@CContext@@@2@D@Z 004061f0 f i Context.obj
 0001:00005240       ?_Buynode@?$_Tree@V?$_Tmap_traits@VsPen@CContext@@PAVCPen@@U?$less@VsPen@CContext@@@std@@V?$allocator@U?$pair@$$CBVsPen@CContext@@PAVCPen@@@std@@@5@$0A@@std@@@std@@IAEPAU_Node@?$_Tree_nod@V?$_Tmap_traits@VsPen@CContext@@PAVCPen@@U?$less@VsPen@CContext@@@std@@V?$allocator@U?$pair@$$CBVsPen@CContext@@PAVCPen@@@std@@@5@$0A@@std@@@2@XZ 00406240 f i Context.obj
 0001:00005280       ?_Buynode@?$_Tree@V?$_Tmap_traits@VsPen@CContext@@PAVCPen@@U?$less@VsPen@CContext@@@std@@V?$allocator@U?$pair@$$CBVsPen@CContext@@PAVCPen@@@std@@@5@$0A@@std@@@std@@IAEPAU_Node@?$_Tree_nod@V?$_Tmap_traits@VsPen@CContext@@PAVCPen@@U?$less@VsPen@CContext@@@std@@V?$allocator@U?$pair@$$CBVsPen@CContext@@PAVCPen@@@std@@@5@$0A@@std@@@2@PAU342@00ABU?$pair@$$CBVsPen@CContext@@PAVCPen@@@2@D@Z 00406280 f i Context.obj
 0001:000052d0       ?_Buynode@?$_Tree@V?$_Tset_traits@UBomObject@BomSort@CBOMGenerator@@V23@V?$allocator@UBomObject@BomSort@CBOMGenerator@@@std@@$0A@@std@@@std@@IAEPAU_Node@?$_Tree_nod@V?$_Tset_traits@UBomObject@BomSort@CBOMGenerator@@V23@V?$allocator@UBomObject@BomSort@CBOMGenerator@@@std@@$0A@@std@@@2@XZ 004062d0 f i BOMGenerator.obj
 0001:000052d0       ?_Buynode@?$_Tree@V?$_Tmap_traits@VsBrush@CContext@@PAVCBrush@@U?$less@VsBrush@CContext@@@std@@V?$allocator@U?$pair@$$CBVsBrush@CContext@@PAVCBrush@@@std@@@5@$0A@@std@@@std@@IAEPAU_Node@?$_Tree_nod@V?$_Tmap_traits@VsBrush@CContext@@PAVCBrush@@U?$less@VsBrush@CContext@@@std@@V?$allocator@U?$pair@$$CBVsBrush@CContext@@PAVCBrush@@@std@@@5@$0A@@std@@@2@XZ 004062d0 f i Context.obj
 0001:00005310       ?_Buynode@?$_Tree@V?$_Tmap_traits@VsBrush@CContext@@PAVCBrush@@U?$less@VsBrush@CContext@@@std@@V?$allocator@U?$pair@$$CBVsBrush@CContext@@PAVCBrush@@@std@@@5@$0A@@std@@@std@@IAEPAU_Node@?$_Tree_nod@V?$_Tmap_traits@VsBrush@CContext@@PAVCBrush@@U?$less@VsBrush@CContext@@@std@@V?$allocator@U?$pair@$$CBVsBrush@CContext@@PAVCBrush@@@std@@@5@$0A@@std@@@2@PAU342@00ABU?$pair@$$CBVsBrush@CContext@@PAVCBrush@@@2@D@Z 00406310 f i Context.obj
 0001:00005360       ?SetString@?$CSimpleStringT@_W$0A@@ATL@@QAEXPB_W@Z 00406360 f i Context.obj
 0001:000053a0       ?GetTextExtent@CContext@@QAE?AVCDSize@@V?$CStringT@_WV?$StrTraitMFC@_WV?$ChTraitsCRT@_W@ATL@@@@@ATL@@@Z 004063a0 f   Context.obj
 0001:000054e0       ?find@?$_Tree@V?$_Tmap_traits@UtagLOGFONTW@@PAVsFont@CContext@@U?$less@UtagLOGFONTW@@@std@@V?$allocator@U?$pair@$$CBUtagLOGFONTW@@PAVsFont@CContext@@@std@@@5@$0A@@std@@@std@@QAE?AViterator@12@ABUtagLOGFONTW@@@Z 004064e0 f i Context.obj
 0001:00005560       ??1CGdiObject@@UAE@XZ      00406560 f i Context.obj
 0001:00005670       ??1CPen@@UAE@XZ            00406670 f i Context.obj
 0001:00005680       ??1CFont@@UAE@XZ           00406680 f i Context.obj
 0001:00005690       ?find@?$_Tree@V?$_Tmap_traits@VsPen@CContext@@PAVCPen@@U?$less@VsPen@CContext@@@std@@V?$allocator@U?$pair@$$CBVsPen@CContext@@PAVCPen@@@std@@@5@$0A@@std@@@std@@QAE?AViterator@12@ABVsPen@CContext@@@Z 00406690 f i Context.obj
 0001:00005720       ?find@?$_Tree@V?$_Tmap_traits@VsBrush@CContext@@PAVCBrush@@U?$less@VsBrush@CContext@@@std@@V?$allocator@U?$pair@$$CBVsBrush@CContext@@PAVCBrush@@@std@@@5@$0A@@std@@@std@@QAE?AViterator@12@ABVsBrush@CContext@@@Z 00406720 f i Context.obj
 0001:000057a0       ??_ECGdiObject@@UAEPAXI@Z  004067a0 f i Context.obj
 0001:000057a0       ??_GCGdiObject@@UAEPAXI@Z  004067a0 f i Context.obj
 0001:000057c0       ??_GCPen@@UAEPAXI@Z        004067c0 f i Context.obj
 0001:000057c0       ??_ECPen@@UAEPAXI@Z        004067c0 f i Context.obj
 0001:000057f0       ??_GCFont@@UAEPAXI@Z       004067f0 f i Context.obj
 0001:000057f0       ??_ECFont@@UAEPAXI@Z       004067f0 f i Context.obj
 0001:00005820       ??4?$CStringT@_WV?$StrTraitMFC@_WV?$ChTraitsCRT@_W@ATL@@@@@ATL@@QAEAAV01@PB_W@Z 00406820 f i Context.obj
 0001:00005860       ??0?$_Tree@V?$_Tmap_traits@UtagLOGFONTW@@PAVsFont@CContext@@U?$less@UtagLOGFONTW@@@std@@V?$allocator@U?$pair@$$CBUtagLOGFONTW@@PAVsFont@CContext@@@std@@@5@$0A@@std@@@std@@QAE@ABU?$less@UtagLOGFONTW@@@1@ABV?$allocator@U?$pair@$$CBUtagLOGFONTW@@PAVsFont@CContext@@@std@@@1@@Z 00406860 f i Context.obj
 0001:000058f0       ??0?$_Tree@V?$_Tmap_traits@VsPen@CContext@@PAVCPen@@U?$less@VsPen@CContext@@@std@@V?$allocator@U?$pair@$$CBVsPen@CContext@@PAVCPen@@@std@@@5@$0A@@std@@@std@@QAE@ABU?$less@VsPen@CContext@@@1@ABV?$allocator@U?$pair@$$CBVsPen@CContext@@PAVCPen@@@std@@@1@@Z 004068f0 f i Context.obj
 0001:00005980       ??0?$_Tree@V?$_Tset_traits@UBomObject@BomSort@CBOMGenerator@@V23@V?$allocator@UBomObject@BomSort@CBOMGenerator@@@std@@$0A@@std@@@std@@QAE@ABVBomSort@CBOMGenerator@@ABV?$allocator@UBomObject@BomSort@CBOMGenerator@@@1@@Z 00406980 f i BOMGenerator.obj
 0001:00005980       ??0?$_Tree@V?$_Tmap_traits@VsBrush@CContext@@PAVCBrush@@U?$less@VsBrush@CContext@@@std@@V?$allocator@U?$pair@$$CBVsBrush@CContext@@PAVCBrush@@@std@@@5@$0A@@std@@@std@@QAE@ABU?$less@VsBrush@CContext@@@1@ABV?$allocator@U?$pair@$$CBVsBrush@CContext@@PAVCBrush@@@std@@@1@@Z 00406980 f i Context.obj
 0001:00005a10       ?erase@?$_Tree@V?$_Tmap_traits@UtagLOGFONTW@@PAVsFont@CContext@@U?$less@UtagLOGFONTW@@@std@@V?$allocator@U?$pair@$$CBUtagLOGFONTW@@PAVsFont@CContext@@@std@@@5@$0A@@std@@@std@@QAE?AViterator@12@Vconst_iterator@12@@Z 00406a10 f i Context.obj
 0001:00005ce0       ?erase@?$_Tree@V?$_Tmap_traits@VsPen@CContext@@PAVCPen@@U?$less@VsPen@CContext@@@std@@V?$allocator@U?$pair@$$CBVsPen@CContext@@PAVCPen@@@std@@@5@$0A@@std@@@std@@QAE?AViterator@12@Vconst_iterator@12@@Z 00406ce0 f i Context.obj
 0001:00005fb0       ?erase@?$_Tree@V?$_Tmap_traits@VsBrush@CContext@@PAVCBrush@@U?$less@VsBrush@CContext@@@std@@V?$allocator@U?$pair@$$CBVsBrush@CContext@@PAVCBrush@@@std@@@5@$0A@@std@@@std@@QAE?AViterator@12@Vconst_iterator@12@@Z 00406fb0 f i Context.obj
 0001:00006280       ??0?$CStringT@_WV?$StrTraitMFC@_WV?$ChTraitsCRT@_W@ATL@@@@@ATL@@QAE@PB_W@Z 00407280 f i Context.obj
 0001:00006340       ?TextOutW@CContext@@QAEXNNPB_W@Z 00407340 f   Context.obj
 0001:00006460       ?TextOutW@CContext@@QAEXNNHPB_W@Z 00407460 f   Context.obj
 0001:00006620       ?erase@?$_Tree@V?$_Tmap_traits@UtagLOGFONTW@@PAVsFont@CContext@@U?$less@UtagLOGFONTW@@@std@@V?$allocator@U?$pair@$$CBUtagLOGFONTW@@PAVsFont@CContext@@@std@@@5@$0A@@std@@@std@@QAE?AViterator@12@Vconst_iterator@12@0@Z 00407620 f i Context.obj
 0001:00006700       ?_Insert@?$_Tree@V?$_Tmap_traits@UtagLOGFONTW@@PAVsFont@CContext@@U?$less@UtagLOGFONTW@@@std@@V?$allocator@U?$pair@$$CBUtagLOGFONTW@@PAVsFont@CContext@@@std@@@5@$0A@@std@@@std@@IAE?AViterator@12@_NPAU_Node@?$_Tree_nod@V?$_Tmap_traits@UtagLOGFONTW@@PAVsFont@CContext@@U?$less@UtagLOGFONTW@@@std@@V?$allocator@U?$pair@$$CBUtagLOGFONTW@@PAVsFont@CContext@@@std@@@5@$0A@@std@@@2@ABU?$pair@$$CBUtagLOGFONTW@@PAVsFont@CContext@@@2@@Z 00407700 f i Context.obj
 0001:00006900       ?erase@?$_Tree@V?$_Tmap_traits@VsPen@CContext@@PAVCPen@@U?$less@VsPen@CContext@@@std@@V?$allocator@U?$pair@$$CBVsPen@CContext@@PAVCPen@@@std@@@5@$0A@@std@@@std@@QAE?AViterator@12@Vconst_iterator@12@0@Z 00407900 f i Context.obj
 0001:000069e0       ?_Insert@?$_Tree@V?$_Tmap_traits@VsPen@CContext@@PAVCPen@@U?$less@VsPen@CContext@@@std@@V?$allocator@U?$pair@$$CBVsPen@CContext@@PAVCPen@@@std@@@5@$0A@@std@@@std@@IAE?AViterator@12@_NPAU_Node@?$_Tree_nod@V?$_Tmap_traits@VsPen@CContext@@PAVCPen@@U?$less@VsPen@CContext@@@std@@V?$allocator@U?$pair@$$CBVsPen@CContext@@PAVCPen@@@std@@@5@$0A@@std@@@2@ABU?$pair@$$CBVsPen@CContext@@PAVCPen@@@2@@Z 004079e0 f i Context.obj
 0001:00006be0       ?erase@?$_Tree@V?$_Tmap_traits@VsBrush@CContext@@PAVCBrush@@U?$less@VsBrush@CContext@@@std@@V?$allocator@U?$pair@$$CBVsBrush@CContext@@PAVCBrush@@@std@@@5@$0A@@std@@@std@@QAE?AViterator@12@Vconst_iterator@12@0@Z 00407be0 f i Context.obj
 0001:00006cc0       ?_Insert@?$_Tree@V?$_Tmap_traits@VsBrush@CContext@@PAVCBrush@@U?$less@VsBrush@CContext@@@std@@V?$allocator@U?$pair@$$CBVsBrush@CContext@@PAVCBrush@@@std@@@5@$0A@@std@@@std@@IAE?AViterator@12@_NPAU_Node@?$_Tree_nod@V?$_Tmap_traits@VsBrush@CContext@@PAVCBrush@@U?$less@VsBrush@CContext@@@std@@V?$allocator@U?$pair@$$CBVsBrush@CContext@@PAVCBrush@@@std@@@5@$0A@@std@@@2@ABU?$pair@$$CBVsBrush@CContext@@PAVCBrush@@@2@@Z 00407cc0 f i Context.obj
 0001:00006ec0       ?insert@?$_Tree@V?$_Tmap_traits@UtagLOGFONTW@@PAVsFont@CContext@@U?$less@UtagLOGFONTW@@@std@@V?$allocator@U?$pair@$$CBUtagLOGFONTW@@PAVsFont@CContext@@@std@@@5@$0A@@std@@@std@@QAE?AU?$pair@Viterator@?$_Tree@V?$_Tmap_traits@UtagLOGFONTW@@PAVsFont@CContext@@U?$less@UtagLOGFONTW@@@std@@V?$allocator@U?$pair@$$CBUtagLOGFONTW@@PAVsFont@CContext@@@std@@@5@$0A@@std@@@std@@_N@2@ABU?$pair@$$CBUtagLOGFONTW@@PAVsFont@CContext@@@2@@Z 00407ec0 f i Context.obj
 0001:00006fb0       ?insert@?$_Tree@V?$_Tmap_traits@VsPen@CContext@@PAVCPen@@U?$less@VsPen@CContext@@@std@@V?$allocator@U?$pair@$$CBVsPen@CContext@@PAVCPen@@@std@@@5@$0A@@std@@@std@@QAE?AU?$pair@Viterator@?$_Tree@V?$_Tmap_traits@VsPen@CContext@@PAVCPen@@U?$less@VsPen@CContext@@@std@@V?$allocator@U?$pair@$$CBVsPen@CContext@@PAVCPen@@@std@@@5@$0A@@std@@@std@@_N@2@ABU?$pair@$$CBVsPen@CContext@@PAVCPen@@@2@@Z 00407fb0 f i Context.obj
 0001:000070d0       ?insert@?$_Tree@V?$_Tmap_traits@VsBrush@CContext@@PAVCBrush@@U?$less@VsBrush@CContext@@@std@@V?$allocator@U?$pair@$$CBVsBrush@CContext@@PAVCBrush@@@std@@@5@$0A@@std@@@std@@QAE?AU?$pair@Viterator@?$_Tree@V?$_Tmap_traits@VsBrush@CContext@@PAVCBrush@@U?$less@VsBrush@CContext@@@std@@V?$allocator@U?$pair@$$CBVsBrush@CContext@@PAVCBrush@@@std@@@5@$0A@@std@@@std@@_N@2@ABU?$pair@$$CBVsBrush@CContext@@PAVCBrush@@@2@@Z 004080d0 f i Context.obj
 0001:00007200       ??1?$_Tree@V?$_Tmap_traits@UtagLOGFONTW@@PAVsFont@CContext@@U?$less@UtagLOGFONTW@@@std@@V?$allocator@U?$pair@$$CBUtagLOGFONTW@@PAVsFont@CContext@@@std@@@5@$0A@@std@@@std@@QAE@XZ 00408200 f i Context.obj
 0001:00007280       ??1?$_Tree@V?$_Tmap_traits@VsPen@CContext@@PAVCPen@@U?$less@VsPen@CContext@@@std@@V?$allocator@U?$pair@$$CBVsPen@CContext@@PAVCPen@@@std@@@5@$0A@@std@@@std@@QAE@XZ 00408280 f i Context.obj
 0001:00007300       ??1?$_Tree@V?$_Tmap_traits@VsBrush@CContext@@PAVCBrush@@U?$less@VsBrush@CContext@@@std@@V?$allocator@U?$pair@$$CBVsBrush@CContext@@PAVCBrush@@@std@@@5@$0A@@std@@@std@@QAE@XZ 00408300 f i Context.obj
 0001:00007380       ?insert@?$_Tree@V?$_Tmap_traits@UtagLOGFONTW@@PAVsFont@CContext@@U?$less@UtagLOGFONTW@@@std@@V?$allocator@U?$pair@$$CBUtagLOGFONTW@@PAVsFont@CContext@@@std@@@5@$0A@@std@@@std@@QAE?AViterator@12@Vconst_iterator@12@ABU?$pair@$$CBUtagLOGFONTW@@PAVsFont@CContext@@@2@@Z 00408380 f i Context.obj
 0001:000075b0       ?insert@?$_Tree@V?$_Tmap_traits@VsPen@CContext@@PAVCPen@@U?$less@VsPen@CContext@@@std@@V?$allocator@U?$pair@$$CBVsPen@CContext@@PAVCPen@@@std@@@5@$0A@@std@@@std@@QAE?AViterator@12@Vconst_iterator@12@ABU?$pair@$$CBVsPen@CContext@@PAVCPen@@@2@@Z 004085b0 f i Context.obj
 0001:000077d0       ?insert@?$_Tree@V?$_Tmap_traits@VsBrush@CContext@@PAVCBrush@@U?$less@VsBrush@CContext@@@std@@V?$allocator@U?$pair@$$CBVsBrush@CContext@@PAVCBrush@@@std@@@5@$0A@@std@@@std@@QAE?AViterator@12@Vconst_iterator@12@ABU?$pair@$$CBVsBrush@CContext@@PAVCBrush@@@2@@Z 004087d0 f i Context.obj
 0001:00007a00       ??1?$map@UtagLOGFONTW@@PAVsFont@CContext@@U?$less@UtagLOGFONTW@@@std@@V?$allocator@U?$pair@$$CBUtagLOGFONTW@@PAVsFont@CContext@@@std@@@5@@std@@QAE@XZ 00408a00 f i Context.obj
 0001:00007a10       ??1?$map@VsPen@CContext@@PAVCPen@@U?$less@VsPen@CContext@@@std@@V?$allocator@U?$pair@$$CBVsPen@CContext@@PAVCPen@@@std@@@5@@std@@QAE@XZ 00408a10 f i Context.obj
 0001:00007a20       ??1?$map@VsBrush@CContext@@PAVCBrush@@U?$less@VsBrush@CContext@@@std@@V?$allocator@U?$pair@$$CBVsBrush@CContext@@PAVCBrush@@@std@@@5@@std@@QAE@XZ 00408a20 f i Context.obj
 0001:00007a30       ??1CContext@@UAE@XZ        00408a30 f   Context.obj
 0001:00007c50       ??A?$map@UtagLOGFONTW@@PAVsFont@CContext@@U?$less@UtagLOGFONTW@@@std@@V?$allocator@U?$pair@$$CBUtagLOGFONTW@@PAVsFont@CContext@@@std@@@5@@std@@QAEAAPAVsFont@CContext@@ABUtagLOGFONTW@@@Z 00408c50 f i Context.obj
 0001:00007d00       ??A?$map@VsPen@CContext@@PAVCPen@@U?$less@VsPen@CContext@@@std@@V?$allocator@U?$pair@$$CBVsPen@CContext@@PAVCPen@@@std@@@5@@std@@QAEAAPAVCPen@@ABVsPen@CContext@@@Z 00408d00 f i Context.obj
 0001:00007dc0       ??A?$map@VsBrush@CContext@@PAVCBrush@@U?$less@VsBrush@CContext@@@std@@V?$allocator@U?$pair@$$CBVsBrush@CContext@@PAVCBrush@@@std@@@5@@std@@QAEAAPAVCBrush@@ABVsBrush@CContext@@@Z 00408dc0 f i Context.obj
 0001:00007e60       ??0CContext@@QAE@PAVCWnd@@VTransform@@@Z 00408e60 f   Context.obj
 0001:00007f80       ??_ECContext@@UAEPAXI@Z    00408f80 f i Context.obj
 0001:00007f80       ??_GCContext@@UAEPAXI@Z    00408f80 f i Context.obj
 0001:00007fa0       ??0CContext@@QAE@PAVCDC@@VTransform@@PAVCWnd@@@Z 00408fa0 f   Context.obj
 0001:00008090       ?SelectPen@CContext@@QAEHHHJW4paint_options@@@Z 00409090 f   Context.obj
 0001:000083b0       ?SelectBrush@CContext@@QAEHKH@Z 004093b0 f   Context.obj
 0001:000084e0       ?SelectFont@CContext@@QAEHAAUtagLOGFONTW@@H@Z 004094e0 f   Context.obj
 0001:00008700       ?TextOutW@CContext@@QAEXV?$CStringT@_WV?$StrTraitMFC@_WV?$ChTraitsCRT@_W@ATL@@@@@ATL@@VCDPoint@@W4paint_options@@H@Z 00409700 f   Context.obj
 0001:00008d90       ?PaintConnectPoint@CContext@@QAEXVCDPoint@@@Z 00409d90 f   Context.obj
 0001:00008e70       ?SelectPen@CContext@@QAEHPAVLineStyle@@W4paint_options@@@Z 00409e70 f   Context.obj
 0001:00008e90       ?Polyline@CContext@@QAEXAAV?$vector@VCDPoint@@V?$allocator@VCDPoint@@@std@@@std@@VCDPoint@@PAVFillStyle@@@Z 00409e90 f   Context.obj
 0001:00009040       ?GetRuntimeClass@CDbAttributeSet@@UBEPAUCRuntimeClass@@XZ 0040a040 f   DbAttributeSet.obj
 0001:00009050       ?DoFieldExchange@CDbAttributeSet@@UAEXPAVCDaoFieldExchange@@@Z 0040a050 f   DbAttributeSet.obj
 0001:000090e0       ??0CDbAttributeSet@@QAE@PAVCDaoDatabase@@@Z 0040a0e0 f   DbAttributeSet.obj
 0001:000091e0       ??1CDbAttributeSet@@UAE@XZ 0040a1e0 f i DbAttributeSet.obj
 0001:00009230       ??_ECDbAttributeSet@@UAEPAXI@Z 0040a230 f i DbAttributeSet.obj
 0001:00009230       ??_GCDbAttributeSet@@UAEPAXI@Z 0040a230 f i DbAttributeSet.obj
 0001:00009250       ?GetDefaultSQL@CDbAttributeSet@@UAE?AV?$CStringT@_WV?$StrTraitMFC@_WV?$ChTraitsCRT@_W@ATL@@@@@ATL@@XZ 0040a250 f   DbAttributeSet.obj
 0001:00009280       ?GetRuntimeClass@CDbLibNameSet@@UBEPAUCRuntimeClass@@XZ 0040a280 f   DbLibNameSet.obj
 0001:00009290       ?DoFieldExchange@CDbLibNameSet@@UAEXPAVCDaoFieldExchange@@@Z 0040a290 f   DbLibNameSet.obj
 0001:00009370       ??0CDbLibNameSet@@QAE@PAVCDaoDatabase@@@Z 0040a370 f   DbLibNameSet.obj
 0001:000094d0       ??1CDbLibNameSet@@UAE@XZ   0040a4d0 f i DbLibNameSet.obj
 0001:00009550       ??_GCDbLibNameSet@@UAEPAXI@Z 0040a550 f i DbLibNameSet.obj
 0001:00009550       ??_ECDbLibNameSet@@UAEPAXI@Z 0040a550 f i DbLibNameSet.obj
 0001:00009570       ?GetDefaultSQL@CDbLibNameSet@@UAE?AV?$CStringT@_WV?$StrTraitMFC@_WV?$ChTraitsCRT@_W@ATL@@@@@ATL@@XZ 0040a570 f   DbLibNameSet.obj
 0001:000095a0       ?GetRuntimeClass@CDbSymbolSet@@UBEPAUCRuntimeClass@@XZ 0040a5a0 f   DbSymbolSet.obj
 0001:000095b0       ??0CDbSymbolSet@@QAE@PAVCDaoDatabase@@@Z 0040a5b0 f   DbSymbolSet.obj
 0001:00009640       ??1CDbSymbolSet@@UAE@XZ    0040a640 f i DbSymbolSet.obj
 0001:000096a0       ??_ECDbSymbolSet@@UAEPAXI@Z 0040a6a0 f i DbSymbolSet.obj
 0001:000096a0       ??_GCDbSymbolSet@@UAEPAXI@Z 0040a6a0 f i DbSymbolSet.obj
 0001:000096c0       ?DoFieldExchange@CDbSymbolSet@@UAEXPAVCDaoFieldExchange@@@Z 0040a6c0 f   DbSymbolSet.obj
 0001:00009740       ?GetDefaultDBName@CDbSymbolSet@@UAE?AV?$CStringT@_WV?$StrTraitMFC@_WV?$ChTraitsCRT@_W@ATL@@@@@ATL@@XZ 0040a740 f   DbSymbolSet.obj
 0001:00009740       ?GetDefaultDBName@CDbAttributeSet@@UAE?AV?$CStringT@_WV?$StrTraitMFC@_WV?$ChTraitsCRT@_W@ATL@@@@@ATL@@XZ 0040a740 f   DbAttributeSet.obj
 0001:00009740       ?GetDefaultDBName@CDbLibNameSet@@UAE?AV?$CStringT@_WV?$StrTraitMFC@_WV?$ChTraitsCRT@_W@ATL@@@@@ATL@@XZ 0040a740 f   DbLibNameSet.obj
 0001:00009770       ?GetDefaultSQL@CDbSymbolSet@@UAE?AV?$CStringT@_WV?$StrTraitMFC@_WV?$ChTraitsCRT@_W@ATL@@@@@ATL@@XZ 0040a770 f   DbSymbolSet.obj
 0001:000097a0       ?IsVisible@CDetails@@QBE_NXZ 0040a7a0 f   Details.obj
 0001:000097b0       ?HasRulers@CDetails@@QBE_NXZ 0040a7b0 f   Details.obj
 0001:000097c0       ?IsPortrait@CDetails@@QBE_NXZ 0040a7c0 f   Details.obj
 0001:000097d0       ?GetOverlap@CDetails@@QBE?AVCDPoint@@XZ 0040a7d0 f   Details.obj
 0001:000097f0       ?SetVisible@CDetails@@QAEX_N@Z 0040a7f0 f   Details.obj
 0001:00009800       ??0CRect@@QAE@UtagPOINT@@UtagSIZE@@@Z 0040a800 f i Details.obj
 0001:00009830       ?LineTo@CContext@@QAEXVCDPoint@@@Z 0040a830 f i Details.obj
 0001:00009880       ?MoveTo@CContext@@QAEXVCDPoint@@@Z 0040a880 f i Details.obj
 0001:000098e0       ?GetPageBoundsAsPoint@CDetails@@QBE?AVCPoint@@XZ 0040a8e0 f   Details.obj
 0001:00009900       ?SetPageBounds@CDetails@@QAEXVCPoint@@@Z 0040a900 f   Details.obj
 0001:00009910       ??8ATL@@YA_NABV?$CStringT@_WV?$StrTraitMFC@_WV?$ChTraitsCRT@_W@ATL@@@@@0@PB_W@Z 0040a910 f i Details.obj
 0001:00009970       ??1CDetails@@QAE@XZ        0040a970 f   Details.obj
 0001:00009a50       ??$addTag@V?$CStringT@_WV?$StrTraitMFC@_WV?$ChTraitsCRT@_W@ATL@@@@@ATL@@@CXMLWriter@@QAEXPB_WV?$CStringT@_WV?$StrTraitMFC@_WV?$ChTraitsCRT@_W@ATL@@@@@ATL@@@Z 0040aa50 f i Details.obj
 0001:00009b10       ?Reset@CDetails@@QAEXXZ    0040ab10 f   Details.obj
 0001:00009b90       ?GetLastChange@CDetails@@QBE?AV?$CStringT@_WV?$StrTraitMFC@_WV?$ChTraitsCRT@_W@ATL@@@@@ATL@@XZ 0040ab90 f   Details.obj
 0001:00009bc0       ?GetTitle@CDetails@@QBE?AV?$CStringT@_WV?$StrTraitMFC@_WV?$ChTraitsCRT@_W@ATL@@@@@ATL@@XZ 0040abc0 f   Details.obj
 0001:00009bf0       ?GetRevision@CDetails@@QBE?AV?$CStringT@_WV?$StrTraitMFC@_WV?$ChTraitsCRT@_W@ATL@@@@@ATL@@XZ 0040abf0 f   Details.obj
 0001:00009c20       ?GetDocumentNumber@CDetails@@QBE?AV?$CStringT@_WV?$StrTraitMFC@_WV?$ChTraitsCRT@_W@ATL@@@@@ATL@@XZ 0040ac20 f   Details.obj
 0001:00009c20       ?GetXMLPathName@CMultiSheetDoc@@UAE?AV?$CStringT@_WV?$StrTraitMFC@_WV?$ChTraitsCRT@_W@ATL@@@@@ATL@@XZ 0040ac20 f   MultiSheetDoc.obj
 0001:00009c50       ?GetOrganisation@CDetails@@QBE?AV?$CStringT@_WV?$StrTraitMFC@_WV?$ChTraitsCRT@_W@ATL@@@@@ATL@@XZ 0040ac50 f   Details.obj
 0001:00009c80       ?GetSheets@CDetails@@QBE?AV?$CStringT@_WV?$StrTraitMFC@_WV?$ChTraitsCRT@_W@ATL@@@@@ATL@@XZ 0040ac80 f   Details.obj
 0001:00009cb0       ?WriteXML@CDetails@@QBEXAAVCXMLWriter@@@Z 0040acb0 f   Details.obj
 0001:00009e60       ?DisplayBox@CDetails@@ABEXAAVCContext@@AAVCOption@@V?$CStringT@_WV?$StrTraitMFC@_WV?$ChTraitsCRT@_W@ATL@@@@@ATL@@@Z 0040ae60 f   Details.obj
 0001:0000a440       ??$getAttribute@N@CXMLReader@@QAE_NPB_WAAN@Z 0040b440 f i Details.obj
 0001:0000a550       ??$getAttribute@H@CXMLReader@@QAE_NPB_WAAH@Z 0040b550 f i Details.obj
 0001:0000a660       ??$getAttribute@J@CXMLReader@@QAE_NPB_WAAJ@Z 0040b660 f i Details.obj
 0001:0000a770       ??$getChildData@V?$CStringT@_WV?$StrTraitMFC@_WV?$ChTraitsCRT@_W@ATL@@@@@ATL@@@CXMLReader@@QAEXAAV?$CStringT@_WV?$StrTraitMFC@_WV?$ChTraitsCRT@_W@ATL@@@@@ATL@@@Z 0040b770 f i Details.obj
 0001:0000a810       ??$getChildData@H@CXMLReader@@QAEXAAH@Z 0040b810 f i Details.obj
 0001:0000a8b0       ?LoadXML@TransformSnap@@QAEXAAVCXMLReader@@@Z 0040b8b0 f i Details.obj
 0001:0000a8e0       ?DisplayRulers@CDetails@@ABEXAAVCContext@@AAVCOption@@@Z 0040b8e0 f   Details.obj
 0001:0000b030       ?Init@CDetails@@AAEXXZ     0040c030 f   Details.obj
 0001:0000b0b0       ?SetRulers@CDetails@@QAEX_NHH@Z 0040c0b0 f   Details.obj
 0001:0000b130       ?SetTitle@CDetails@@QAEXV?$CStringT@_WV?$StrTraitMFC@_WV?$ChTraitsCRT@_W@ATL@@@@@ATL@@@Z 0040c130 f   Details.obj
 0001:0000b1a0       ?SetAuthor@CDetails@@QAEXV?$CStringT@_WV?$StrTraitMFC@_WV?$ChTraitsCRT@_W@ATL@@@@@ATL@@@Z 0040c1a0 f   Details.obj
 0001:0000b210       ?SetRevision@CDetails@@QAEXV?$CStringT@_WV?$StrTraitMFC@_WV?$ChTraitsCRT@_W@ATL@@@@@ATL@@@Z 0040c210 f   Details.obj
 0001:0000b280       ?SetDocumentNumber@CDetails@@QAEXV?$CStringT@_WV?$StrTraitMFC@_WV?$ChTraitsCRT@_W@ATL@@@@@ATL@@@Z 0040c280 f   Details.obj
 0001:0000b2f0       ?SetOrganisation@CDetails@@QAEXV?$CStringT@_WV?$StrTraitMFC@_WV?$ChTraitsCRT@_W@ATL@@@@@ATL@@@Z 0040c2f0 f   Details.obj
 0001:0000b360       ?SetSheets@CDetails@@QAEXV?$CStringT@_WV?$StrTraitMFC@_WV?$ChTraitsCRT@_W@ATL@@@@@ATL@@@Z 0040c360 f   Details.obj
 0001:0000b3d0       ?Display@CDetails@@QBEXAAVCContext@@AAVCOption@@V?$CStringT@_WV?$StrTraitMFC@_WV?$ChTraitsCRT@_W@ATL@@@@@ATL@@@Z 0040c3d0 f   Details.obj
 0001:0000b480       ??0CDetails@@QAE@XZ        0040c480 f   Details.obj
 0001:0000b610       ?SetLastChange@CDetails@@QAEXPB_W@Z 0040c610 f   Details.obj
 0001:0000b650       ?ReadEx@CDetails@@QAEXAAVCStream@@@Z 0040c650 f   Details.obj
 0001:0000b7d0       ?ReadXML@CDetails@@QAEXAAVCXMLReader@@AAVTransformSnap@@@Z 0040c7d0 f   Details.obj
 0001:0000bb50       ?Format@CTime@ATL@@QBE?AV?$CStringT@_WV?$StrTraitMFC@_WV?$ChTraitsCRT@_W@ATL@@@@@2@PB_W@Z 0040cb50 f i Details.obj
 0001:0000bbe0       ?Format@CTime@ATL@@QBE?AV?$CStringT@_WV?$StrTraitMFC@_WV?$ChTraitsCRT@_W@ATL@@@@@2@PBD@Z 0040cbe0 f i Details.obj
 0001:0000bc70       ?Read@CDetails@@QAEXAAVCStream@@@Z 0040cc70 f   Details.obj
 0001:0000bdb0       ?GetRuntimeClass@CDetailsPropertyPage1@@UBEPAUCRuntimeClass@@XZ 0040cdb0 f   DetailsPropertyPages.obj
 0001:0000bdc0       ?GetRuntimeClass@CDetailsPropertyPage2@@UBEPAUCRuntimeClass@@XZ 0040cdc0 f   DetailsPropertyPages.obj
 0001:0000bdd0       ?OnShowRulers@CDetailsPropertyPage2@@IAEXXZ 0040cdd0 f   DetailsPropertyPages.obj
 0001:0000be00       ?BeginModalState@CWnd@@UAEXXZ 0040ce00 f i DetailsPropertyPages.obj
 0001:0000be10       ?EndModalState@CWnd@@UAEXXZ 0040ce10 f i DetailsPropertyPages.obj
 0001:0000be20       ??_ECEdit@@UAEPAXI@Z       0040ce20 f i DetailsPropertyPages.obj
 0001:0000be20       ??_GCEdit@@UAEPAXI@Z       0040ce20 f i DetailsPropertyPages.obj
 0001:0000be40       ?DoDataExchange@CDetailsPropertyPage1@@MAEXPAVCDataExchange@@@Z 0040ce40 f   DetailsPropertyPages.obj
 0001:0000bee0       ?GetMessageMap@CDetailsPropertyPage1@@MBEPBUAFX_MSGMAP@@XZ 0040cee0 f   DetailsPropertyPages.obj
 0001:0000bef0       ?DoDataExchange@CDetailsPropertyPage2@@MAEXPAVCDataExchange@@@Z 0040cef0 f   DetailsPropertyPages.obj
 0001:0000bf60       ?GetMessageMap@CDetailsPropertyPage2@@MBEPBUAFX_MSGMAP@@XZ 0040cf60 f   DetailsPropertyPages.obj
 0001:0000bf70       ??1CDetailsPropertyPage1@@UAE@XZ 0040cf70 f   DetailsPropertyPages.obj
 0001:0000c070       ?Create@CDialog@@UAEHIPAVCWnd@@@Z 0040d070 f i DetailsPropertyPages.obj
 0001:0000c080       ??1CDetailsPropertyPage2@@UAE@XZ 0040d080 f   DetailsPropertyPages.obj
 0001:0000c140       ??_ECDetailsPropertyPage1@@UAEPAXI@Z 0040d140 f i DetailsPropertyPages.obj
 0001:0000c140       ??_GCDetailsPropertyPage1@@UAEPAXI@Z 0040d140 f i DetailsPropertyPages.obj
 0001:0000c160       ??_GCDetailsPropertyPage2@@UAEPAXI@Z 0040d160 f i DetailsPropertyPages.obj
 0001:0000c160       ??_ECDetailsPropertyPage2@@UAEPAXI@Z 0040d160 f i DetailsPropertyPages.obj
 0001:0000c180       ?OnApply@CDetailsPropertyPage1@@UAEHXZ 0040d180 f   DetailsPropertyPages.obj
 0001:0000c3d0       ?MakeUpper@?$CStringT@_WV?$StrTraitMFC@_WV?$ChTraitsCRT@_W@ATL@@@@@ATL@@QAEAAV12@XZ 0040d3d0 f i DetailsPropertyPages.obj
 0001:0000c430       ?OnApply@CDetailsPropertyPage2@@UAEHXZ 0040d430 f   DetailsPropertyPages.obj
 0001:0000c4c0       ?OnInitDialog@CDetailsPropertyPage2@@MAEHXZ 0040d4c0 f   DetailsPropertyPages.obj
 0001:0000c590       ?OnInitDialog@CDetailsPropertyPage1@@MAEHXZ 0040d590 f   DetailsPropertyPages.obj
 0001:0000c880       ??0CDetailsPropertyPage1@@QAE@PAVCMultiSheetDoc@@@Z 0040d880 f   DetailsPropertyPages.obj
 0001:0000cac0       ??0CDetailsPropertyPage2@@QAE@PAVCMultiSheetDoc@@@Z 0040dac0 f   DetailsPropertyPages.obj
 0001:0000cbe0       ?CreateObject@CDetailsPropertyPage1@@SGPAVCObject@@XZ 0040dbe0 f   DetailsPropertyPages.obj
 0001:0000cc50       ?CreateObject@CDetailsPropertyPage2@@SGPAVCObject@@XZ 0040dc50 f   DetailsPropertyPages.obj
 0001:0000ccc0       ?GetRuntimeClass@CDetailsPropertySheet@@UBEPAUCRuntimeClass@@XZ 0040dcc0 f   DetailsPropertySheet.obj
 0001:0000ccd0       ??0CDetailsPropertySheet@@QAE@PAVCMultiSheetDoc@@PAVCWnd@@@Z 0040dcd0 f   DetailsPropertySheet.obj
 0001:0000cd70       ??1CDetailsPropertySheet@@UAE@XZ 0040dd70 f   DetailsPropertySheet.obj
 0001:0000cdf0       ??_GCDetailsPropertySheet@@UAEPAXI@Z 0040ddf0 f i DetailsPropertySheet.obj
 0001:0000cdf0       ??_ECDetailsPropertySheet@@UAEPAXI@Z 0040ddf0 f i DetailsPropertySheet.obj
 0001:0000ce10       ??0CDlgAbout@@QAE@XZ       0040de10 f   DlgAbout.obj
 0001:0000ce30       ?Concatenate@?$CSimpleStringT@_W$0A@@ATL@@KAXAAV12@PB_WH1H@Z 0040de30 f i DlgAbout.obj
 0001:0000cec0       ??HATL@@YA?AV?$CStringT@_WV?$StrTraitMFC@_WV?$ChTraitsCRT@_W@ATL@@@@@0@ABV10@0@Z 0040dec0 f i DlgAbout.obj
 0001:0000cf80       ?OnInitDialog@CDlgAbout@@MAEHXZ 0040df80 f   DlgAbout.obj
 0001:0000d100       ??0CDlgAboutTurunga@@QAE@XZ 0040e100 f   DlgAboutTurunga.obj
 0001:0000d120       ??1CDlgLibraryBox@@UAE@XZ  0040e120 f i DlgLibraryBox.obj
 0001:0000d120       ??1CDlgERCBox@@UAE@XZ      0040e120 f i Net.obj
 0001:0000d120       ??1CEditDlgDrawLineEdit@@UAE@XZ 0040e120 f i EditDlgDrawLineEdit.obj
 0001:0000d120       ??1CEditDlgRotateBox@@UAE@XZ 0040e120 f i EditToolbar.obj
 0001:0000d120       ??1CDlgPartsInPackage@@UAE@XZ 0040e120 f i DlgPartsInPackage.obj
 0001:0000d120       ??1CDlgPageSizeBox@@UAE@XZ 0040e120 f i Menu.obj
 0001:0000d120       ??1CEditDlg@@UAE@XZ        0040e120 f i EditDlg.obj
 0001:0000d120       ??1CEditDlgTextEdit@@UAE@XZ 0040e120 f i EditDlgTextEdit.obj
 0001:0000d120       ??1CDlgAbout@@UAE@XZ       0040e120 f i DlgAbout.obj
 0001:0000d120       ??1CEditDlgLabelEdit@@UAE@XZ 0040e120 f i EditDlgLabelEdit.obj
 0001:0000d120       ??1CDlgAboutTurunga@@UAE@XZ 0040e120 f i DlgAboutTurunga.obj
 0001:0000d120       ??1CEditDlgNoTool@@UAE@XZ  0040e120 f i EditToolbar.obj
 0001:0000d120       ??1CEditDlgDrawPolyEdit@@UAE@XZ 0040e120 f i EditDlgDrawPolyEdit.obj
 0001:0000d120       ??1CEditDlgPowerEdit@@UAE@XZ 0040e120 f i EditToolbar.obj
 0001:0000d130       ?OnInitDialog@CDlgAboutTurunga@@MAEHXZ 0040e130 f   DlgAboutTurunga.obj
 0001:0000d1d0       ?OnChangeStart@CDlgAnotateBox@@IAEXXZ 0040e1d0 f   DlgAnotateBox.obj
 0001:0000d1f0       ??_9CDlgAnotateBox@@$BBGE@AE 0040e1f0 f i DlgAnotateBox.obj
 0001:0000d200       ?OnInitDialog@CDlgAnotateBox@@MAEHXZ 0040e200 f   DlgAnotateBox.obj
 0001:0000d2b0       ?GetMessageMap@CDlgAnotateBox@@MBEPBUAFX_MSGMAP@@XZ 0040e2b0 f   DlgAnotateBox.obj
 0001:0000d2c0       ?ReadData@CDlgAnotateBox@@IAEXXZ 0040e2c0 f   DlgAnotateBox.obj
 0001:0000d3c0       ?OnOK@CDlgAnotateBox@@MAEXXZ 0040e3c0 f   DlgAnotateBox.obj
 0001:0000d3e0       ?OnRefPainter@CDlgAnotateBox@@MAEXXZ 0040e3e0 f   DlgAnotateBox.obj
 0001:0000d400       ??$swprintf_s@$0BAA@@@YAHAAY0BAA@_WPB_WZZ 0040e400 f i DlgBOMExport.obj
 0001:0000d420       ??_ECComboBox@@UAEPAXI@Z   0040e420 f i DlgBOMExport.obj
 0001:0000d420       ??_GCComboBox@@UAEPAXI@Z   0040e420 f i DlgBOMExport.obj
 0001:0000d440       ?DoDataExchange@CDlgBOMExport@@MAEXPAVCDataExchange@@@Z 0040e440 f   DlgBOMExport.obj
 0001:0000d4c0       ??0?$CSimpleStringT@_W$0A@@ATL@@QAE@PB_WHPAUIAtlStringMgr@1@@Z 0040e4c0 f i DlgBOMExport.obj
 0001:0000d540       ??0?$CStringT@_WV?$StrTraitMFC@_WV?$ChTraitsCRT@_W@ATL@@@@@ATL@@QAE@PB_WHPAUIAtlStringMgr@1@@Z 0040e540 f i DlgBOMExport.obj
 0001:0000d560       ?Left@?$CStringT@_WV?$StrTraitMFC@_WV?$ChTraitsCRT@_W@ATL@@@@@ATL@@QBE?AV12@H@Z 0040e560 f i DlgBOMExport.obj
 0001:0000d5e0       ??HATL@@YA?AV?$CStringT@_WV?$StrTraitMFC@_WV?$ChTraitsCRT@_W@ATL@@@@@0@PB_WABV10@@Z 0040e5e0 f i DlgBOMExport.obj
 0001:0000d6d0       ?OnOK@CDlgBOMExport@@MAEXXZ 0040e6d0 f   DlgBOMExport.obj
 0001:0000d7a0       ?GetExtension@CDlgBOMExport@@QAE?AV?$CStringT@_WV?$StrTraitMFC@_WV?$ChTraitsCRT@_W@ATL@@@@@ATL@@XZ 0040e7a0 f   DlgBOMExport.obj
 0001:0000d880       ??0CDlgBOMExport@@QAE@PAVCWnd@@@Z 0040e880 f   DlgBOMExport.obj
 0001:0000da00       ??1CDlgBOMExport@@UAE@XZ   0040ea00 f i DlgBOMExport.obj
 0001:0000da00       ??1CDlgPCBExport@@UAE@XZ   0040ea00 f i DlgPCBExport.obj
 0001:0000da80       ??_ECDlgBOMExport@@UAEPAXI@Z 0040ea80 f i DlgBOMExport.obj
 0001:0000da80       ??_GCDlgPCBExport@@UAEPAXI@Z 0040ea80 f i DlgPCBExport.obj
 0001:0000da80       ??_ECDlgPCBExport@@UAEPAXI@Z 0040ea80 f i DlgPCBExport.obj
 0001:0000da80       ??_GCDlgBOMExport@@UAEPAXI@Z 0040ea80 f i DlgBOMExport.obj
 0001:0000daa0       ?OnBrowse@CDlgBOMExport@@IAEXXZ 0040eaa0 f   DlgBOMExport.obj
 0001:0000dc60       ?OnSelchangeFileType@CDlgBOMExport@@IAEXXZ 0040ec60 f   DlgBOMExport.obj
 0001:0000dd80       ?OnInitDialog@CDlgBOMExport@@MAEHXZ 0040ed80 f   DlgBOMExport.obj
 0001:0000de00       ?GetMessageMap@CDlgBOMExport@@MBEPBUAFX_MSGMAP@@XZ 0040ee00 f   DlgBOMExport.obj
 0001:0000de10       ?_Max@?$_Tree@V?$_Tmap_traits@HHU?$less@H@std@@V?$allocator@U?$pair@$$CBHH@std@@@2@$0A@@std@@@std@@KAPAU_Node@?$_Tree_nod@V?$_Tmap_traits@HHU?$less@H@std@@V?$allocator@U?$pair@$$CBHH@std@@@2@$0A@@std@@@2@PAU342@@Z 0040ee10 f i DlgColours.obj
 0001:0000de10       ?_Max@?$_Tree@V?$_Tmap_traits@V?$CStringT@_WV?$StrTraitMFC@_WV?$ChTraitsCRT@_W@ATL@@@@@ATL@@HU?$less@V?$CStringT@_WV?$StrTraitMFC@_WV?$ChTraitsCRT@_W@ATL@@@@@ATL@@@std@@V?$allocator@U?$pair@$$CBV?$CStringT@_WV?$StrTraitMFC@_WV?$ChTraitsCRT@_W@ATL@@@@@ATL@@H@std@@@4@$00@std@@@std@@KAPAU_Node@?$_Tree_nod@V?$_Tmap_traits@V?$CStringT@_WV?$StrTraitMFC@_WV?$ChTraitsCRT@_W@ATL@@@@@ATL@@HU?$less@V?$CStringT@_WV?$StrTraitMFC@_WV?$ChTraitsCRT@_W@ATL@@@@@ATL@@@std@@V?$allocator@U?$pair@$$CBV?$CStringT@_WV?$StrTraitMFC@_WV?$ChTraitsCRT@_W@ATL@@@@@ATL@@H@std@@@4@$00@std@@@2@PAU342@@Z 0040ee10 f i LibraryDoc.obj
 0001:0000de10       ?_Max@?$_Tree@V?$_Tmap_traits@V?$CStringT@_WV?$StrTraitMFC@_WV?$ChTraitsCRT@_W@ATL@@@@@ATL@@HU?$less@V?$CStringT@_WV?$StrTraitMFC@_WV?$ChTraitsCRT@_W@ATL@@@@@ATL@@@std@@V?$allocator@U?$pair@$$CBV?$CStringT@_WV?$StrTraitMFC@_WV?$ChTraitsCRT@_W@ATL@@@@@ATL@@H@std@@@4@$0A@@std@@@std@@KAPAU_Node@?$_Tree_nod@V?$_Tmap_traits@V?$CStringT@_WV?$StrTraitMFC@_WV?$ChTraitsCRT@_W@ATL@@@@@ATL@@HU?$less@V?$CStringT@_WV?$StrTraitMFC@_WV?$ChTraitsCRT@_W@ATL@@@@@ATL@@@std@@V?$allocator@U?$pair@$$CBV?$CStringT@_WV?$StrTraitMFC@_WV?$ChTraitsCRT@_W@ATL@@@@@ATL@@H@std@@@4@$0A@@std@@@2@PAU342@@Z 0040ee10 f i Library.obj
 0001:0000de10       ?_Max@?$_Tree@V?$_Tmap_traits@V?$CStringT@_WV?$StrTraitMFC@_WV?$ChTraitsCRT@_W@ATL@@@@@ATL@@V12@U?$less@V?$CStringT@_WV?$StrTraitMFC@_WV?$ChTraitsCRT@_W@ATL@@@@@ATL@@@std@@V?$allocator@U?$pair@$$CBV?$CStringT@_WV?$StrTraitMFC@_WV?$ChTraitsCRT@_W@ATL@@@@@ATL@@V12@@std@@@4@$0A@@std@@@std@@KAPAU_Node@?$_Tree_nod@V?$_Tmap_traits@V?$CStringT@_WV?$StrTraitMFC@_WV?$ChTraitsCRT@_W@ATL@@@@@ATL@@V12@U?$less@V?$CStringT@_WV?$StrTraitMFC@_WV?$ChTraitsCRT@_W@ATL@@@@@ATL@@@std@@V?$allocator@U?$pair@$$CBV?$CStringT@_WV?$StrTraitMFC@_WV?$ChTraitsCRT@_W@ATL@@@@@ATL@@V12@@std@@@4@$0A@@std@@@2@PAU342@@Z 0040ee10 f i xml_parse_tag.obj
 0001:0000de10       ?_Max@?$_Tree@V?$_Tmap_traits@HV?$CStringT@_WV?$StrTraitMFC@_WV?$ChTraitsCRT@_W@ATL@@@@@ATL@@U?$less@H@std@@V?$allocator@U?$pair@$$CBHV?$CStringT@_WV?$StrTraitMFC@_WV?$ChTraitsCRT@_W@ATL@@@@@ATL@@@std@@@4@$0A@@std@@@std@@KAPAU_Node@?$_Tree_nod@V?$_Tmap_traits@HV?$CStringT@_WV?$StrTraitMFC@_WV?$ChTraitsCRT@_W@ATL@@@@@ATL@@U?$less@H@std@@V?$allocator@U?$pair@$$CBHV?$CStringT@_WV?$StrTraitMFC@_WV?$ChTraitsCRT@_W@ATL@@@@@ATL@@@std@@@4@$0A@@std@@@2@PAU342@@Z 0040ee10 f i NetList.obj
 0001:0000de10       ?_Max@?$_Tree@V?$_Tmap_traits@W4ObjType@@FU?$less@W4ObjType@@@std@@V?$allocator@U?$pair@$$CBW4ObjType@@F@std@@@3@$0A@@std@@@std@@KAPAU_Node@?$_Tree_nod@V?$_Tmap_traits@W4ObjType@@FU?$less@W4ObjType@@@std@@V?$allocator@U?$pair@$$CBW4ObjType@@F@std@@@3@$0A@@std@@@2@PAU342@@Z 0040ee10 f i DrawLabel.obj
 0001:0000de10       ?_Max@?$_Tree@V?$_Tmap_traits@HKU?$less@H@std@@V?$allocator@U?$pair@$$CBHK@std@@@2@$0A@@std@@@std@@KAPAU_Node@?$_Tree_nod@V?$_Tmap_traits@HKU?$less@H@std@@V?$allocator@U?$pair@$$CBHK@std@@@2@$0A@@std@@@2@PAU342@@Z 0040ee10 f i DlgColours.obj
 0001:0000de30       ?_Rrotate@?$_Tree@V?$_Tmap_traits@HHU?$less@H@std@@V?$allocator@U?$pair@$$CBHH@std@@@2@$0A@@std@@@std@@IAEXPAU_Node@?$_Tree_nod@V?$_Tmap_traits@HHU?$less@H@std@@V?$allocator@U?$pair@$$CBHH@std@@@2@$0A@@std@@@2@@Z 0040ee30 f i DlgColours.obj
 0001:0000de30       ?_Rrotate@?$_Tree@V?$_Tmap_traits@HV?$CStringT@_WV?$StrTraitMFC@_WV?$ChTraitsCRT@_W@ATL@@@@@ATL@@U?$less@H@std@@V?$allocator@U?$pair@$$CBHV?$CStringT@_WV?$StrTraitMFC@_WV?$ChTraitsCRT@_W@ATL@@@@@ATL@@@std@@@4@$0A@@std@@@std@@IAEXPAU_Node@?$_Tree_nod@V?$_Tmap_traits@HV?$CStringT@_WV?$StrTraitMFC@_WV?$ChTraitsCRT@_W@ATL@@@@@ATL@@U?$less@H@std@@V?$allocator@U?$pair@$$CBHV?$CStringT@_WV?$StrTraitMFC@_WV?$ChTraitsCRT@_W@ATL@@@@@ATL@@@std@@@4@$0A@@std@@@2@@Z 0040ee30 f i NetList.obj
 0001:0000de30       ?_Rrotate@?$_Tree@V?$_Tmap_traits@W4ObjType@@FU?$less@W4ObjType@@@std@@V?$allocator@U?$pair@$$CBW4ObjType@@F@std@@@3@$0A@@std@@@std@@IAEXPAU_Node@?$_Tree_nod@V?$_Tmap_traits@W4ObjType@@FU?$less@W4ObjType@@@std@@V?$allocator@U?$pair@$$CBW4ObjType@@F@std@@@3@$0A@@std@@@2@@Z 0040ee30 f i DrawLabel.obj
 0001:0000de30       ?_Rrotate@?$_Tree@V?$_Tmap_traits@V?$CStringT@_WV?$StrTraitMFC@_WV?$ChTraitsCRT@_W@ATL@@@@@ATL@@HU?$less@V?$CStringT@_WV?$StrTraitMFC@_WV?$ChTraitsCRT@_W@ATL@@@@@ATL@@@std@@V?$allocator@U?$pair@$$CBV?$CStringT@_WV?$StrTraitMFC@_WV?$ChTraitsCRT@_W@ATL@@@@@ATL@@H@std@@@4@$00@std@@@std@@IAEXPAU_Node@?$_Tree_nod@V?$_Tmap_traits@V?$CStringT@_WV?$StrTraitMFC@_WV?$ChTraitsCRT@_W@ATL@@@@@ATL@@HU?$less@V?$CStringT@_WV?$StrTraitMFC@_WV?$ChTraitsCRT@_W@ATL@@@@@ATL@@@std@@V?$allocator@U?$pair@$$CBV?$CStringT@_WV?$StrTraitMFC@_WV?$ChTraitsCRT@_W@ATL@@@@@ATL@@H@std@@@4@$00@std@@@2@@Z 0040ee30 f i LibraryDoc.obj
 0001:0000de30       ?_Rrotate@?$_Tree@V?$_Tmap_traits@V?$CStringT@_WV?$StrTraitMFC@_WV?$ChTraitsCRT@_W@ATL@@@@@ATL@@HU?$less@V?$CStringT@_WV?$StrTraitMFC@_WV?$ChTraitsCRT@_W@ATL@@@@@ATL@@@std@@V?$allocator@U?$pair@$$CBV?$CStringT@_WV?$StrTraitMFC@_WV?$ChTraitsCRT@_W@ATL@@@@@ATL@@H@std@@@4@$0A@@std@@@std@@IAEXPAU_Node@?$_Tree_nod@V?$_Tmap_traits@V?$CStringT@_WV?$StrTraitMFC@_WV?$ChTraitsCRT@_W@ATL@@@@@ATL@@HU?$less@V?$CStringT@_WV?$StrTraitMFC@_WV?$ChTraitsCRT@_W@ATL@@@@@ATL@@@std@@V?$allocator@U?$pair@$$CBV?$CStringT@_WV?$StrTraitMFC@_WV?$ChTraitsCRT@_W@ATL@@@@@ATL@@H@std@@@4@$0A@@std@@@2@@Z 0040ee30 f i Library.obj
 0001:0000de30       ?_Rrotate@?$_Tree@V?$_Tmap_traits@HKU?$less@H@std@@V?$allocator@U?$pair@$$CBHK@std@@@2@$0A@@std@@@std@@IAEXPAU_Node@?$_Tree_nod@V?$_Tmap_traits@HKU?$less@H@std@@V?$allocator@U?$pair@$$CBHK@std@@@2@$0A@@std@@@2@@Z 0040ee30 f i DlgColours.obj
 0001:0000de30       ?_Rrotate@?$_Tree@V?$_Tmap_traits@V?$CStringT@_WV?$StrTraitMFC@_WV?$ChTraitsCRT@_W@ATL@@@@@ATL@@V12@U?$less@V?$CStringT@_WV?$StrTraitMFC@_WV?$ChTraitsCRT@_W@ATL@@@@@ATL@@@std@@V?$allocator@U?$pair@$$CBV?$CStringT@_WV?$StrTraitMFC@_WV?$ChTraitsCRT@_W@ATL@@@@@ATL@@V12@@std@@@4@$0A@@std@@@std@@IAEXPAU_Node@?$_Tree_nod@V?$_Tmap_traits@V?$CStringT@_WV?$StrTraitMFC@_WV?$ChTraitsCRT@_W@ATL@@@@@ATL@@V12@U?$less@V?$CStringT@_WV?$StrTraitMFC@_WV?$ChTraitsCRT@_W@ATL@@@@@ATL@@@std@@V?$allocator@U?$pair@$$CBV?$CStringT@_WV?$StrTraitMFC@_WV?$ChTraitsCRT@_W@ATL@@@@@ATL@@V12@@std@@@4@$0A@@std@@@2@@Z 0040ee30 f i xml_parse_tag.obj
 0001:0000de90       ?Rectangle@CDC@@QAEHPBUtagRECT@@@Z 0040ee90 f i DlgColours.obj
 0001:0000deb0       ?EditColor@CDlgColours@@QAEXH@Z 0040eeb0 f   DlgColours.obj
 0001:0000df50       ?OnReset@CDlgColours@@IAEXXZ 0040ef50 f   DlgColours.obj
 0001:0000df80       ?OnColBackground@CDlgColours@@IAEXXZ 0040ef80 f   DlgColours.obj
 0001:0000df90       ?OnColBus@CDlgColours@@IAEXXZ 0040ef90 f   DlgColours.obj
 0001:0000dfa0       ?OnColJunction@CDlgColours@@IAEXXZ 0040efa0 f   DlgColours.obj
 0001:0000dfb0       ?OnColNoconnect@CDlgColours@@IAEXXZ 0040efb0 f   DlgColours.obj
 0001:0000dfc0       ?OnColPin@CDlgColours@@IAEXXZ 0040efc0 f   DlgColours.obj
 0001:0000dfd0       ?OnColPower@CDlgColours@@IAEXXZ 0040efd0 f   DlgColours.obj
 0001:0000dfe0       ?OnColWire@CDlgColours@@IAEXXZ 0040efe0 f   DlgColours.obj
 0001:0000dff0       ?_Erase@?$_Tree@V?$_Tmap_traits@HKU?$less@H@std@@V?$allocator@U?$pair@$$CBHK@std@@@2@$0A@@std@@@std@@IAEXPAU_Node@?$_Tree_nod@V?$_Tmap_traits@HKU?$less@H@std@@V?$allocator@U?$pair@$$CBHK@std@@@2@$0A@@std@@@2@@Z 0040eff0 f i DlgColours.obj
 0001:0000dff0       ?_Erase@?$_Tree@V?$_Tmap_traits@W4ObjType@@FU?$less@W4ObjType@@@std@@V?$allocator@U?$pair@$$CBW4ObjType@@F@std@@@3@$0A@@std@@@std@@IAEXPAU_Node@?$_Tree_nod@V?$_Tmap_traits@W4ObjType@@FU?$less@W4ObjType@@@std@@V?$allocator@U?$pair@$$CBW4ObjType@@F@std@@@3@$0A@@std@@@2@@Z 0040eff0 f i Option.obj
 0001:0000dff0       ?_Erase@?$_Tree@V?$_Tmap_traits@HHU?$less@H@std@@V?$allocator@U?$pair@$$CBHH@std@@@2@$0A@@std@@@std@@IAEXPAU_Node@?$_Tree_nod@V?$_Tmap_traits@HHU?$less@H@std@@V?$allocator@U?$pair@$$CBHH@std@@@2@$0A@@std@@@2@@Z 0040eff0 f i DlgColours.obj
 0001:0000e030       ?_Buynode@?$_Tree@V?$_Tmap_traits@HHU?$less@H@std@@V?$allocator@U?$pair@$$CBHH@std@@@2@$0A@@std@@@std@@IAEPAU_Node@?$_Tree_nod@V?$_Tmap_traits@HHU?$less@H@std@@V?$allocator@U?$pair@$$CBHH@std@@@2@$0A@@std@@@2@PAU342@00ABU?$pair@$$CBHH@2@D@Z 0040f030 f i DlgColours.obj
 0001:0000e030       ?_Buynode@?$_Tree@V?$_Tmap_traits@W4ObjType@@FU?$less@W4ObjType@@@std@@V?$allocator@U?$pair@$$CBW4ObjType@@F@std@@@3@$0A@@std@@@std@@IAEPAU_Node@?$_Tree_nod@V?$_Tmap_traits@W4ObjType@@FU?$less@W4ObjType@@@std@@V?$allocator@U?$pair@$$CBW4ObjType@@F@std@@@3@$0A@@std@@@2@PAU342@00ABU?$pair@$$CBW4ObjType@@F@2@D@Z 0040f030 f i DrawLabel.obj
 0001:0000e030       ?_Buynode@?$_Tree@V?$_Tmap_traits@HKU?$less@H@std@@V?$allocator@U?$pair@$$CBHK@std@@@2@$0A@@std@@@std@@IAEPAU_Node@?$_Tree_nod@V?$_Tmap_traits@HKU?$less@H@std@@V?$allocator@U?$pair@$$CBHK@std@@@2@$0A@@std@@@2@PAU342@00ABU?$pair@$$CBHK@2@D@Z 0040f030 f i DlgColours.obj
 0001:0000e070       ??1CBrush@@UAE@XZ          0040f070 f i DlgColours.obj
 0001:0000e080       ??_ECBrush@@UAEPAXI@Z      0040f080 f i DlgColours.obj
 0001:0000e080       ??_GCBrush@@UAEPAXI@Z      0040f080 f i DlgColours.obj
 0001:0000e0b0       ?erase@?$_Tree@V?$_Tmap_traits@HHU?$less@H@std@@V?$allocator@U?$pair@$$CBHH@std@@@2@$0A@@std@@@std@@QAE?AViterator@12@Vconst_iterator@12@@Z 0040f0b0 f i DlgColours.obj
 0001:0000e0b0       ?erase@?$_Tree@V?$_Tmap_traits@W4ObjType@@FU?$less@W4ObjType@@@std@@V?$allocator@U?$pair@$$CBW4ObjType@@F@std@@@3@$0A@@std@@@std@@QAE?AViterator@12@Vconst_iterator@12@@Z 0040f0b0 f i Option.obj
 0001:0000e0b0       ?erase@?$_Tree@V?$_Tmap_traits@HKU?$less@H@std@@V?$allocator@U?$pair@$$CBHK@std@@@2@$0A@@std@@@std@@QAE?AViterator@12@Vconst_iterator@12@@Z 0040f0b0 f i DlgColours.obj
 0001:0000e380       ?erase@?$_Tree@V?$_Tmap_traits@W4ObjType@@FU?$less@W4ObjType@@@std@@V?$allocator@U?$pair@$$CBW4ObjType@@F@std@@@3@$0A@@std@@@std@@QAE?AViterator@12@Vconst_iterator@12@0@Z 0040f380 f i Option.obj
 0001:0000e380       ?erase@?$_Tree@V?$_Tmap_traits@HHU?$less@H@std@@V?$allocator@U?$pair@$$CBHH@std@@@2@$0A@@std@@@std@@QAE?AViterator@12@Vconst_iterator@12@0@Z 0040f380 f i DlgColours.obj
 0001:0000e380       ?erase@?$_Tree@V?$_Tmap_traits@HKU?$less@H@std@@V?$allocator@U?$pair@$$CBHK@std@@@2@$0A@@std@@@std@@QAE?AViterator@12@Vconst_iterator@12@0@Z 0040f380 f i DlgColours.obj
 0001:0000e460       ?_Tidy@?$_Tree@V?$_Tmap_traits@HHU?$less@H@std@@V?$allocator@U?$pair@$$CBHH@std@@@2@$0A@@std@@@std@@IAEXXZ 0040f460 f i DlgColours.obj
 0001:0000e4a0       ??1?$_Tree@V?$_Tmap_traits@HHU?$less@H@std@@V?$allocator@U?$pair@$$CBHH@std@@@2@$0A@@std@@@std@@QAE@XZ 0040f4a0 f i DlgColours.obj
 0001:0000e4a0       ??1?$_Tree@V?$_Tmap_traits@W4ObjType@@FU?$less@W4ObjType@@@std@@V?$allocator@U?$pair@$$CBW4ObjType@@F@std@@@3@$0A@@std@@@std@@QAE@XZ 0040f4a0 f i Option.obj
 0001:0000e4a0       ??1?$_Tree@V?$_Tmap_traits@HKU?$less@H@std@@V?$allocator@U?$pair@$$CBHK@std@@@2@$0A@@std@@@std@@QAE@XZ 0040f4a0 f i DlgColours.obj
 0001:0000e520       ??1CUserColor@@QAE@XZ      0040f520 f i DlgColours.obj
 0001:0000e520       ??1?$map@HKU?$less@H@std@@V?$allocator@U?$pair@$$CBHK@std@@@2@@std@@QAE@XZ 0040f520 f i DlgColours.obj
 0001:0000e520       ??1?$map@HHU?$less@H@std@@V?$allocator@U?$pair@$$CBHH@std@@@2@@std@@QAE@XZ 0040f520 f i DlgColours.obj
 0001:0000e520       ??1?$map@W4ObjType@@FU?$less@W4ObjType@@@std@@V?$allocator@U?$pair@$$CBW4ObjType@@F@std@@@3@@std@@QAE@XZ 0040f520 f i Option.obj
 0001:0000e530       ?OnDrawItem@CDlgColours@@IAEXHPAUtagDRAWITEMSTRUCT@@@Z 0040f530 f   DlgColours.obj
 0001:0000e630       ?OnOK@CDlgColours@@MAEXXZ  0040f630 f   DlgColours.obj
 0001:0000e6e0       ??0CDlgColours@@QAE@AAVCUserColor@@@Z 0040f6e0 f   DlgColours.obj
 0001:0000e8a0       ??1CDlgColours@@UAE@XZ     0040f8a0 f i DlgColours.obj
 0001:0000e910       ??_GCDlgColours@@UAEPAXI@Z 0040f910 f i DlgColours.obj
 0001:0000e910       ??_ECDlgColours@@UAEPAXI@Z 0040f910 f i DlgColours.obj
 0001:0000e930       ?GetMessageMap@CDlgColours@@MBEPBUAFX_MSGMAP@@XZ 0040f930 f   DlgColours.obj
 0001:0000e940       ??0CDlgERCListBox@@QAE@XZ  0040f940 f   DlgERCListBox.obj
 0001:0000e960       ?Close@CDlgERCListBox@@QAEXXZ 0040f960 f   DlgERCListBox.obj
 0001:0000e9d0       ?GetCurSel@CListBox@@QBEHXZ 0040f9d0 f i DlgERCListBox.obj
 0001:0000e9f0       ?SetCurSel@CListBox@@QAEHH@Z 0040f9f0 f i DlgERCListBox.obj
 0001:0000ea10       ?AddString@CListBox@@QAEHPB_W@Z 0040fa10 f i DlgERCListBox.obj
 0001:0000ea30       ?ResetContent@CListBox@@QAEXXZ 0040fa30 f i DlgERCListBox.obj
 0001:0000ea50       ?Open@CDlgERCListBox@@QAEXPAVCMultiSheetDoc@@@Z 0040fa50 f   DlgERCListBox.obj
 0001:0000eac0       ?SetSelect@CDlgERCListBox@@QAEXH@Z 0040fac0 f   DlgERCListBox.obj
 0001:0000eb00       ?AddString@CDlgERCListBox@@QAEXV?$CStringT@_WV?$StrTraitMFC@_WV?$ChTraitsCRT@_W@ATL@@@@@ATL@@@Z 0040fb00 f   DlgERCListBox.obj
 0001:0000eb90       ?OnClick@CDlgERCListBox@@QAEXXZ 0040fb90 f   DlgERCListBox.obj
 0001:0000ed40       ?GetMessageMap@CDlgERCListBox@@MBEPBUAFX_MSGMAP@@XZ 0040fd40 f   DlgERCListBox.obj
 0001:0000ed50       ?DoDataExchange@CDlgExportPNG@@MAEXPAVCDataExchange@@@Z 0040fd50 f   DlgExportPNG.obj
 0001:0000edd0       ?OnOK@CDlgExportPNG@@MAEXXZ 0040fdd0 f   DlgExportPNG.obj
 0001:0000ee90       ?getExtension@CDlgExportPNG@@QAE?AV?$CStringT@_WV?$StrTraitMFC@_WV?$ChTraitsCRT@_W@ATL@@@@@ATL@@XZ 0040fe90 f   DlgExportPNG.obj
 0001:0000eee0       ??8ATL@@YA_NABV?$CStringT@_WV?$StrTraitMFC@_WV?$ChTraitsCRT@_W@ATL@@@@@0@PBD@Z 0040fee0 f i DlgExportPNG.obj
 0001:0000ef50       ??0CDlgExportPNG@@QAE@PAVCWnd@@@Z 0040ff50 f   DlgExportPNG.obj
 0001:0000f0b0       ??1CDlgExportPNG@@UAE@XZ   004100b0 f i DlgExportPNG.obj
 0001:0000f150       ??_GCDlgExportPNG@@UAEPAXI@Z 00410150 f i DlgExportPNG.obj
 0001:0000f150       ??_ECDlgExportPNG@@UAEPAXI@Z 00410150 f i DlgExportPNG.obj
 0001:0000f170       ?OnBrowse@CDlgExportPNG@@IAEXXZ 00410170 f   DlgExportPNG.obj
 0001:0000f3d0       ?UpdateExtension@CDlgExportPNG@@AAEXXZ 004103d0 f   DlgExportPNG.obj
 0001:0000f540       ?OnInitDialog@CDlgExportPNG@@MAEHXZ 00410540 f   DlgExportPNG.obj
 0001:0000f600       ?OnSelchangeFileType@CDlgExportPNG@@IAEXXZ 00410600 f   DlgExportPNG.obj
 0001:0000f610       ?GetMessageMap@CDlgExportPNG@@MBEPBUAFX_MSGMAP@@XZ 00410610 f   DlgExportPNG.obj
 0001:0000f620       ?ReleaseBuffer@?$CSimpleStringT@_W$0A@@ATL@@QAEXH@Z 00410620 f i DlgFindBox.obj
 0001:0000f670       ?OnOK@CDlgFindBox@@UAEXXZ  00410670 f   DlgFindBox.obj
 0001:0000f6f0       ??0CDPoint@@QAE@XZ         004106f0 f i DlgGetFindBox.obj
 0001:0000f700       ??0CRect@@QAE@ABUtagRECT@@@Z 00410700 f i DlgGetFindBox.obj
 0001:0000f720       ?DoDataExchange@CDlgGetFindBox@@MAEXPAVCDataExchange@@@Z 00410720 f   DlgGetFindBox.obj
 0001:0000f7a0       ?CalcDynamicLayout@CDlgGetFindBox@@UAE?AVCSize@@HK@Z 004107a0 f   DlgGetFindBox.obj
 0001:0000f820       ?_Max@?$_Tree@V?$_Tset_traits@V?$CStringT@_WV?$StrTraitMFC@_WV?$ChTraitsCRT@_W@ATL@@@@@ATL@@U?$less@V?$CStringT@_WV?$StrTraitMFC@_WV?$ChTraitsCRT@_W@ATL@@@@@ATL@@@std@@V?$allocator@V?$CStringT@_WV?$StrTraitMFC@_WV?$ChTraitsCRT@_W@ATL@@@@@ATL@@@4@$0A@@std@@@std@@KAPAU_Node@?$_Tree_nod@V?$_Tset_traits@V?$CStringT@_WV?$StrTraitMFC@_WV?$ChTraitsCRT@_W@ATL@@@@@ATL@@U?$less@V?$CStringT@_WV?$StrTraitMFC@_WV?$ChTraitsCRT@_W@ATL@@@@@ATL@@@std@@V?$allocator@V?$CStringT@_WV?$StrTraitMFC@_WV?$ChTraitsCRT@_W@ATL@@@@@ATL@@@4@$0A@@std@@@2@PAU342@@Z 00410820 f i DlgGetFindBox.obj
 0001:0000f820       ?_Max@?$_Tree@V?$_Tset_traits@PAVCDrawingObject@@U?$less@PAVCDrawingObject@@@std@@V?$allocator@PAVCDrawingObject@@@3@$0A@@std@@@std@@KAPAU_Node@?$_Tree_nod@V?$_Tset_traits@PAVCDrawingObject@@U?$less@PAVCDrawingObject@@@std@@V?$allocator@PAVCDrawingObject@@@3@$0A@@std@@@2@PAU342@@Z 00410820 f i DragUtils.obj
 0001:0000f840       ?GetWindowRect@CWnd@@QBEXPAUtagRECT@@@Z 00410840 f i DlgGetFindBox.obj
 0001:0000f860       ?GetClientRect@CWnd@@QBEXPAUtagRECT@@@Z 00410860 f i DlgGetFindBox.obj
 0001:0000f880       ??_ECListBox@@UAEPAXI@Z    00410880 f i DlgGetFindBox.obj
 0001:0000f880       ??_GCListBox@@UAEPAXI@Z    00410880 f i DlgGetFindBox.obj
 0001:0000f8a0       ?GetCount@CListBox@@QBEHXZ 004108a0 f i DlgGetFindBox.obj
 0001:0000f8c0       ?SetItemData@CListBox@@QAEHHK@Z 004108c0 f i DlgGetFindBox.obj
 0001:0000f8e0       ?GetItemDataPtr@CListBox@@QBEPAXH@Z 004108e0 f i DlgGetFindBox.obj
 0001:0000f900       ?OnListSelect@CDlgGetFindBox@@IAEXXZ 00410900 f   DlgGetFindBox.obj
 0001:0000f970       ?OnDblclkList@CDlgGetFindBox@@IAEXXZ 00410970 f   DlgGetFindBox.obj
 0001:0000f9a0       ?DetermineLayout@CDlgGetFindBox@@IAEXXZ 004109a0 f   DlgGetFindBox.obj
 0001:0000fb70       ?CalcFixedLayout@CDlgGetFindBox@@UAE?AVCSize@@HH@Z 00410b70 f   DlgGetFindBox.obj
 0001:0000fbe0       ?_Inc@const_iterator@?$_Tree@V?$_Tset_traits@V?$CStringT@_WV?$StrTraitMFC@_WV?$ChTraitsCRT@_W@ATL@@@@@ATL@@U?$less@V?$CStringT@_WV?$StrTraitMFC@_WV?$ChTraitsCRT@_W@ATL@@@@@ATL@@@std@@V?$allocator@V?$CStringT@_WV?$StrTraitMFC@_WV?$ChTraitsCRT@_W@ATL@@@@@ATL@@@4@$0A@@std@@@std@@QAEXXZ 00410be0 f i DlgGetFindBox.obj
 0001:0000fbe0       ?_Inc@const_iterator@?$_Tree@V?$_Tset_traits@PAVCDrawingObject@@U?$less@PAVCDrawingObject@@@std@@V?$allocator@PAVCDrawingObject@@@3@$0A@@std@@@std@@QAEXXZ 00410be0 f i DragUtils.obj
 0001:0000fc50       ?OnSize@CDlgGetFindBox@@IAEXIHH@Z 00410c50 f   DlgGetFindBox.obj
 0001:0000fc70       ?_Tidy@?$deque@PAVCLibraryStoreSymbol@@V?$allocator@PAVCLibraryStoreSymbol@@@std@@@std@@IAEXXZ 00410c70 f i DlgGetFindBox.obj
 0001:0000fc70       ?_Tidy@?$deque@PAVxml_parse_tag@@V?$allocator@PAVxml_parse_tag@@@std@@@std@@IAEXXZ 00410c70 f i XMLReader.obj
 0001:0000fce0       ??R?$less@V?$CStringT@_WV?$StrTraitMFC@_WV?$ChTraitsCRT@_W@ATL@@@@@ATL@@@std@@QBE_NABV?$CStringT@_WV?$StrTraitMFC@_WV?$ChTraitsCRT@_W@ATL@@@@@ATL@@0@Z 00410ce0 f i DlgGetFindBox.obj
 0001:0000fd00       ?_Buynode@?$list@PAVCDrawingObject@@V?$allocator@PAVCDrawingObject@@@std@@@std@@IAEPAU_Node@?$_List_nod@PAVCDrawingObject@@V?$allocator@PAVCDrawingObject@@@std@@@2@XZ 00410d00 f i DlgGetFindBox.obj
 0001:0000fd00       ?_Buynode@?$list@PAVCLibraryStore@@V?$allocator@PAVCLibraryStore@@@std@@@std@@IAEPAU_Node@?$_List_nod@PAVCLibraryStore@@V?$allocator@PAVCLibraryStore@@@std@@@2@XZ 00410d00 f i LibraryCollection.obj
 0001:0000fd20       ?_Lbound@?$_Tree@V?$_Tset_traits@V?$CStringT@_WV?$StrTraitMFC@_WV?$ChTraitsCRT@_W@ATL@@@@@ATL@@U?$less@V?$CStringT@_WV?$StrTraitMFC@_WV?$ChTraitsCRT@_W@ATL@@@@@ATL@@@std@@V?$allocator@V?$CStringT@_WV?$StrTraitMFC@_WV?$ChTraitsCRT@_W@ATL@@@@@ATL@@@4@$0A@@std@@@std@@IBEPAU_Node@?$_Tree_nod@V?$_Tset_traits@V?$CStringT@_WV?$StrTraitMFC@_WV?$ChTraitsCRT@_W@ATL@@@@@ATL@@U?$less@V?$CStringT@_WV?$StrTraitMFC@_WV?$ChTraitsCRT@_W@ATL@@@@@ATL@@@std@@V?$allocator@V?$CStringT@_WV?$StrTraitMFC@_WV?$ChTraitsCRT@_W@ATL@@@@@ATL@@@4@$0A@@std@@@2@ABV?$CStringT@_WV?$StrTraitMFC@_WV?$ChTraitsCRT@_W@ATL@@@@@ATL@@@Z 00410d20 f i DlgGetFindBox.obj
 0001:0000fd90       ?MakeLower@?$CStringT@_WV?$StrTraitMFC@_WV?$ChTraitsCRT@_W@ATL@@@@@ATL@@QAEAAV12@XZ 00410d90 f i DlgGetFindBox.obj
 0001:0000fdf0       ??1?$deque@PAVCLibraryStoreSymbol@@V?$allocator@PAVCLibraryStoreSymbol@@@std@@@std@@QAE@XZ 00410df0 f i DlgGetFindBox.obj
 0001:0000fdf0       ??1?$deque@PAVxml_parse_tag@@V?$allocator@PAVxml_parse_tag@@@std@@@std@@QAE@XZ 00410df0 f i XMLReader.obj
 0001:0000fe10       ?Mid@?$CStringT@_WV?$StrTraitMFC@_WV?$ChTraitsCRT@_W@ATL@@@@@ATL@@QBE?AV12@HH@Z 00410e10 f i DlgGetFindBox.obj
 0001:0000fec0       ?Mid@?$CStringT@_WV?$StrTraitMFC@_WV?$ChTraitsCRT@_W@ATL@@@@@ATL@@QBE?AV12@H@Z 00410ec0 f i DlgGetFindBox.obj
 0001:0000fef0       ?_Buynode@?$_Tree@V?$_Tset_traits@V?$CStringT@_WV?$StrTraitMFC@_WV?$ChTraitsCRT@_W@ATL@@@@@ATL@@U?$less@V?$CStringT@_WV?$StrTraitMFC@_WV?$ChTraitsCRT@_W@ATL@@@@@ATL@@@std@@V?$allocator@V?$CStringT@_WV?$StrTraitMFC@_WV?$ChTraitsCRT@_W@ATL@@@@@ATL@@@4@$0A@@std@@@std@@IAEPAU_Node@?$_Tree_nod@V?$_Tset_traits@V?$CStringT@_WV?$StrTraitMFC@_WV?$ChTraitsCRT@_W@ATL@@@@@ATL@@U?$less@V?$CStringT@_WV?$StrTraitMFC@_WV?$ChTraitsCRT@_W@ATL@@@@@ATL@@@std@@V?$allocator@V?$CStringT@_WV?$StrTraitMFC@_WV?$ChTraitsCRT@_W@ATL@@@@@ATL@@@4@$0A@@std@@@2@PAU342@00ABV?$CStringT@_WV?$StrTraitMFC@_WV?$ChTraitsCRT@_W@ATL@@@@@ATL@@D@Z 00410ef0 f i DlgGetFindBox.obj
 0001:0000ffa0       ?BuildSearchList@CDlgGetFindBox@@AAEXXZ 00410fa0 f   DlgGetFindBox.obj
 0001:000102f0       ?DrawLibraries@CDlgGetFindBox@@AAEXAAVCDC@@PAUtagDRAWITEMSTRUCT@@@Z 004112f0 f   DlgGetFindBox.obj
 0001:00010550       ?OnChangeSearchString@CDlgGetFindBox@@IAEXXZ 00411550 f   DlgGetFindBox.obj
 0001:00010550       ?OnRadio1@CDlgGetFindBox@@IAEXXZ 00411550 f   DlgGetFindBox.obj
 0001:00010550       ?OnRadio2@CDlgGetFindBox@@IAEXXZ 00411550 f   DlgGetFindBox.obj
 0001:00010570       ?OnHorzResize@CDlgGetFindBox@@IAEXXZ 00411570 f   DlgGetFindBox.obj
 0001:00010610       ?OnSingleLibSel@CDlgGetFindBox@@IAEXXZ 00411610 f   DlgGetFindBox.obj
 0001:000106f0       ??0?$list@PAVCDrawingObject@@V?$allocator@PAVCDrawingObject@@@std@@@std@@QAE@XZ 004116f0 f i DlgGetFindBox.obj
 0001:000106f0       ??0?$list@PAVCLibraryStore@@V?$allocator@PAVCLibraryStore@@@std@@@std@@QAE@XZ 004116f0 f i LibraryCollection.obj
 0001:00010760       ?find@?$_Tree@V?$_Tset_traits@V?$CStringT@_WV?$StrTraitMFC@_WV?$ChTraitsCRT@_W@ATL@@@@@ATL@@U?$less@V?$CStringT@_WV?$StrTraitMFC@_WV?$ChTraitsCRT@_W@ATL@@@@@ATL@@@std@@V?$allocator@V?$CStringT@_WV?$StrTraitMFC@_WV?$ChTraitsCRT@_W@ATL@@@@@ATL@@@4@$0A@@std@@@std@@QAE?AViterator@12@ABV?$CStringT@_WV?$StrTraitMFC@_WV?$ChTraitsCRT@_W@ATL@@@@@ATL@@@Z 00411760 f i DlgGetFindBox.obj
 0001:000107e0       ??0CDlgGetFindBox@@QAE@XZ  004117e0 f   DlgGetFindBox.obj
 0001:00010930       ??1CDlgGetFindBox@@UAE@XZ  00411930 f i DlgGetFindBox.obj
 0001:00010a20       ??_GCDlgGetFindBox@@UAEPAXI@Z 00411a20 f i DlgGetFindBox.obj
 0001:00010a20       ??_ECDlgGetFindBox@@UAEPAXI@Z 00411a20 f i DlgGetFindBox.obj
 0001:00010a40       ?OnSelchangeLibraries@CDlgGetFindBox@@IAEXXZ 00411a40 f   DlgGetFindBox.obj
 0001:00010ae0       ?DrawSymbol@CDlgGetFindBox@@AAEXAAVCDC@@VCRect@@@Z 00411ae0 f   DlgGetFindBox.obj
 0001:00010f00       ??0?$_Tree@V?$_Tset_traits@PAVCDrawingObject@@U?$less@PAVCDrawingObject@@@std@@V?$allocator@PAVCDrawingObject@@@3@$0A@@std@@@std@@QAE@ABU?$less@PAVCDrawingObject@@@1@ABV?$allocator@PAVCDrawingObject@@@1@@Z 00411f00 f i DragUtils.obj
 0001:00010f00       ??0?$_Tree@V?$_Tset_traits@V?$CStringT@_WV?$StrTraitMFC@_WV?$ChTraitsCRT@_W@ATL@@@@@ATL@@U?$less@V?$CStringT@_WV?$StrTraitMFC@_WV?$ChTraitsCRT@_W@ATL@@@@@ATL@@@std@@V?$allocator@V?$CStringT@_WV?$StrTraitMFC@_WV?$ChTraitsCRT@_W@ATL@@@@@ATL@@@4@$0A@@std@@@std@@QAE@ABU?$less@V?$CStringT@_WV?$StrTraitMFC@_WV?$ChTraitsCRT@_W@ATL@@@@@ATL@@@1@ABV?$allocator@V?$CStringT@_WV?$StrTraitMFC@_WV?$ChTraitsCRT@_W@ATL@@@@@ATL@@@1@@Z 00411f00 f i DlgGetFindBox.obj
 0001:00010f90       ?_Xlen@?$deque@V?$CStringT@_WV?$StrTraitMFC@_WV?$ChTraitsCRT@_W@ATL@@@@@ATL@@V?$allocator@V?$CStringT@_WV?$StrTraitMFC@_WV?$ChTraitsCRT@_W@ATL@@@@@ATL@@@std@@@std@@KAXXZ 00411f90 f i XMLWriter.obj
 0001:00010f90       ?_Xlen@?$deque@PAVxml_parse_tag@@V?$allocator@PAVxml_parse_tag@@@std@@@std@@KAXXZ 00411f90 f i XMLReader.obj
 0001:00010f90       ?_Xlen@?$deque@PAVCLibraryStoreSymbol@@V?$allocator@PAVCLibraryStoreSymbol@@@std@@@std@@KAXXZ 00411f90 f i DlgGetFindBox.obj
 0001:00011010       ?erase@?$_Tree@V?$_Tset_traits@V?$CStringT@_WV?$StrTraitMFC@_WV?$ChTraitsCRT@_W@ATL@@@@@ATL@@U?$less@V?$CStringT@_WV?$StrTraitMFC@_WV?$ChTraitsCRT@_W@ATL@@@@@ATL@@@std@@V?$allocator@V?$CStringT@_WV?$StrTraitMFC@_WV?$ChTraitsCRT@_W@ATL@@@@@ATL@@@4@$0A@@std@@@std@@QAE?AViterator@12@Vconst_iterator@12@@Z 00412010 f i DlgGetFindBox.obj
 0001:00011300       ?_Erase@?$_Tree@V?$_Tset_traits@V?$CStringT@_WV?$StrTraitMFC@_WV?$ChTraitsCRT@_W@ATL@@@@@ATL@@U?$less@V?$CStringT@_WV?$StrTraitMFC@_WV?$ChTraitsCRT@_W@ATL@@@@@ATL@@@std@@V?$allocator@V?$CStringT@_WV?$StrTraitMFC@_WV?$ChTraitsCRT@_W@ATL@@@@@ATL@@@4@$0A@@std@@@std@@IAEXPAU_Node@?$_Tree_nod@V?$_Tset_traits@V?$CStringT@_WV?$StrTraitMFC@_WV?$ChTraitsCRT@_W@ATL@@@@@ATL@@U?$less@V?$CStringT@_WV?$StrTraitMFC@_WV?$ChTraitsCRT@_W@ATL@@@@@ATL@@@std@@V?$allocator@V?$CStringT@_WV?$StrTraitMFC@_WV?$ChTraitsCRT@_W@ATL@@@@@ATL@@@4@$0A@@std@@@2@@Z 00412300 f i DlgGetFindBox.obj
 0001:00011360       ?OnDrawItem@CDlgGetFindBox@@IAEXHPAUtagDRAWITEMSTRUCT@@@Z 00412360 f   DlgGetFindBox.obj
 0001:00011420       ?StoreLibraryList@CDlgGetFindBox@@QAEXXZ 00412420 f   DlgGetFindBox.obj
 0001:00011580       ?OnDestroy@CDlgGetFindBox@@QAEXXZ 00412580 f   DlgGetFindBox.obj
 0001:00011590       ?_Growmap@?$deque@V?$CStringT@_WV?$StrTraitMFC@_WV?$ChTraitsCRT@_W@ATL@@@@@ATL@@V?$allocator@V?$CStringT@_WV?$StrTraitMFC@_WV?$ChTraitsCRT@_W@ATL@@@@@ATL@@@std@@@std@@IAEXI@Z 00412590 f i XMLWriter.obj
 0001:00011590       ?_Growmap@?$deque@PAVxml_parse_tag@@V?$allocator@PAVxml_parse_tag@@@std@@@std@@IAEXI@Z 00412590 f i XMLReader.obj
 0001:00011590       ?_Growmap@?$deque@PAVCLibraryStoreSymbol@@V?$allocator@PAVCLibraryStoreSymbol@@@std@@@std@@IAEXI@Z 00412590 f i DlgGetFindBox.obj
 0001:00011700       ?_Insert@?$_Tree@V?$_Tset_traits@V?$CStringT@_WV?$StrTraitMFC@_WV?$ChTraitsCRT@_W@ATL@@@@@ATL@@U?$less@V?$CStringT@_WV?$StrTraitMFC@_WV?$ChTraitsCRT@_W@ATL@@@@@ATL@@@std@@V?$allocator@V?$CStringT@_WV?$StrTraitMFC@_WV?$ChTraitsCRT@_W@ATL@@@@@ATL@@@4@$0A@@std@@@std@@IAE?AViterator@12@_NPAU_Node@?$_Tree_nod@V?$_Tset_traits@V?$CStringT@_WV?$StrTraitMFC@_WV?$ChTraitsCRT@_W@ATL@@@@@ATL@@U?$less@V?$CStringT@_WV?$StrTraitMFC@_WV?$ChTraitsCRT@_W@ATL@@@@@ATL@@@std@@V?$allocator@V?$CStringT@_WV?$StrTraitMFC@_WV?$ChTraitsCRT@_W@ATL@@@@@ATL@@@4@$0A@@std@@@2@ABV?$CStringT@_WV?$StrTraitMFC@_WV?$ChTraitsCRT@_W@ATL@@@@@ATL@@@Z 00412700 f i DlgGetFindBox.obj
 0001:00011900       ?push_front@?$deque@PAVCLibraryStoreSymbol@@V?$allocator@PAVCLibraryStoreSymbol@@@std@@@std@@QAEXABQAVCLibraryStoreSymbol@@@Z 00412900 f i DlgGetFindBox.obj
 0001:00011900       ?push_front@?$deque@PAVxml_parse_tag@@V?$allocator@PAVxml_parse_tag@@@std@@@std@@QAEXABQAVxml_parse_tag@@@Z 00412900 f i XMLReader.obj
 0001:00011980       ?insert@?$_Tree@V?$_Tset_traits@V?$CStringT@_WV?$StrTraitMFC@_WV?$ChTraitsCRT@_W@ATL@@@@@ATL@@U?$less@V?$CStringT@_WV?$StrTraitMFC@_WV?$ChTraitsCRT@_W@ATL@@@@@ATL@@@std@@V?$allocator@V?$CStringT@_WV?$StrTraitMFC@_WV?$ChTraitsCRT@_W@ATL@@@@@ATL@@@4@$0A@@std@@@std@@QAE?AU?$pair@Viterator@?$_Tree@V?$_Tset_traits@V?$CStringT@_WV?$StrTraitMFC@_WV?$ChTraitsCRT@_W@ATL@@@@@ATL@@U?$less@V?$CStringT@_WV?$StrTraitMFC@_WV?$ChTraitsCRT@_W@ATL@@@@@ATL@@@std@@V?$allocator@V?$CStringT@_WV?$StrTraitMFC@_WV?$ChTraitsCRT@_W@ATL@@@@@ATL@@@4@$0A@@std@@@std@@_N@2@ABV?$CStringT@_WV?$StrTraitMFC@_WV?$ChTraitsCRT@_W@ATL@@@@@ATL@@@Z 00412980 f i DlgGetFindBox.obj
 0001:00011ad0       ?erase@?$_Tree@V?$_Tset_traits@V?$CStringT@_WV?$StrTraitMFC@_WV?$ChTraitsCRT@_W@ATL@@@@@ATL@@U?$less@V?$CStringT@_WV?$StrTraitMFC@_WV?$ChTraitsCRT@_W@ATL@@@@@ATL@@@std@@V?$allocator@V?$CStringT@_WV?$StrTraitMFC@_WV?$ChTraitsCRT@_W@ATL@@@@@ATL@@@4@$0A@@std@@@std@@QAE?AViterator@12@Vconst_iterator@12@0@Z 00412ad0 f i DlgGetFindBox.obj
 0001:00011bb0       ?GetMessageMap@CDlgGetFindBox@@MBEPBUAFX_MSGMAP@@XZ 00412bb0 f   DlgGetFindBox.obj
 0001:00011bc0       ?AddToMRU@CDlgGetFindBox@@QAEXXZ 00412bc0 f   DlgGetFindBox.obj
 0001:00011c90       ?_Tidy@?$_Tree@V?$_Tset_traits@V?$CStringT@_WV?$StrTraitMFC@_WV?$ChTraitsCRT@_W@ATL@@@@@ATL@@U?$less@V?$CStringT@_WV?$StrTraitMFC@_WV?$ChTraitsCRT@_W@ATL@@@@@ATL@@@std@@V?$allocator@V?$CStringT@_WV?$StrTraitMFC@_WV?$ChTraitsCRT@_W@ATL@@@@@ATL@@@4@$0A@@std@@@std@@IAEXXZ 00412c90 f i DlgGetFindBox.obj
 0001:00011cd0       ??1?$_Tree@V?$_Tset_traits@V?$CStringT@_WV?$StrTraitMFC@_WV?$ChTraitsCRT@_W@ATL@@@@@ATL@@U?$less@V?$CStringT@_WV?$StrTraitMFC@_WV?$ChTraitsCRT@_W@ATL@@@@@ATL@@@std@@V?$allocator@V?$CStringT@_WV?$StrTraitMFC@_WV?$ChTraitsCRT@_W@ATL@@@@@ATL@@@4@$0A@@std@@@std@@QAE@XZ 00412cd0 f i DlgGetFindBox.obj
 0001:00011d50       ??1?$set@V?$CStringT@_WV?$StrTraitMFC@_WV?$ChTraitsCRT@_W@ATL@@@@@ATL@@U?$less@V?$CStringT@_WV?$StrTraitMFC@_WV?$ChTraitsCRT@_W@ATL@@@@@ATL@@@std@@V?$allocator@V?$CStringT@_WV?$StrTraitMFC@_WV?$ChTraitsCRT@_W@ATL@@@@@ATL@@@4@@std@@QAE@XZ 00412d50 f i DlgGetFindBox.obj
 0001:00011d60       ?RestoreLibraryList@CDlgGetFindBox@@QAEXXZ 00412d60 f   DlgGetFindBox.obj
 0001:00012050       ?BuildLibraryList@CDlgGetFindBox@@AAEXXZ 00413050 f   DlgGetFindBox.obj
 0001:00012220       ?OnInitDialogBar@CDlgGetFindBox@@MAEHXZ 00413220 f   DlgGetFindBox.obj
 0001:00012390       ?ResetAllSymbols@CDlgGetFindBox@@QAEXXZ 00413390 f   DlgGetFindBox.obj
 0001:000123a0       ??0CDlgLibraryBox@@QAE@PAVCWnd@@@Z 004133a0 f   DlgLibraryBox.obj
 0001:000123d0       ?OnOK@CDlgLibraryBox@@MAEXXZ 004133d0 f   DlgLibraryBox.obj
 0001:000123f0       ?RefreshComponents@CDlgLibraryBox@@AAEX_N@Z 004133f0 f   DlgLibraryBox.obj
 0001:00012480       ?OnSelchangeAvailable@CDlgLibraryBox@@IAEXXZ 00413480 f   DlgLibraryBox.obj
 0001:00012490       ?OnSize@CDlgLibraryBox@@QAEXIHH@Z 00413490 f   DlgLibraryBox.obj
 0001:000125b0       ?OnInitDialog@CDlgLibraryBox@@MAEHXZ 004135b0 f   DlgLibraryBox.obj
 0001:00012650       ?OnAdd@CDlgLibraryBox@@IAEXXZ 00413650 f   DlgLibraryBox.obj
 0001:00012840       ?OnNew@CDlgLibraryBox@@IAEXXZ 00413840 f   DlgLibraryBox.obj
 0001:000129f0       ?GetSelectedLibrary@CDlgLibraryBox@@ABEPAVCLibraryStore@@XZ 004139f0 f   DlgLibraryBox.obj
 0001:00012ae0       ?OnRemove@CDlgLibraryBox@@IAEXXZ 00413ae0 f   DlgLibraryBox.obj
 0001:00012c00       ?OnEdit@CDlgLibraryBox@@IAEXXZ 00413c00 f   DlgLibraryBox.obj
 0001:00012c60       ?OnUpgrade@CDlgLibraryBox@@IAEXXZ 00413c60 f   DlgLibraryBox.obj
 0001:00012c70       ?OnDblclkAvailable@CDlgLibraryBox@@IAEXXZ 00413c70 f   DlgLibraryBox.obj
 0001:00012c80       ?GetMessageMap@CDlgLibraryBox@@MBEPBUAFX_MSGMAP@@XZ 00413c80 f   DlgLibraryBox.obj
 0001:00012c90       ?OnMakePort@CDlgPageSizeBox@@QAEXXZ 00413c90 f   DlgPageSizeBox.obj
 0001:00012d40       ?OnMakeLand@CDlgPageSizeBox@@QAEXXZ 00413d40 f   DlgPageSizeBox.obj
 0001:00012df0       ?OnChange@CDlgPageSizeBox@@QAEXXZ 00413df0 f   DlgPageSizeBox.obj
 0001:00012e80       ?OnChangeText@CDlgPageSizeBox@@QAEXXZ 00413e80 f   DlgPageSizeBox.obj
 0001:00012f20       ?OnOK@CDlgPageSizeBox@@UAEXXZ 00413f20 f   DlgPageSizeBox.obj
 0001:00012fa0       ??1CPrintDialog@@UAE@XZ    00413fa0 f i DlgPageSizeBox.obj
 0001:00012fa0       ??1CCommonDialog@@UAE@XZ   00413fa0 f i DlgPageSizeBox.obj
 0001:00012fb0       ??_GCCommonDialog@@UAEPAXI@Z 00413fb0 f i DlgPageSizeBox.obj
 0001:00012fb0       ??_ECCommonDialog@@UAEPAXI@Z 00413fb0 f i DlgPageSizeBox.obj
 0001:00012fe0       ?SetPrinter@CDlgPageSizeBox@@AAEHH@Z 00413fe0 f   DlgPageSizeBox.obj
 0001:00013110       ?OnInitDialog@CDlgPageSizeBox@@UAEHXZ 00414110 f   DlgPageSizeBox.obj
 0001:00013170       ?OnPrinterSet@CDlgPageSizeBox@@QAEXXZ 00414170 f   DlgPageSizeBox.obj
 0001:000131b0       ?GetMessageMap@CDlgPageSizeBox@@MBEPBUAFX_MSGMAP@@XZ 004141b0 f   DlgPageSizeBox.obj
 0001:000131c0       ??0CDlgPartsInPackage@@QAE@PAVCWnd@@@Z 004141c0 f   DlgPartsInPackage.obj
 0001:000131f0       ?DoDataExchange@CDlgPartsInPackage@@MAEXPAVCDataExchange@@@Z 004141f0 f   DlgPartsInPackage.obj
 0001:00013210       ?DoDataExchange@CDlgPCBExport@@MAEXPAVCDataExchange@@@Z 00414210 f   DlgPCBExport.obj
 0001:00013250       ?OnOK@CDlgPCBExport@@MAEXXZ 00414250 f   DlgPCBExport.obj
 0001:000132c0       ?GetExtension@CDlgPCBExport@@QAE?AV?$CStringT@_WV?$StrTraitMFC@_WV?$ChTraitsCRT@_W@ATL@@@@@ATL@@XZ 004142c0 f   DlgPCBExport.obj
 0001:000133b0       ??0CDlgPCBExport@@QAE@PAVCWnd@@@Z 004143b0 f   DlgPCBExport.obj
 0001:000134c0       ?OnBrowse@CDlgPCBExport@@IAEXXZ 004144c0 f   DlgPCBExport.obj
 0001:00013680       ?OnSelchangeFileType@CDlgPCBExport@@IAEXXZ 00414680 f   DlgPCBExport.obj
 0001:000137a0       ?OnInitDialog@CDlgPCBExport@@MAEHXZ 004147a0 f   DlgPCBExport.obj
 0001:00013850       ?GetMessageMap@CDlgPCBExport@@MBEPBUAFX_MSGMAP@@XZ 00414850 f   DlgPCBExport.obj
 0001:00013860       ??0CDlgPositionBox@@QAE@XZ 00414860 f   DlgPositionBox.obj
 0001:00013880       ??1CDlgPositionBox@@UAE@XZ 00414880 f i DlgPositionBox.obj
 0001:00013890       ?SetPosition@CDlgPositionBox@@QAEXPB_W@Z 00414890 f   DlgPositionBox.obj
 0001:000138b0       ?Create@CDialogBar@@UAEHPAVCWnd@@III@Z 004148b0 f i DlgPositionBox.obj
 0001:000138d0       ??_GCDlgPositionBox@@UAEPAXI@Z 004148d0 f i DlgPositionBox.obj
 0001:000138d0       ??_ECDlgPositionBox@@UAEPAXI@Z 004148d0 f i DlgPositionBox.obj
 0001:000138f0       ?DoDataExchange@CDlgRenameSheet@@MAEXPAVCDataExchange@@@Z 004148f0 f   DlgRenameSheet.obj
 0001:00013920       ??0CDlgRenameSheet@@QAE@PAVCWnd@@@Z 00414920 f   DlgRenameSheet.obj
 0001:000139c0       ?OnDblclkList@CDlgReplaceBox@@IAEXXZ 004149c0 f   DlgReplaceBox.obj
 0001:000139d0       ?DoDataExchange@CDlgReplaceBox@@MAEXPAVCDataExchange@@@Z 004149d0 f   DlgReplaceBox.obj
 0001:00013a40       ?OnSelchangeList@CDlgReplaceBox@@IAEXXZ 00414a40 f   DlgReplaceBox.obj
 0001:00013ab0       ?BuildSearchList@CDlgReplaceBox@@IAEXXZ 00414ab0 f   DlgReplaceBox.obj
 0001:00013ba0       ?OnInitDialog@CDlgReplaceBox@@MAEHXZ 00414ba0 f   DlgReplaceBox.obj
 0001:00013be0       ?OnChangeSearchString@CDlgReplaceBox@@IAEXXZ 00414be0 f   DlgReplaceBox.obj
 0001:00013c00       ?OnOK@CDlgReplaceBox@@MAEXXZ 00414c00 f   DlgReplaceBox.obj
 0001:00013c60       ??0CDlgReplaceBox@@QAE@PAVCWnd@@@Z 00414c60 f   DlgReplaceBox.obj
 0001:00013d90       ??1CDlgReplaceBox@@UAE@XZ  00414d90 f i DlgReplaceBox.obj
 0001:00013e20       ??_ECDlgReplaceBox@@UAEPAXI@Z 00414e20 f i DlgReplaceBox.obj
 0001:00013e20       ??_GCDlgReplaceBox@@UAEPAXI@Z 00414e20 f i DlgReplaceBox.obj
 0001:00013e40       ?OnDrawItem@CDlgReplaceBox@@IAEXHPAUtagDRAWITEMSTRUCT@@@Z 00414e40 f   DlgReplaceBox.obj
 0001:000142d0       ?GetMessageMap@CDlgReplaceBox@@MBEPBUAFX_MSGMAP@@XZ 004152d0 f   DlgReplaceBox.obj
 0001:000142e0       ?PtInRect@CRect@@QBEHUtagPOINT@@@Z 004152e0 f i DlgUpdateBox.obj
 0001:00014300       ??A?$vector@VCSymbolField@@V?$allocator@VCSymbolField@@@std@@@std@@QAEAAVCSymbolField@@I@Z 00415300 f i DlgUpdateBox.obj
 0001:00014340       ?CreatePen@CPen@@QAEHHHK@Z 00415340 f i DlgUpdateBox.obj
 0001:00014370       ?GetFont@CWnd@@QBEPAVCFont@@XZ 00415370 f i DlgUpdateBox.obj
 0001:00014390       ??_GCStatic@@UAEPAXI@Z     00415390 f i DlgUpdateBox.obj
 0001:00014390       ??_ECStatic@@UAEPAXI@Z     00415390 f i DlgUpdateBox.obj
 0001:000143b0       ??_ECListCtrl@@UAEPAXI@Z   004153b0 f i DlgUpdateBox.obj
 0001:000143b0       ??_GCListCtrl@@UAEPAXI@Z   004153b0 f i DlgUpdateBox.obj
 0001:000143d0       ??_GCSpinButtonCtrl@@UAEPAXI@Z 004153d0 f i DlgUpdateBox.obj
 0001:000143d0       ??_ECSpinButtonCtrl@@UAEPAXI@Z 004153d0 f i DlgUpdateBox.obj
 0001:000143f0       ??_ECTabCtrl@@UAEPAXI@Z    004153f0 f i DlgUpdateBox.obj
 0001:000143f0       ??_GCTabCtrl@@UAEPAXI@Z    004153f0 f i DlgUpdateBox.obj
 0001:00014410       ?GetCurSel@CTabCtrl@@QBEHXZ 00415410 f i DlgUpdateBox.obj
 0001:00014430       ?DoDataExchange@CDlgUpdateBox@@MAEXPAVCDataExchange@@@Z 00415430 f   DlgUpdateBox.obj
 0001:000145a0       ?OnDelete@CDlgUpdateBox@@IAEXXZ 004155a0 f   DlgUpdateBox.obj
 0001:000145e0       ?OnSelchangeTab1@CDlgUpdateBox@@IAEXPAUtagNMHDR@@PAJ@Z 004155e0 f   DlgUpdateBox.obj
 0001:000146e0       ??Y?$_Vector_const_iterator@VCLibraryStoreSymbol@@V?$allocator@VCLibraryStoreSymbol@@@std@@@std@@QAEAAV01@H@Z 004156e0 f i DlgUpdateBox.obj
 0001:00014740       ??$_Allocate@VCSymbolField@@@std@@YAPAVCSymbolField@@IPAV1@@Z 00415740 f i DlgUpdateBox.obj
 0001:000147a0       ??$_Allocate@VCLibraryStoreSymbol@@@std@@YAPAVCLibraryStoreSymbol@@IPAV1@@Z 004157a0 f i DlgUpdateBox.obj
 0001:00014800       ??0CSymbolField@@QAE@XZ    00415800 f i DlgUpdateBox.obj
 0001:00014880       ??1CSymbolField@@QAE@XZ    00415880 f i DlgUpdateBox.obj
 0001:000148f0       ?AddSymbolField@CDlgUpdateBox@@AAEXAAVCSymbolField@@@Z 004158f0 f   DlgUpdateBox.obj
 0001:00014a80       ?OnAdd@CDlgUpdateBox@@IAEXXZ 00415a80 f   DlgUpdateBox.obj
 0001:00014b10       ?EndEdit@CDlgUpdateBox@@IAEXXZ 00415b10 f   DlgUpdateBox.obj
 0001:00014cd0       ??0CSymbolField@@QAE@ABV0@@Z 00415cd0 f i DlgUpdateBox.obj
 0001:00014d80       ?OnClickUpdateList@CDlgUpdateBox@@IAEXPAUtagNMHDR@@PAJ@Z 00415d80 f   DlgUpdateBox.obj
 0001:00015240       ?OnKillfocusEdit@CDlgUpdateBox@@IAEXXZ 00416240 f   DlgUpdateBox.obj
 0001:00015250       ?OnSetfocusUpdateList@CDlgUpdateBox@@IAEXPAUtagNMHDR@@PAJ@Z 00416250 f   DlgUpdateBox.obj
 0001:00015280       ?GetSymbolField@CDlgUpdateBox@@QAE?AVCSymbolField@@H@Z 00416280 f   DlgUpdateBox.obj
 0001:00015520       ??$_Uninit_copy@PAVCSymbolField@@PAV1@V?$allocator@VCSymbolField@@@std@@@std@@YAPAVCSymbolField@@PAV1@00AAV?$allocator@VCSymbolField@@@0@U_Nonscalar_ptr_iterator_tag@0@U_Range_checked_iterator_tag@0@@Z 00416520 f i DlgUpdateBox.obj
 0001:00015520       ??$_Uninit_copy@PBVCSymbolField@@PAV1@V?$allocator@VCSymbolField@@@std@@@std@@YAPAVCSymbolField@@PBV1@0PAV1@AAV?$allocator@VCSymbolField@@@0@U_Nonscalar_ptr_iterator_tag@0@U_Range_checked_iterator_tag@0@@Z 00416520 f i DlgUpdateBox.obj
 0001:000155c0       ??$_Destroy_range@V?$allocator@VCSymbolField@@@std@@@std@@YAXPAVCSymbolField@@0AAV?$allocator@VCSymbolField@@@0@U_Nonscalar_ptr_iterator_tag@0@@Z 004165c0 f i DlgUpdateBox.obj
 0001:00015640       ??$_Uninit_fill_n@PAVCSymbolField@@IV1@V?$allocator@VCSymbolField@@@std@@@std@@YAXPAVCSymbolField@@IABV1@AAV?$allocator@VCSymbolField@@@0@U_Nonscalar_ptr_iterator_tag@0@U_Range_checked_iterator_tag@0@@Z 00416640 f i DlgUpdateBox.obj
 0001:000156e0       ??$_Fill@PAVCSymbolField@@V1@@std@@YAXPAVCSymbolField@@0ABV1@@Z 004166e0 f i DlgUpdateBox.obj
 0001:00015740       ??$_Copy_opt@PAVCSymbolField@@PAV1@Uforward_iterator_tag@std@@@std@@YAPAVCSymbolField@@PAV1@00Uforward_iterator_tag@0@U_Nonscalar_ptr_iterator_tag@0@U_Range_checked_iterator_tag@0@@Z 00416740 f i DlgUpdateBox.obj
 0001:000157b0       ??$_Copy_backward_opt@PAVCSymbolField@@PAV1@Uforward_iterator_tag@std@@@std@@YAPAVCSymbolField@@PAV1@00Uforward_iterator_tag@0@U_Nonscalar_ptr_iterator_tag@0@U_Range_checked_iterator_tag@0@@Z 004167b0 f i DlgUpdateBox.obj
 0001:00015820       ?InitFromRecord@CDlgUpdateBox@@QAEXXZ 00416820 f   DlgUpdateBox.obj
 0001:00015d10       ??$_Copy_backward_opt@PAVCSymbolField@@PAV1@@std@@YAPAVCSymbolField@@PAV1@00Urandom_access_iterator_tag@0@U_Nonscalar_ptr_iterator_tag@0@U_Range_checked_iterator_tag@0@@Z 00416d10 f i DlgUpdateBox.obj
 0001:00015d70       ?OnDrawItem@CDlgUpdateBox@@IAEXHPAUtagDRAWITEMSTRUCT@@@Z 00416d70 f   DlgUpdateBox.obj
 0001:00016050       ?_Destroy@?$vector@VCSymbolField@@V?$allocator@VCSymbolField@@@std@@@std@@IAEXPAVCSymbolField@@0@Z 00417050 f i DlgUpdateBox.obj
 0001:00016070       ?_Tidy@?$vector@VCSymbolField@@V?$allocator@VCSymbolField@@@std@@@std@@IAEXXZ 00417070 f i DlgUpdateBox.obj
 0001:000160c0       ?_Ufill@?$vector@VCSymbolField@@V?$allocator@VCSymbolField@@@std@@@std@@IAEPAVCSymbolField@@PAV3@IABV3@@Z 004170c0 f i DlgUpdateBox.obj
 0001:00016100       ??$unchecked_copy@PAVCSymbolField@@PAV1@@stdext@@YAPAVCSymbolField@@PAV1@00@Z 00417100 f i DlgUpdateBox.obj
 0001:00016160       ??1?$vector@VCSymbolField@@V?$allocator@VCSymbolField@@@std@@@std@@QAE@XZ 00417160 f i DlgUpdateBox.obj
 0001:000161e0       ?erase@?$vector@VCSymbolField@@V?$allocator@VCSymbolField@@@std@@@std@@QAE?AV?$_Vector_iterator@VCSymbolField@@V?$allocator@VCSymbolField@@@std@@@2@V?$_Vector_const_iterator@VCSymbolField@@V?$allocator@VCSymbolField@@@std@@@2@0@Z 004171e0 f i DlgUpdateBox.obj
 0001:00016270       ?_Buy@?$vector@VCSymbolField@@V?$allocator@VCSymbolField@@@std@@@std@@IAE_NI@Z 00417270 f i DlgUpdateBox.obj
 0001:000162c0       ?_Buy@?$vector@VCLibraryStoreSymbol@@V?$allocator@VCLibraryStoreSymbol@@@std@@@std@@IAE_NI@Z 004172c0 f i DlgUpdateBox.obj
 0001:00016310       ??$_Umove@PAVCSymbolField@@@?$vector@VCSymbolField@@V?$allocator@VCSymbolField@@@std@@@std@@IAEPAVCSymbolField@@PAV2@00@Z 00417310 f i DlgUpdateBox.obj
 0001:00016310       ??$_Ucopy@PAVCSymbolField@@@?$vector@VCSymbolField@@V?$allocator@VCSymbolField@@@std@@@std@@IAEPAVCSymbolField@@PAV2@00@Z 00417310 f i DlgUpdateBox.obj
 0001:00016340       ??$_Unchecked_move_backward@PAVCSymbolField@@PAV1@@stdext@@YAPAVCSymbolField@@PAV1@00@Z 00417340 f i DlgUpdateBox.obj
 0001:00016370       ?clear@?$vector@VCSymbolField@@V?$allocator@VCSymbolField@@@std@@@std@@QAEXXZ 00417370 f i DlgUpdateBox.obj
 0001:000163b0       ??1CSymbolRecord@@QAE@XZ   004173b0 f i DlgUpdateBox.obj
 0001:00016470       ??0?$vector@VCSymbolField@@V?$allocator@VCSymbolField@@@std@@@std@@QAE@ABV01@@Z 00417470 f i DlgUpdateBox.obj
 0001:00016580       ?_Insert_n@?$vector@VCSymbolField@@V?$allocator@VCSymbolField@@@std@@@std@@IAEXV?$_Vector_const_iterator@VCSymbolField@@V?$allocator@VCSymbolField@@@std@@@2@IABVCSymbolField@@@Z 00417580 f i DlgUpdateBox.obj
 0001:00016860       ??4?$vector@VCSymbolField@@V?$allocator@VCSymbolField@@@std@@@std@@QAEAAV01@ABV01@@Z 00417860 f i DlgUpdateBox.obj
 0001:000169c0       ??1CLibraryStoreSymbol@@QAE@XZ 004179c0 f i DlgUpdateBox.obj
 0001:000169d0       ??0CSymbolRecord@@QAE@ABV0@@Z 004179d0 f i DlgUpdateBox.obj
 0001:00016a80       ?insert@?$vector@VCSymbolField@@V?$allocator@VCSymbolField@@@std@@@std@@QAE?AV?$_Vector_iterator@VCSymbolField@@V?$allocator@VCSymbolField@@@std@@@2@V?$_Vector_const_iterator@VCSymbolField@@V?$allocator@VCSymbolField@@@std@@@2@ABVCSymbolField@@@Z 00417a80 f i DlgUpdateBox.obj
 0001:00016b50       ??0CLibraryStoreSymbol@@QAE@ABV0@@Z 00417b50 f i DlgUpdateBox.obj
 0001:00016b80       ?push_back@?$vector@VCSymbolField@@V?$allocator@VCSymbolField@@@std@@@std@@QAEXABVCSymbolField@@@Z 00417b80 f i DlgUpdateBox.obj
 0001:00016c20       ??$_Copy_opt@PAVCLibraryStoreSymbol@@PAV1@Uforward_iterator_tag@std@@@std@@YAPAVCLibraryStoreSymbol@@PAV1@00Uforward_iterator_tag@0@U_Nonscalar_ptr_iterator_tag@0@U_Range_checked_iterator_tag@0@@Z 00417c20 f i DlgUpdateBox.obj
 0001:00016ca0       ??$_Copy_backward_opt@PAVCLibraryStoreSymbol@@PAV1@Uforward_iterator_tag@std@@@std@@YAPAVCLibraryStoreSymbol@@PAV1@00Uforward_iterator_tag@0@U_Nonscalar_ptr_iterator_tag@0@U_Range_checked_iterator_tag@0@@Z 00417ca0 f i DlgUpdateBox.obj
 0001:00016d20       ?UpdateToRecord@CDlgUpdateBox@@QAEXXZ 00417d20 f   DlgUpdateBox.obj
 0001:000173e0       ?OnOK@CDlgUpdateBox@@MAEXXZ 004183e0 f   DlgUpdateBox.obj
 0001:00017430       ?OnSelchangeListNames@CDlgUpdateBox@@IAEXXZ 00418430 f   DlgUpdateBox.obj
 0001:00017460       ??$_Copy_opt@PAVCLibraryStoreSymbol@@PAV1@@std@@YAPAVCLibraryStoreSymbol@@PAV1@00Urandom_access_iterator_tag@0@U_Nonscalar_ptr_iterator_tag@0@U_Range_checked_iterator_tag@0@@Z 00418460 f i DlgUpdateBox.obj
 0001:000174c0       ??$_Fill@PAVCLibraryStoreSymbol@@V1@@std@@YAXPAVCLibraryStoreSymbol@@0ABV1@@Z 004184c0 f i DlgUpdateBox.obj
 0001:00017530       ??$_Copy_backward_opt@PAVCLibraryStoreSymbol@@PAV1@@std@@YAPAVCLibraryStoreSymbol@@PAV1@00Urandom_access_iterator_tag@0@U_Nonscalar_ptr_iterator_tag@0@U_Range_checked_iterator_tag@0@@Z 00418530 f i DlgUpdateBox.obj
 0001:000175a0       ??$unchecked_copy@PAVCLibraryStoreSymbol@@PAV1@@stdext@@YAPAVCLibraryStoreSymbol@@PAV1@00@Z 004185a0 f i DlgUpdateBox.obj
 0001:000175d0       ??$_Uninit_fill_n@PAVCLibraryStoreSymbol@@IV1@V?$allocator@VCLibraryStoreSymbol@@@std@@@std@@YAXPAVCLibraryStoreSymbol@@IABV1@AAV?$allocator@VCLibraryStoreSymbol@@@0@U_Nonscalar_ptr_iterator_tag@0@U_Range_checked_iterator_tag@0@@Z 004185d0 f i DlgUpdateBox.obj
 0001:00017680       ??$_Unchecked_move_backward@PAVCLibraryStoreSymbol@@PAV1@@stdext@@YAPAVCLibraryStoreSymbol@@PAV1@00@Z 00418680 f i DlgUpdateBox.obj
 0001:000176b0       ?_Destroy@?$vector@VCLibraryStoreSymbol@@V?$allocator@VCLibraryStoreSymbol@@@std@@@std@@IAEXPAVCLibraryStoreSymbol@@0@Z 004186b0 f i DlgUpdateBox.obj
 0001:000176e0       ?_Tidy@?$vector@VCLibraryStoreSymbol@@V?$allocator@VCLibraryStoreSymbol@@@std@@@std@@IAEXXZ 004186e0 f i DlgUpdateBox.obj
 0001:00017730       ?_Ufill@?$vector@VCLibraryStoreSymbol@@V?$allocator@VCLibraryStoreSymbol@@@std@@@std@@IAEPAVCLibraryStoreSymbol@@PAV3@IABV3@@Z 00418730 f i DlgUpdateBox.obj
 0001:00017770       ??1?$vector@VCLibraryStoreSymbol@@V?$allocator@VCLibraryStoreSymbol@@@std@@@std@@QAE@XZ 00418770 f i DlgUpdateBox.obj
 0001:000177d0       ?erase@?$vector@VCLibraryStoreSymbol@@V?$allocator@VCLibraryStoreSymbol@@@std@@@std@@QAE?AV?$_Vector_iterator@VCLibraryStoreSymbol@@V?$allocator@VCLibraryStoreSymbol@@@std@@@2@V?$_Vector_const_iterator@VCLibraryStoreSymbol@@V?$allocator@VCLibraryStoreSymbol@@@std@@@2@@Z 004187d0 f i DlgUpdateBox.obj
 0001:00017860       ??$_Ucopy@PAVCLibraryStoreSymbol@@@?$vector@VCLibraryStoreSymbol@@V?$allocator@VCLibraryStoreSymbol@@@std@@@std@@IAEPAVCLibraryStoreSymbol@@PAV2@00@Z 00418860 f i Library.obj
 0001:00017860       ??$_Umove@PAVCLibraryStoreSymbol@@@?$vector@VCLibraryStoreSymbol@@V?$allocator@VCLibraryStoreSymbol@@@std@@@std@@IAEPAVCLibraryStoreSymbol@@PAV2@00@Z 00418860 f i DlgUpdateBox.obj
 0001:00017890       ??0CDlgUpdateBox@@QAE@PAVCWnd@@@Z 00418890 f   DlgUpdateBox.obj
 0001:00017b00       ??1CDlgUpdateBox@@UAE@XZ   00418b00 f   DlgUpdateBox.obj
 0001:00017cb0       ?OnDeleteName@CDlgUpdateBox@@IAEXXZ 00418cb0 f   DlgUpdateBox.obj
 0001:00017dc0       ?_Insert_n@?$vector@VCLibraryStoreSymbol@@V?$allocator@VCLibraryStoreSymbol@@@std@@@std@@IAEXV?$_Vector_const_iterator@VCLibraryStoreSymbol@@V?$allocator@VCLibraryStoreSymbol@@@std@@@2@IABVCLibraryStoreSymbol@@@Z 00418dc0 f i DlgUpdateBox.obj
 0001:000180d0       ??_GCDlgUpdateBox@@UAEPAXI@Z 004190d0 f i DlgUpdateBox.obj
 0001:000180d0       ??_ECDlgUpdateBox@@UAEPAXI@Z 004190d0 f i DlgUpdateBox.obj
 0001:000180f0       ?insert@?$vector@VCLibraryStoreSymbol@@V?$allocator@VCLibraryStoreSymbol@@@std@@@std@@QAE?AV?$_Vector_iterator@VCLibraryStoreSymbol@@V?$allocator@VCLibraryStoreSymbol@@@std@@@2@V?$_Vector_const_iterator@VCLibraryStoreSymbol@@V?$allocator@VCLibraryStoreSymbol@@@std@@@2@ABVCLibraryStoreSymbol@@@Z 004190f0 f i DlgUpdateBox.obj
 0001:000181b0       ?push_back@?$vector@VCLibraryStoreSymbol@@V?$allocator@VCLibraryStoreSymbol@@@std@@@std@@QAEXABVCLibraryStoreSymbol@@@Z 004191b0 f i DlgUpdateBox.obj
 0001:00018260       ?OnInitDialog@CDlgUpdateBox@@MAEHXZ 00419260 f   DlgUpdateBox.obj
 0001:00018580       ?OnAddName@CDlgUpdateBox@@IAEXXZ 00419580 f   DlgUpdateBox.obj
 0001:000186b0       ?GetMessageMap@CDlgUpdateBox@@MBEPBUAFX_MSGMAP@@XZ 004196b0 f   DlgUpdateBox.obj
 0001:000186c0       ??0CDocResource@@QAE@XZ    004196c0 f   DocResource.obj
 0001:000186e0       ??1CDocResource@@UAE@XZ    004196e0 f   DocResource.obj
 0001:00018700       ?ConvertOld@CDocResource@@QAEFF@Z 00419700 f   DocResource.obj
 0001:00018730       ?Add@CDocResource@@QAEFPAV1@F@Z 00419730 f   DocResource.obj
 0001:000187b0       ?Get@CDocResource@@QAEPAV1@F@Z 004197b0 f   DocResource.obj
 0001:000187e0       ?Tag@CDocResource@@QAEXF@Z 004197e0 f   DocResource.obj
 0001:00018810       ?UnTag@CDocResource@@QAEXXZ 00419810 f   DocResource.obj
 0001:00018830       ?ResetMerge@CDocResource@@QAEXXZ 00419830 f   DocResource.obj
 0001:00018850       ??$?5G@CStream@@QAEAAV0@AAG@Z 00419850 f i DocResource.obj
 0001:00018870       ??_ECDocResource@@UAEPAXI@Z 00419870 f i DocResource.obj
 0001:00018870       ??_GCDocResource@@UAEPAXI@Z 00419870 f i DocResource.obj
 0001:000188a0       ?Load@CDocResource@@QAEXPAVCTinyCadDoc@@AAVCStream@@@Z 004198a0 f   DocResource.obj
 0001:00018930       ??$addAttribute@F@CXMLWriter@@QAEXPB_WF@Z 00419930 f i DocResource.obj
 0001:000189c0       ?SaveXML@CDocResource@@QAEXPAVCTinyCadDoc@@PB_WAAVCXMLWriter@@@Z 004199c0 f   DocResource.obj
 0001:00018a20       ??GCDPoint@@QAE?AV0@V0@@Z  00419a20 f i DragUtils.obj
 0001:00018a50       ??9CDPoint@@QBE_NABV0@@Z   00419a50 f i DragUtils.obj
 0001:00018aa0       ??0dragWire@CDragUtils@@QAE@PAVCDrawingObject@@HH@Z 00419aa0 f i DragUtils.obj
 0001:00018b10       ?_Max@?$_Tree@V?$_Tset_traits@UdragWire@CDragUtils@@U?$less@UdragWire@CDragUtils@@@std@@V?$allocator@UdragWire@CDragUtils@@@4@$0A@@std@@@std@@KAPAU_Node@?$_Tree_nod@V?$_Tset_traits@UdragWire@CDragUtils@@U?$less@UdragWire@CDragUtils@@@std@@V?$allocator@UdragWire@CDragUtils@@@4@$0A@@std@@@2@PAU342@@Z 00419b10 f i DragUtils.obj
 0001:00018b30       ?_Min@?$_Tree@V?$_Tset_traits@UdragWire@CDragUtils@@U?$less@UdragWire@CDragUtils@@@std@@V?$allocator@UdragWire@CDragUtils@@@4@$0A@@std@@@std@@KAPAU_Node@?$_Tree_nod@V?$_Tset_traits@UdragWire@CDragUtils@@U?$less@UdragWire@CDragUtils@@@std@@V?$allocator@UdragWire@CDragUtils@@@4@$0A@@std@@@2@PAU342@@Z 00419b30 f i DragUtils.obj
 0001:00018b50       ?_Rrotate@?$_Tree@V?$_Tset_traits@UdragWire@CDragUtils@@U?$less@UdragWire@CDragUtils@@@std@@V?$allocator@UdragWire@CDragUtils@@@4@$0A@@std@@@std@@IAEXPAU_Node@?$_Tree_nod@V?$_Tset_traits@UdragWire@CDragUtils@@U?$less@UdragWire@CDragUtils@@@std@@V?$allocator@UdragWire@CDragUtils@@@4@$0A@@std@@@2@@Z 00419b50 f i DragUtils.obj
 0001:00018bb0       ?_Min@?$_Tree@V?$_Tset_traits@V?$CStringT@_WV?$StrTraitMFC@_WV?$ChTraitsCRT@_W@ATL@@@@@ATL@@U?$less@V?$CStringT@_WV?$StrTraitMFC@_WV?$ChTraitsCRT@_W@ATL@@@@@ATL@@@std@@V?$allocator@V?$CStringT@_WV?$StrTraitMFC@_WV?$ChTraitsCRT@_W@ATL@@@@@ATL@@@4@$0A@@std@@@std@@KAPAU_Node@?$_Tree_nod@V?$_Tset_traits@V?$CStringT@_WV?$StrTraitMFC@_WV?$ChTraitsCRT@_W@ATL@@@@@ATL@@U?$less@V?$CStringT@_WV?$StrTraitMFC@_WV?$ChTraitsCRT@_W@ATL@@@@@ATL@@@std@@V?$allocator@V?$CStringT@_WV?$StrTraitMFC@_WV?$ChTraitsCRT@_W@ATL@@@@@ATL@@@4@$0A@@std@@@2@PAU342@@Z 00419bb0 f i DlgGetFindBox.obj
 0001:00018bb0       ?_Min@?$_Tree@V?$_Tset_traits@PAVCDrawingObject@@U?$less@PAVCDrawingObject@@@std@@V?$allocator@PAVCDrawingObject@@@3@$0A@@std@@@std@@KAPAU_Node@?$_Tree_nod@V?$_Tset_traits@PAVCDrawingObject@@U?$less@PAVCDrawingObject@@@std@@V?$allocator@PAVCDrawingObject@@@3@$0A@@std@@@2@PAU342@@Z 00419bb0 f i DragUtils.obj
 0001:00018bd0       ?_Lrotate@?$_Tree@V?$_Tset_traits@UdragWire@CDragUtils@@U?$less@UdragWire@CDragUtils@@@std@@V?$allocator@UdragWire@CDragUtils@@@4@$0A@@std@@@std@@IAEXPAU_Node@?$_Tree_nod@V?$_Tset_traits@UdragWire@CDragUtils@@U?$less@UdragWire@CDragUtils@@@std@@V?$allocator@UdragWire@CDragUtils@@@4@$0A@@std@@@2@@Z 00419bd0 f i DragUtils.obj
 0001:00018c20       ?_Lrotate@?$_Tree@V?$_Tset_traits@PAVCDrawingObject@@U?$less@PAVCDrawingObject@@@std@@V?$allocator@PAVCDrawingObject@@@3@$0A@@std@@@std@@IAEXPAU_Node@?$_Tree_nod@V?$_Tset_traits@PAVCDrawingObject@@U?$less@PAVCDrawingObject@@@std@@V?$allocator@PAVCDrawingObject@@@3@$0A@@std@@@2@@Z 00419c20 f i DragUtils.obj
 0001:00018c20       ?_Lrotate@?$_Tree@V?$_Tset_traits@V?$CStringT@_WV?$StrTraitMFC@_WV?$ChTraitsCRT@_W@ATL@@@@@ATL@@U?$less@V?$CStringT@_WV?$StrTraitMFC@_WV?$ChTraitsCRT@_W@ATL@@@@@ATL@@@std@@V?$allocator@V?$CStringT@_WV?$StrTraitMFC@_WV?$ChTraitsCRT@_W@ATL@@@@@ATL@@@4@$0A@@std@@@std@@IAEXPAU_Node@?$_Tree_nod@V?$_Tset_traits@V?$CStringT@_WV?$StrTraitMFC@_WV?$ChTraitsCRT@_W@ATL@@@@@ATL@@U?$less@V?$CStringT@_WV?$StrTraitMFC@_WV?$ChTraitsCRT@_W@ATL@@@@@ATL@@@std@@V?$allocator@V?$CStringT@_WV?$StrTraitMFC@_WV?$ChTraitsCRT@_W@ATL@@@@@ATL@@@4@$0A@@std@@@2@@Z 00419c20 f i DlgGetFindBox.obj
 0001:00018c70       ?_Rrotate@?$_Tree@V?$_Tset_traits@PAVCDrawingObject@@U?$less@PAVCDrawingObject@@@std@@V?$allocator@PAVCDrawingObject@@@3@$0A@@std@@@std@@IAEXPAU_Node@?$_Tree_nod@V?$_Tset_traits@PAVCDrawingObject@@U?$less@PAVCDrawingObject@@@std@@V?$allocator@PAVCDrawingObject@@@3@$0A@@std@@@2@@Z 00419c70 f i DragUtils.obj
 0001:00018c70       ?_Rrotate@?$_Tree@V?$_Tset_traits@V?$CStringT@_WV?$StrTraitMFC@_WV?$ChTraitsCRT@_W@ATL@@@@@ATL@@U?$less@V?$CStringT@_WV?$StrTraitMFC@_WV?$ChTraitsCRT@_W@ATL@@@@@ATL@@@std@@V?$allocator@V?$CStringT@_WV?$StrTraitMFC@_WV?$ChTraitsCRT@_W@ATL@@@@@ATL@@@4@$0A@@std@@@std@@IAEXPAU_Node@?$_Tree_nod@V?$_Tset_traits@V?$CStringT@_WV?$StrTraitMFC@_WV?$ChTraitsCRT@_W@ATL@@@@@ATL@@U?$less@V?$CStringT@_WV?$StrTraitMFC@_WV?$ChTraitsCRT@_W@ATL@@@@@ATL@@@std@@V?$allocator@V?$CStringT@_WV?$StrTraitMFC@_WV?$ChTraitsCRT@_W@ATL@@@@@ATL@@@4@$0A@@std@@@2@@Z 00419c70 f i DlgGetFindBox.obj
 0001:00018cd0       ?_Erase@?$_Tree@V?$_Tset_traits@UdragWire@CDragUtils@@U?$less@UdragWire@CDragUtils@@@std@@V?$allocator@UdragWire@CDragUtils@@@4@$0A@@std@@@std@@IAEXPAU_Node@?$_Tree_nod@V?$_Tset_traits@UdragWire@CDragUtils@@U?$less@UdragWire@CDragUtils@@@std@@V?$allocator@UdragWire@CDragUtils@@@4@$0A@@std@@@2@@Z 00419cd0 f i DragUtils.obj
 0001:00018d10       ?_Inc@const_iterator@?$_Tree@V?$_Tset_traits@UdragWire@CDragUtils@@U?$less@UdragWire@CDragUtils@@@std@@V?$allocator@UdragWire@CDragUtils@@@4@$0A@@std@@@std@@QAEXXZ 00419d10 f i DragUtils.obj
 0001:00018d80       ?_Dec@const_iterator@?$_Tree@V?$_Tset_traits@V?$CStringT@_WV?$StrTraitMFC@_WV?$ChTraitsCRT@_W@ATL@@@@@ATL@@U?$less@V?$CStringT@_WV?$StrTraitMFC@_WV?$ChTraitsCRT@_W@ATL@@@@@ATL@@@std@@V?$allocator@V?$CStringT@_WV?$StrTraitMFC@_WV?$ChTraitsCRT@_W@ATL@@@@@ATL@@@4@$0A@@std@@@std@@QAEXXZ 00419d80 f i DlgGetFindBox.obj
 0001:00018d80       ?_Dec@const_iterator@?$_Tree@V?$_Tset_traits@PAVCDrawingObject@@U?$less@PAVCDrawingObject@@@std@@V?$allocator@PAVCDrawingObject@@@3@$0A@@std@@@std@@QAEXXZ 00419d80 f i DragUtils.obj
 0001:00018e10       ?_Dec@const_iterator@?$_Tree@V?$_Tset_traits@UdragWire@CDragUtils@@U?$less@UdragWire@CDragUtils@@@std@@V?$allocator@UdragWire@CDragUtils@@@4@$0A@@std@@@std@@QAEXXZ 00419e10 f i DragUtils.obj
 0001:00018ea0       ??Diterator@?$_Tree@V?$_Tset_traits@UdragWire@CDragUtils@@U?$less@UdragWire@CDragUtils@@@std@@V?$allocator@UdragWire@CDragUtils@@@4@$0A@@std@@@std@@QBEAAUdragWire@CDragUtils@@XZ 00419ea0 f i DragUtils.obj
 0001:00018ed0       ?_Erase@?$_Tree@V?$_Tset_traits@PAVCDrawingObject@@U?$less@PAVCDrawingObject@@@std@@V?$allocator@PAVCDrawingObject@@@3@$0A@@std@@@std@@IAEXPAU_Node@?$_Tree_nod@V?$_Tset_traits@PAVCDrawingObject@@U?$less@PAVCDrawingObject@@@std@@V?$allocator@PAVCDrawingObject@@@3@$0A@@std@@@2@@Z 00419ed0 f i DragUtils.obj
 0001:00018f10       ?AddAttachedObjects@CDragUtils@@IAEXPAVCDrawingObject@@HH@Z 00419f10 f   DragUtils.obj
 0001:000191f0       ?_Buynode@?$_Tree@V?$_Tset_traits@PAVCDrawingObject@@U?$less@PAVCDrawingObject@@@std@@V?$allocator@PAVCDrawingObject@@@3@$0A@@std@@@std@@IAEPAU_Node@?$_Tree_nod@V?$_Tset_traits@PAVCDrawingObject@@U?$less@PAVCDrawingObject@@@std@@V?$allocator@PAVCDrawingObject@@@3@$0A@@std@@@2@PAU342@00ABQAVCDrawingObject@@D@Z 0041a1f0 f i DragUtils.obj
 0001:00019230       ?_Buynode@?$_Tree@V?$_Tset_traits@UdragWire@CDragUtils@@U?$less@UdragWire@CDragUtils@@@std@@V?$allocator@UdragWire@CDragUtils@@@4@$0A@@std@@@std@@IAEPAU_Node@?$_Tree_nod@V?$_Tset_traits@UdragWire@CDragUtils@@U?$less@UdragWire@CDragUtils@@@std@@V?$allocator@UdragWire@CDragUtils@@@4@$0A@@std@@@2@PAU342@00ABUdragWire@CDragUtils@@D@Z 0041a230 f i DragUtils.obj
 0001:00019280       ?_Buynode@?$_Tree@V?$_Tset_traits@V?$CStringT@_WV?$StrTraitMFC@_WV?$ChTraitsCRT@_W@ATL@@@@@ATL@@U?$less@V?$CStringT@_WV?$StrTraitMFC@_WV?$ChTraitsCRT@_W@ATL@@@@@ATL@@@std@@V?$allocator@V?$CStringT@_WV?$StrTraitMFC@_WV?$ChTraitsCRT@_W@ATL@@@@@ATL@@@4@$0A@@std@@@std@@IAEPAU_Node@?$_Tree_nod@V?$_Tset_traits@V?$CStringT@_WV?$StrTraitMFC@_WV?$ChTraitsCRT@_W@ATL@@@@@ATL@@U?$less@V?$CStringT@_WV?$StrTraitMFC@_WV?$ChTraitsCRT@_W@ATL@@@@@ATL@@@std@@V?$allocator@V?$CStringT@_WV?$StrTraitMFC@_WV?$ChTraitsCRT@_W@ATL@@@@@ATL@@@4@$0A@@std@@@2@XZ 0041a280 f i DlgGetFindBox.obj
 0001:00019280       ?_Buynode@?$_Tree@V?$_Tset_traits@PAVCDrawingObject@@U?$less@PAVCDrawingObject@@@std@@V?$allocator@PAVCDrawingObject@@@3@$0A@@std@@@std@@IAEPAU_Node@?$_Tree_nod@V?$_Tset_traits@PAVCDrawingObject@@U?$less@PAVCDrawingObject@@@std@@V?$allocator@PAVCDrawingObject@@@3@$0A@@std@@@2@XZ 0041a280 f i DragUtils.obj
 0001:000192c0       ?_Buynode@?$_Tree@V?$_Tset_traits@UdragWire@CDragUtils@@U?$less@UdragWire@CDragUtils@@@std@@V?$allocator@UdragWire@CDragUtils@@@4@$0A@@std@@@std@@IAEPAU_Node@?$_Tree_nod@V?$_Tset_traits@UdragWire@CDragUtils@@U?$less@UdragWire@CDragUtils@@@std@@V?$allocator@UdragWire@CDragUtils@@@4@$0A@@std@@@2@XZ 0041a2c0 f i DragUtils.obj
 0001:00019300       ?MoveAttachedObjects@CDragUtils@@IAEXPAVCDrawingObject@@@Z 0041a300 f   DragUtils.obj
 0001:000196f0       ??1CActiveNode@@QAE@XZ     0041a6f0 f i DragUtils.obj
 0001:00019730       ?DisplayDraggedWires@CDragUtils@@IAEXXZ 0041a730 f   DragUtils.obj
 0001:00019820       ?find@?$_Tree@V?$_Tset_traits@UdragWire@CDragUtils@@U?$less@UdragWire@CDragUtils@@@std@@V?$allocator@UdragWire@CDragUtils@@@4@$0A@@std@@@std@@QAE?AViterator@12@ABUdragWire@CDragUtils@@@Z 0041a820 f i DragUtils.obj
 0001:000198b0       ?erase@?$_Tree@V?$_Tset_traits@PAVCDrawingObject@@U?$less@PAVCDrawingObject@@@std@@V?$allocator@PAVCDrawingObject@@@3@$0A@@std@@@std@@QAE?AViterator@12@Vconst_iterator@12@@Z 0041a8b0 f i DragUtils.obj
 0001:00019b80       ?_Insert@?$_Tree@V?$_Tset_traits@PAVCDrawingObject@@U?$less@PAVCDrawingObject@@@std@@V?$allocator@PAVCDrawingObject@@@3@$0A@@std@@@std@@IAE?AViterator@12@_NPAU_Node@?$_Tree_nod@V?$_Tset_traits@PAVCDrawingObject@@U?$less@PAVCDrawingObject@@@std@@V?$allocator@PAVCDrawingObject@@@3@$0A@@std@@@2@ABQAVCDrawingObject@@@Z 0041ab80 f i DragUtils.obj
 0001:00019d80       ??0?$_Tree@V?$_Tset_traits@UdragWire@CDragUtils@@U?$less@UdragWire@CDragUtils@@@std@@V?$allocator@UdragWire@CDragUtils@@@4@$0A@@std@@@std@@QAE@ABU?$less@UdragWire@CDragUtils@@@1@ABV?$allocator@UdragWire@CDragUtils@@@1@@Z 0041ad80 f i DragUtils.obj
 0001:00019e10       ?_Insert@?$_Tree@V?$_Tset_traits@UdragWire@CDragUtils@@U?$less@UdragWire@CDragUtils@@@std@@V?$allocator@UdragWire@CDragUtils@@@4@$0A@@std@@@std@@IAE?AViterator@12@_NPAU_Node@?$_Tree_nod@V?$_Tset_traits@UdragWire@CDragUtils@@U?$less@UdragWire@CDragUtils@@@std@@V?$allocator@UdragWire@CDragUtils@@@4@$0A@@std@@@2@ABUdragWire@CDragUtils@@@Z 0041ae10 f i DragUtils.obj
 0001:0001a010       ??0CActiveNode@@QAE@XZ     0041b010 f i DragUtils.obj
 0001:0001a0a0       ?insert@?$_Tree@V?$_Tset_traits@PAVCDrawingObject@@U?$less@PAVCDrawingObject@@@std@@V?$allocator@PAVCDrawingObject@@@3@$0A@@std@@@std@@QAE?AU?$pair@Viterator@?$_Tree@V?$_Tset_traits@PAVCDrawingObject@@U?$less@PAVCDrawingObject@@@std@@V?$allocator@PAVCDrawingObject@@@3@$0A@@std@@@std@@_N@2@ABQAVCDrawingObject@@@Z 0041b0a0 f i DragUtils.obj
 0001:0001a190       ?erase@?$_Tree@V?$_Tset_traits@PAVCDrawingObject@@U?$less@PAVCDrawingObject@@@std@@V?$allocator@PAVCDrawingObject@@@3@$0A@@std@@@std@@QAE?AViterator@12@Vconst_iterator@12@0@Z 0041b190 f i DragUtils.obj
 0001:0001a270       ?insert@?$_Tree@V?$_Tset_traits@UdragWire@CDragUtils@@U?$less@UdragWire@CDragUtils@@@std@@V?$allocator@UdragWire@CDragUtils@@@4@$0A@@std@@@std@@QAE?AU?$pair@Viterator@?$_Tree@V?$_Tset_traits@UdragWire@CDragUtils@@U?$less@UdragWire@CDragUtils@@@std@@V?$allocator@UdragWire@CDragUtils@@@4@$0A@@std@@@std@@_N@2@ABUdragWire@CDragUtils@@@Z 0041b270 f i DragUtils.obj
 0001:0001a360       ?erase@?$_Tree@V?$_Tset_traits@UdragWire@CDragUtils@@U?$less@UdragWire@CDragUtils@@@std@@V?$allocator@UdragWire@CDragUtils@@@4@$0A@@std@@@std@@QAE?AViterator@12@Vconst_iterator@12@@Z 0041b360 f i DragUtils.obj
 0001:0001a630       ?erase@?$_Tree@V?$_Tset_traits@UdragWire@CDragUtils@@U?$less@UdragWire@CDragUtils@@@std@@V?$allocator@UdragWire@CDragUtils@@@4@$0A@@std@@@std@@QAE?AViterator@12@Vconst_iterator@12@0@Z 0041b630 f i DragUtils.obj
 0001:0001a710       ?_Tidy@?$_Tree@V?$_Tset_traits@PAVCDrawingObject@@U?$less@PAVCDrawingObject@@@std@@V?$allocator@PAVCDrawingObject@@@3@$0A@@std@@@std@@IAEXXZ 0041b710 f i DragUtils.obj
 0001:0001a750       ?Clear@CDragUtils@@IAEXXZ  0041b750 f   DragUtils.obj
 0001:0001a7a0       ?Merge@CDragUtils@@IAEXXZ  0041b7a0 f   DragUtils.obj
 0001:0001af30       ?Clean@CDragUtils@@IAEXXZ  0041bf30 f   DragUtils.obj
 0001:0001b0a0       ?End@CDragUtils@@QAEX_N@Z  0041c0a0 f   DragUtils.obj
 0001:0001b190       ?AddWireToCollection@CDragUtils@@IAEXUdragWire@1@@Z 0041c190 f   DragUtils.obj
 0001:0001b2f0       ?AddWiresAtPoint@CDragUtils@@IAEXVCDPoint@@@Z 0041c2f0 f   DragUtils.obj
 0001:0001b530       ?Begin@CDragUtils@@QAEXVCDPoint@@0@Z 0041c530 f   DragUtils.obj
 0001:0001b580       ?Begin@CDragUtils@@IAEXXZ  0041c580 f   DragUtils.obj
 0001:0001b9c0       ?MergeLinePoint@CDragUtils@@QAEXPAVCDrawingObject@@@Z 0041c9c0 f   DragUtils.obj
 0001:0001ba00       ?Drag@CDragUtils@@QAEXVCDPoint@@@Z 0041ca00 f   DragUtils.obj
 0001:0001bdd0       ?Move@CDragUtils@@QAEXVCDPoint@@@Z 0041cdd0 f   DragUtils.obj
 0001:0001bf20       ??1?$_Tree@V?$_Tset_traits@PAVCDrawingObject@@U?$less@PAVCDrawingObject@@@std@@V?$allocator@PAVCDrawingObject@@@3@$0A@@std@@@std@@QAE@XZ 0041cf20 f i DragUtils.obj
 0001:0001bfa0       ??1?$_Tree@V?$_Tset_traits@UdragWire@CDragUtils@@U?$less@UdragWire@CDragUtils@@@std@@V?$allocator@UdragWire@CDragUtils@@@4@$0A@@std@@@std@@QAE@XZ 0041cfa0 f i DragUtils.obj
 0001:0001c020       ??1?$set@UdragWire@CDragUtils@@U?$less@UdragWire@CDragUtils@@@std@@V?$allocator@UdragWire@CDragUtils@@@4@@std@@QAE@XZ 0041d020 f i DragUtils.obj
 0001:0001c030       ??1?$set@PAVCDrawingObject@@U?$less@PAVCDrawingObject@@@std@@V?$allocator@PAVCDrawingObject@@@3@@std@@QAE@XZ 0041d030 f i DragUtils.obj
 0001:0001c040       ??1CDragUtils@@UAE@XZ      0041d040 f   DragUtils.obj
 0001:0001c0c0       ??0CDragUtils@@QAE@PAVCTinyCadDoc@@@Z 0041d0c0 f   DragUtils.obj
 0001:0001c170       ??_GCDragUtils@@UAEPAXI@Z  0041d170 f i DragUtils.obj
 0001:0001c170       ??_ECDragUtils@@UAEPAXI@Z  0041d170 f i DragUtils.obj
 0001:0001c190       ?getMenuID@CDrawingObject@@UAEHXZ 0041d190 f i DrawBlockDrag.obj
 0001:0001c190       ?getMenuID@CDrawRefPainter@@UAEHXZ 0041d190 f i Special.obj
 0001:0001c1a0       ??0CDrawBlockDrag@@QAE@PAVCTinyCadDoc@@@Z 0041d1a0 f   DrawBlockDrag.obj
 0001:0001c230       ?getMenuID@CDrawBlockDrag@@UAEHXZ 0041d230 f i DrawBlockDrag.obj
 0001:0001c240       ??1CDrawBlockDrag@@UAE@XZ  0041d240 f i DrawBlockDrag.obj
 0001:0001c290       ?EndEdit@CDrawBlockDrag@@UAEXXZ 0041d290 f   DrawBlockDrag.obj
 0001:0001c310       ?LButtonDown@CDrawBlockDrag@@UAEXVCDPoint@@0@Z 0041d310 f   DrawBlockDrag.obj
 0001:0001c4e0       ?Move@CDrawBlockDrag@@UAEXVCDPoint@@0@Z 0041d4e0 f   DrawBlockDrag.obj
 0001:0001c590       ?RButtonDown@CDrawBlockDrag@@UAEHVCDPoint@@0@Z 0041d590 f   DrawBlockDrag.obj
 0001:0001c640       ?Rectangle@CContext@@QAEXVCDRect@@@Z 0041d640 f i DrawBlockDrag.obj
 0001:0001c690       ?Paint@CDrawBlockDup@@UAEXAAVCContext@@W4paint_options@@@Z 0041d690 f   DrawBlockDup.obj
 0001:0001c690       ?Paint@CDrawBlockMove@@UAEXAAVCContext@@W4paint_options@@@Z 0041d690 f   DrawBlockMove.obj
 0001:0001c690       ?Paint@CDrawBlockRotate@@UAEXAAVCContext@@W4paint_options@@@Z 0041d690 f   DrawBlockRotate.obj
 0001:0001c690       ?Paint@CDrawBlockDrag@@UAEXAAVCContext@@W4paint_options@@@Z 0041d690 f   DrawBlockDrag.obj
 0001:0001c690       ?Paint@CDrawEditItem@@UAEXAAVCContext@@W4paint_options@@@Z 0041d690 f   Item.obj
 0001:0001c720       ??_GCDrawBlockDrag@@UAEPAXI@Z 0041d720 f i DrawBlockDrag.obj
 0001:0001c720       ??_ECDrawBlockDrag@@UAEPAXI@Z 0041d720 f i DrawBlockDrag.obj
 0001:0001c740       ??0CDrawBlockDup@@QAE@PAVCTinyCadDoc@@@Z 0041d740 f   DrawBlockDup.obj
 0001:0001c780       ?getMenuID@CDrawBlockDup@@UAEHXZ 0041d780 f i DrawBlockDup.obj
 0001:0001c790       ?EndEdit@CDrawBlockDup@@UAEXXZ 0041d790 f   DrawBlockDup.obj
 0001:0001c7c0       ?LButtonDown@CDrawBlockDup@@UAEXVCDPoint@@0@Z 0041d7c0 f   DrawBlockDup.obj
 0001:0001c8e0       ?Move@CDrawBlockDup@@UAEXVCDPoint@@0@Z 0041d8e0 f   DrawBlockDup.obj
 0001:0001c8e0       ?Move@CDrawBlockMove@@UAEXVCDPoint@@0@Z 0041d8e0 f   DrawBlockMove.obj
 0001:0001c990       ?RButtonDown@CDrawBlockDup@@UAEHVCDPoint@@0@Z 0041d990 f   DrawBlockDup.obj
 0001:0001ca00       ?Snap@TransformSnap@@QAE?AVCDPoint@@V2@@Z 0041da00 f i DrawBlockImport.obj
 0001:0001ca40       ??0CDrawBlockImport@@QAE@PAVCTinyCadDoc@@@Z 0041da40 f   DrawBlockImport.obj
 0001:0001ca60       ?getMenuID@CDrawBlockImport@@UAEHXZ 0041da60 f i DrawBlockImport.obj
 0001:0001ca70       ?EndEdit@CDrawBlockImport@@UAEXXZ 0041da70 f   DrawBlockImport.obj
 0001:0001caa0       ?LButtonDown@CDrawBlockImport@@UAEXVCDPoint@@0@Z 0041daa0 f   DrawBlockImport.obj
 0001:0001cb30       ?Move@CDrawBlockImport@@UAEXVCDPoint@@0@Z 0041db30 f   DrawBlockImport.obj
 0001:0001cb90       ?RButtonDown@CDrawBlockImport@@UAEHVCDPoint@@0@Z 0041db90 f   DrawBlockImport.obj
 0001:0001cbd0       ?Import@CDrawBlockImport@@UAEXXZ 0041dbd0 f   DrawBlockImport.obj
 0001:0001cd60       ??0CDrawBlockMove@@QAE@PAVCTinyCadDoc@@@Z 0041dd60 f   DrawBlockMove.obj
 0001:0001cda0       ?getMenuID@CDrawBlockMove@@UAEHXZ 0041dda0 f i DrawBlockMove.obj
 0001:0001cdb0       ?SetCursor@CDrawBlockDrag@@UAEHVCDPoint@@@Z 0041ddb0 f   DrawBlockDrag.obj
 0001:0001cdb0       ?SetCursor@CDrawBlockMove@@UAEHVCDPoint@@@Z 0041ddb0 f   DrawBlockMove.obj
 0001:0001cdc0       ?EndEdit@CDrawBlockMove@@UAEXXZ 0041ddc0 f   DrawBlockMove.obj
 0001:0001ce40       ?LButtonDown@CDrawBlockMove@@UAEXVCDPoint@@0@Z 0041de40 f   DrawBlockMove.obj
 0001:0001cfa0       ?RButtonDown@CDrawBlockMove@@UAEHVCDPoint@@0@Z 0041dfa0 f   DrawBlockMove.obj
 0001:0001d050       ??0CDrawBlockRotate@@QAE@PAVCTinyCadDoc@@@Z 0041e050 f   DrawBlockRotate.obj
 0001:0001d090       ?getMenuID@CDrawBlockRotate@@UAEHXZ 0041e090 f i DrawBlockRotate.obj
 0001:0001d0a0       ?SetCursor@CDrawBlockDup@@UAEHVCDPoint@@@Z 0041e0a0 f   DrawBlockDup.obj
 0001:0001d0a0       ?SetCursor@CDrawBlockRotate@@UAEHVCDPoint@@@Z 0041e0a0 f   DrawBlockRotate.obj
 0001:0001d0b0       ?EndEdit@CDrawBlockRotate@@UAEXXZ 0041e0b0 f   DrawBlockRotate.obj
 0001:0001d0f0       ?LButtonDown@CDrawBlockRotate@@UAEXVCDPoint@@0@Z 0041e0f0 f   DrawBlockRotate.obj
 0001:0001d240       ?Move@CDrawBlockRotate@@UAEXVCDPoint@@0@Z 0041e240 f   DrawBlockRotate.obj
 0001:0001d290       ?RButtonDown@CDrawBlockRotate@@UAEHVCDPoint@@0@Z 0041e290 f   DrawBlockRotate.obj
 0001:0001d300       ?ChangeDir@CDrawBlockRotate@@UAEXH@Z 0041e300 f   DrawBlockRotate.obj
 0001:0001d4e0       ?GetXMLTag@CDrawBusSlash@@SAPB_WXZ 0041e4e0 f   DrawBusSlash.obj
 0001:0001d4f0       ??0CDrawBusSlash@@QAE@PAVCTinyCadDoc@@H@Z 0041e4f0 f   DrawBusSlash.obj
 0001:0001d530       ?GetType@CDrawBusSlash@@UAE?AW4ObjType@@XZ 0041e530 f   DrawBusSlash.obj
 0001:0001d540       ?getMenuID@CDrawBusSlash@@UAEHXZ 0041e540 f   DrawBusSlash.obj
 0001:0001d550       ?Move@CDrawBusSlash@@UAEXVCDPoint@@0@Z 0041e550 f   DrawBusSlash.obj
 0001:0001d590       ?LButtonDown@CDrawRuler@@UAEXVCDPoint@@0@Z 0041e590 f   DrawRuler.obj
 0001:0001d590       ?LButtonDown@CDrawBusSlash@@UAEXVCDPoint@@0@Z 0041e590 f   DrawBusSlash.obj
 0001:0001d5f0       ?Display@CDrawBusSlash@@UAEXH@Z 0041e5f0 f   DrawBusSlash.obj
 0001:0001d650       ?GetActive@CDrawBusSlash@@UAE_NAAVCActiveNode@@@Z 0041e650 f   DrawBusSlash.obj
 0001:0001d6a0       ?Load@CDrawBusSlash@@UAEXAAVCStream@@@Z 0041e6a0 f   DrawBusSlash.obj
 0001:0001d700       ?Paint@CDrawBusSlash@@UAEXAAVCContext@@W4paint_options@@@Z 0041e700 f   DrawBusSlash.obj
 0001:0001d7d0       ?Store@CDrawBusSlash@@UAEPAVCDrawingObject@@XZ 0041e7d0 f   DrawBusSlash.obj
 0001:0001d8b0       ??$addAttribute@VCDPoint@@@CXMLWriter@@QAEXPB_WVCDPoint@@@Z 0041e8b0 f i DrawBusSlash.obj
 0001:0001d960       ?SaveXML@CDrawBusSlash@@UAEXAAVCXMLWriter@@@Z 0041e960 f   DrawBusSlash.obj
 0001:0001d9c0       ??$getAttribute@VCDPoint@@@CXMLReader@@QAE_NPB_WAAVCDPoint@@@Z 0041e9c0 f i DrawBusSlash.obj
 0001:0001dad0       ??$getAttribute@E@CXMLReader@@QAE_NPB_WAAE@Z 0041ead0 f i DrawBusSlash.obj
 0001:0001dbe0       ?LoadXML@CDrawBusSlash@@UAEXAAVCXMLReader@@@Z 0041ebe0 f   DrawBusSlash.obj
 0001:0001dc30       ?GetName@CDrawBusSlash@@UBE?AV?$CStringT@_WV?$StrTraitMFC@_WV?$ChTraitsCRT@_W@ATL@@@@@ATL@@XZ 0041ec30 f   DrawBusSlash.obj
 0001:0001dc60       ?LButtonDown@CDrawCentre@@UAEXVCDPoint@@0@Z 0041ec60 f   DrawCentre.obj
 0001:0001dc90       ?RButtonDown@CDrawCentre@@UAEHVCDPoint@@0@Z 0041ec90 f   DrawCentre.obj
 0001:0001dcd0       ??0CDrawError@@QAE@PAVCTinyCadDoc@@VCDPoint@@H@Z 0041ecd0 f   DrawError.obj
 0001:0001dd20       ?GetType@CDrawError@@UAE?AW4ObjType@@XZ 0041ed20 f   DrawError.obj
 0001:0001dd30       ?IsInside@CDrawError@@UAEHNNNN@Z 0041ed30 f   DrawError.obj
 0001:0001dde0       ?BeginEdit@CDrawError@@UAEXH@Z 0041ede0 f   DrawError.obj
 0001:0001de00       ?Load@CDrawTag@@UAEXAAVCStream@@@Z 0041ee00 f   DrawError.obj
 0001:0001de60       ?GetXMLTag@CDrawTag@@SAPB_WXZ 0041ee60 f   DrawError.obj
 0001:0001de70       ?Ellipse@CContext@@QAEXVCDRect@@@Z 0041ee70 f i DrawError.obj
 0001:0001dec0       ?Paint@CDrawError@@UAEXAAVCContext@@W4paint_options@@@Z 0041eec0 f   DrawError.obj
 0001:0001df90       ??0CDrawError@@QAE@ABV0@@Z 0041ef90 f i DrawError.obj
 0001:0001dff0       ?Store@CDrawError@@UAEPAVCDrawingObject@@XZ 0041eff0 f   DrawError.obj
 0001:0001e040       ??$addChildData@V?$CStringT@_WV?$StrTraitMFC@_WV?$ChTraitsCRT@_W@ATL@@@@@ATL@@@CXMLWriter@@QAEXV?$CStringT@_WV?$StrTraitMFC@_WV?$ChTraitsCRT@_W@ATL@@@@@ATL@@@Z 0041f040 f i DrawError.obj
 0001:0001e0f0       ?SaveXML@CDrawTag@@UAEXAAVCXMLWriter@@@Z 0041f0f0 f   DrawError.obj
 0001:0001e160       ?LoadXML@CDrawTag@@UAEXAAVCXMLReader@@@Z 0041f160 f   DrawError.obj
 0001:0001e1b0       ?GetName@CDrawError@@UBE?AV?$CStringT@_WV?$StrTraitMFC@_WV?$ChTraitsCRT@_W@ATL@@@@@ATL@@XZ 0041f1b0 f   DrawError.obj
 0001:0001e1e0       ?getMenuID@CDrawHierarchicalSymbol@@UAEHXZ 0041f1e0 f   DrawHierarchicalSymbol.obj
 0001:0001e1f0       ?GetXMLTag@CDrawHierarchicalSymbol@@SAPB_WXZ 0041f1f0 f   DrawHierarchicalSymbol.obj
 0001:0001e200       ?BeginEdit@CDrawHierarchicalSymbol@@UAEXH@Z 0041f200 f   DrawHierarchicalSymbol.obj
 0001:0001e220       ?EndEdit@CDrawHierarchicalSymbol@@UAEXXZ 0041f220 f   DrawHierarchicalSymbol.obj
 0001:0001e250       ?GetContextMenu@CDrawHierarchicalSymbol@@UAEHXZ 0041f250 f   DrawHierarchicalSymbol.obj
 0001:0001e260       ?Paint@CDrawHierarchicalSymbol@@UAEXAAVCContext@@W4paint_options@@@Z 0041f260 f   DrawHierarchicalSymbol.obj
 0001:0001e2f0       ??0CField@CDrawMethod@@QAE@XZ 0041f2f0 f i DrawHierarchicalSymbol.obj
 0001:0001e350       ??1CField@CDrawMethod@@QAE@XZ 0041f350 f i DrawHierarchicalSymbol.obj
 0001:0001e3a0       ??$addAttribute@N@CXMLWriter@@QAEXPB_WN@Z 0041f3a0 f i DrawHierarchicalSymbol.obj
 0001:0001e430       ??$addAttribute@V?$CStringT@_WV?$StrTraitMFC@_WV?$ChTraitsCRT@_W@ATL@@@@@ATL@@@CXMLWriter@@QAEXPB_WV?$CStringT@_WV?$StrTraitMFC@_WV?$ChTraitsCRT@_W@ATL@@@@@ATL@@@Z 0041f430 f i DrawHierarchicalSymbol.obj
 0001:0001e4f0       ??$addAttribute@PB_W@CXMLWriter@@QAEXPB_W0@Z 0041f4f0 f i DrawHierarchicalSymbol.obj
 0001:0001e580       ?SaveXML@CDrawHierarchicalSymbol@@UAEXAAVCXMLWriter@@@Z 0041f580 f   DrawHierarchicalSymbol.obj
 0001:0001e760       ?GetValue@CDrawLabel@@QAE?AV?$CStringT@_WV?$StrTraitMFC@_WV?$ChTraitsCRT@_W@ATL@@@@@ATL@@XZ 0041f760 f   NetList.obj
 0001:0001e760       ?GetFilename@CDrawHierarchicalSymbol@@QAE?AV?$CStringT@_WV?$StrTraitMFC@_WV?$ChTraitsCRT@_W@ATL@@@@@ATL@@XZ 0041f760 f   DrawHierarchicalSymbol.obj
 0001:0001e760       ?GetXMLPathName@CTinyCadMultiDoc@@UAE?AV?$CStringT@_WV?$StrTraitMFC@_WV?$ChTraitsCRT@_W@ATL@@@@@ATL@@XZ 0041f760 f   TinyCadMultiDoc.obj
 0001:0001e790       ??0CField@CDrawMethod@@QAE@ABU01@@Z 0041f790 f i DrawHierarchicalSymbol.obj
 0001:0001e830       ??$getAttribute@V?$CStringT@_WV?$StrTraitMFC@_WV?$ChTraitsCRT@_W@ATL@@@@@ATL@@@CXMLReader@@QAE_NPB_WAAV?$CStringT@_WV?$StrTraitMFC@_WV?$ChTraitsCRT@_W@ATL@@@@@ATL@@@Z 0041f830 f i DrawHierarchicalSymbol.obj
 0001:0001e940       ?erase@?$list@PAVCDrawingObject@@V?$allocator@PAVCDrawingObject@@@std@@@std@@QAE?AV?$_Iterator@$00@12@V?$_Const_iterator@$00@12@@Z 0041f940 f i DrawHierarchicalSymbol.obj
 0001:0001e940       ?erase@?$list@PAVCLibraryStore@@V?$allocator@PAVCLibraryStore@@@std@@@std@@QAE?AV?$_Iterator@$00@12@V?$_Const_iterator@$00@12@@Z 0041f940 f i LibraryCollection.obj
 0001:0001e940       ?erase@?$list@VCDocUndoAction@CDocUndoSet@@V?$allocator@VCDocUndoAction@CDocUndoSet@@@std@@@std@@QAE?AV?$_Iterator@$00@12@V?$_Const_iterator@$00@12@@Z 0041f940 f i TinyCadDoc.obj
 0001:0001e9c0       ?clearSymbol@CDrawHierarchicalSymbol@@IAEXXZ 0041f9c0 f   DrawHierarchicalSymbol.obj
 0001:0001ea80       ?destroy@?$allocator@UCField@CDrawMethod@@@std@@QAEXPAUCField@CDrawMethod@@@Z 0041fa80 f i DrawHierarchicalSymbol.obj
 0001:0001ead0       ??$_Uninit_copy@PAUCField@CDrawMethod@@PAU12@V?$allocator@UCField@CDrawMethod@@@std@@@std@@YAPAUCField@CDrawMethod@@PAU12@00AAV?$allocator@UCField@CDrawMethod@@@0@U_Nonscalar_ptr_iterator_tag@0@U_Range_checked_iterator_tag@0@@Z 0041fad0 f i DrawHierarchicalSymbol.obj
 0001:0001eb80       ??$_Destroy_range@V?$allocator@UCField@CDrawMethod@@@std@@@std@@YAXPAUCField@CDrawMethod@@0AAV?$allocator@UCField@CDrawMethod@@@0@U_Nonscalar_ptr_iterator_tag@0@@Z 0041fb80 f i DrawHierarchicalSymbol.obj
 0001:0001ebe0       ??$_Uninit_fill_n@PAUCField@CDrawMethod@@IU12@V?$allocator@UCField@CDrawMethod@@@std@@@std@@YAXPAUCField@CDrawMethod@@IABU12@AAV?$allocator@UCField@CDrawMethod@@@0@U_Nonscalar_ptr_iterator_tag@0@U_Range_checked_iterator_tag@0@@Z 0041fbe0 f i DrawHierarchicalSymbol.obj
 0001:0001ec80       ??$_Copy_opt@PAUCField@CDrawMethod@@PAU12@Uforward_iterator_tag@std@@@std@@YAPAUCField@CDrawMethod@@PAU12@00Uforward_iterator_tag@0@U_Nonscalar_ptr_iterator_tag@0@U_Range_checked_iterator_tag@0@@Z 0041fc80 f i DrawHierarchicalSymbol.obj
 0001:0001ecf0       ??$_Copy_backward_opt@PAUCField@CDrawMethod@@PAU12@Uforward_iterator_tag@std@@@std@@YAPAUCField@CDrawMethod@@PAU12@00Uforward_iterator_tag@0@U_Nonscalar_ptr_iterator_tag@0@U_Range_checked_iterator_tag@0@@Z 0041fcf0 f i DrawHierarchicalSymbol.obj
 0001:0001ed60       ??$_Ucopy@PAUCField@CDrawMethod@@@?$vector@UCField@CDrawMethod@@V?$allocator@UCField@CDrawMethod@@@std@@@std@@IAEPAUCField@CDrawMethod@@PAU23@00@Z 0041fd60 f i DrawHierarchicalSymbol.obj
 0001:0001ed60       ??$_Umove@PAUCField@CDrawMethod@@@?$vector@UCField@CDrawMethod@@V?$allocator@UCField@CDrawMethod@@@std@@@std@@IAEPAUCField@CDrawMethod@@PAU23@00@Z 0041fd60 f i DrawHierarchicalSymbol.obj
 0001:0001ed90       ??$_Fill@PAUCField@CDrawMethod@@U12@@std@@YAXPAUCField@CDrawMethod@@0ABU12@@Z 0041fd90 f i DrawHierarchicalSymbol.obj
 0001:0001edf0       ?_Incsize@?$list@PAVCLibraryStore@@V?$allocator@PAVCLibraryStore@@@std@@@std@@IAEXI@Z 0041fdf0 f i LibraryCollection.obj
 0001:0001edf0       ?_Incsize@?$list@PAVCDrawingObject@@V?$allocator@PAVCDrawingObject@@@std@@@std@@IAEXI@Z 0041fdf0 f i DrawHierarchicalSymbol.obj
 0001:0001ee90       ?_Destroy@?$vector@UCField@CDrawMethod@@V?$allocator@UCField@CDrawMethod@@@std@@@std@@IAEXPAUCField@CDrawMethod@@0@Z 0041fe90 f i DrawHierarchicalSymbol.obj
 0001:0001eeb0       ?_Ufill@?$vector@UCField@CDrawMethod@@V?$allocator@UCField@CDrawMethod@@@std@@@std@@IAEPAUCField@CDrawMethod@@PAU34@IABU34@@Z 0041feb0 f i DrawHierarchicalSymbol.obj
 0001:0001eef0       ??$unchecked_copy@PAUCField@CDrawMethod@@PAU12@@stdext@@YAPAUCField@CDrawMethod@@PAU12@00@Z 0041fef0 f i DrawHierarchicalSymbol.obj
 0001:0001ef40       ??1?$vector@UCField@CDrawMethod@@V?$allocator@UCField@CDrawMethod@@@std@@@std@@QAE@XZ 0041ff40 f i DrawHierarchicalSymbol.obj
 0001:0001efc0       ?_Buy@?$vector@UCField@CDrawMethod@@V?$allocator@UCField@CDrawMethod@@@std@@@std@@IAE_NI@Z 0041ffc0 f i DrawHierarchicalSymbol.obj
 0001:0001f010       ?erase@?$vector@UCField@CDrawMethod@@V?$allocator@UCField@CDrawMethod@@@std@@@std@@QAE?AV?$_Vector_iterator@UCField@CDrawMethod@@V?$allocator@UCField@CDrawMethod@@@std@@@2@V?$_Vector_const_iterator@UCField@CDrawMethod@@V?$allocator@UCField@CDrawMethod@@@std@@@2@0@Z 00420010 f i DrawHierarchicalSymbol.obj
 0001:0001f0a0       ??$_Unchecked_move_backward@PAUCField@CDrawMethod@@PAU12@@stdext@@YAPAUCField@CDrawMethod@@PAU12@00@Z 004200a0 f i DrawHierarchicalSymbol.obj
 0001:0001f0f0       ??$_Insert@V?$_Const_iterator@$00@?$list@PAVCDrawingObject@@V?$allocator@PAVCDrawingObject@@@std@@@std@@@?$list@PAVCDrawingObject@@V?$allocator@PAVCDrawingObject@@@std@@@std@@QAEXV?$_Const_iterator@$00@01@00Uforward_iterator_tag@1@@Z 004200f0 f i DrawHierarchicalSymbol.obj
 0001:0001f0f0       ??$_Insert@V?$_Iterator@$00@?$list@PAVCDrawingObject@@V?$allocator@PAVCDrawingObject@@@std@@@std@@@?$list@PAVCDrawingObject@@V?$allocator@PAVCDrawingObject@@@std@@@std@@QAEXV?$_Const_iterator@$00@01@V?$_Iterator@$00@01@1Uforward_iterator_tag@1@@Z 004200f0 f i Io.obj
 0001:0001f250       ??1CDrawMethod@@UAE@XZ     00420250 f i DrawHierarchicalSymbol.obj
 0001:0001f2b0       ?getMenuID@CDrawMethod@@UAEHXZ 004202b0 f i DrawHierarchicalSymbol.obj
 0001:0001f2c0       ??_GCDrawMethod@@UAEPAXI@Z 004202c0 f i DrawHierarchicalSymbol.obj
 0001:0001f2c0       ??_ECDrawMethod@@UAEPAXI@Z 004202c0 f i DrawHierarchicalSymbol.obj
 0001:0001f2e0       ??0CDrawHierarchicalSymbol@@QAE@PAVCTinyCadDoc@@@Z 004202e0 f   DrawHierarchicalSymbol.obj
 0001:0001f390       ??1CDrawHierarchicalSymbol@@UAE@XZ 00420390 f   DrawHierarchicalSymbol.obj
 0001:0001f430       ?clear@?$vector@UCField@CDrawMethod@@V?$allocator@UCField@CDrawMethod@@@std@@@std@@QAEXXZ 00420430 f i DrawHierarchicalSymbol.obj
 0001:0001f470       ?_Insert_n@?$vector@UCField@CDrawMethod@@V?$allocator@UCField@CDrawMethod@@@std@@@std@@IAEXV?$_Vector_const_iterator@UCField@CDrawMethod@@V?$allocator@UCField@CDrawMethod@@@std@@@2@IABUCField@CDrawMethod@@@Z 00420470 f i DrawHierarchicalSymbol.obj
 0001:0001f700       ??_GCDrawHierarchicalSymbol@@UAEPAXI@Z 00420700 f i DrawHierarchicalSymbol.obj
 0001:0001f700       ??_ECDrawHierarchicalSymbol@@UAEPAXI@Z 00420700 f i DrawHierarchicalSymbol.obj
 0001:0001f720       ??4?$vector@UCField@CDrawMethod@@V?$allocator@UCField@CDrawMethod@@@std@@@std@@QAEAAV01@ABV01@@Z 00420720 f i DrawHierarchicalSymbol.obj
 0001:0001f830       ?resize@?$vector@UCField@CDrawMethod@@V?$allocator@UCField@CDrawMethod@@@std@@@std@@QAEXIUCField@CDrawMethod@@@Z 00420830 f i DrawHierarchicalSymbol.obj
 0001:0001f950       ??$_Assign@V?$_Const_iterator@$00@?$list@PAVCDrawingObject@@V?$allocator@PAVCDrawingObject@@@std@@@std@@@?$list@PAVCDrawingObject@@V?$allocator@PAVCDrawingObject@@@std@@@std@@QAEXV?$_Const_iterator@$00@01@0Uinput_iterator_tag@1@@Z 00420950 f i DrawHierarchicalSymbol.obj
 0001:0001f9b0       ??4CDrawHierarchicalSymbol@@QAEAAV0@ABV0@@Z 004209b0 f   DrawHierarchicalSymbol.obj
 0001:0001fa50       ?SetFilenameField@CDrawHierarchicalSymbol@@IAEXXZ 00420a50 f   DrawHierarchicalSymbol.obj
 0001:0001fb90       ?Load@CDrawHierarchicalSymbol@@QAEHPB_W@Z 00420b90 f   DrawHierarchicalSymbol.obj
 0001:000203b0       ?IsNoSymbol@CDrawHierarchicalSymbol@@UAEHXZ 004213b0 f   DrawHierarchicalSymbol.obj
 0001:000203d0       ?SelectFile@CDrawHierarchicalSymbol@@QAEHXZ 004213d0 f   DrawHierarchicalSymbol.obj
 0001:00020500       ?Store@CDrawHierarchicalSymbol@@UAEPAVCDrawingObject@@XZ 00421500 f   DrawHierarchicalSymbol.obj
 0001:00020580       ?LoadXML@CDrawHierarchicalSymbol@@UAEXAAVCXMLReader@@@Z 00421580 f   DrawHierarchicalSymbol.obj
 0001:00020840       ?ContextMenu@CDrawHierarchicalSymbol@@UAEXVCDPoint@@I@Z 00421840 f   DrawHierarchicalSymbol.obj
 0001:00020940       ?ExtractSymbol@CDrawHierarchicalSymbol@@UAEHAAVCDPoint@@AAV?$list@PAVCDrawingObject@@V?$allocator@PAVCDrawingObject@@@std@@@std@@@Z 00421940 f   DrawHierarchicalSymbol.obj
 0001:00020a00       ??0CDrawingObject@@QAE@PAVCTinyCadDoc@@@Z 00421a00 f   DrawingObject.obj
 0001:00020a40       ?IsEditLibrary@CTinyCadDoc@@UAEHXZ 00421a40 f   TinyCadDoc.obj
 0001:00020a40       ?GetActiveSheetIndex@CMultiSheetDoc@@UAEHXZ 00421a40 f   MultiSheetDoc.obj
 0001:00020a40       ?GetOrientation@CStream@@UAEHXZ 00421a40 f   Stream.obj
 0001:00020a40       ?IsConstruction@CDrawingObject@@UAEHXZ 00421a40 f   DrawingObject.obj
 0001:00020a40       ?GetNumberOfSheets@CMultiSheetDoc@@UAEHXZ 00421a40 f   MultiSheetDoc.obj
 0001:00020a40       ?CanControlAspect@CDrawLine@@UAEHXZ 00421a40 f   DrawLine.obj
 0001:00020a40       ?Store@CDrawingObject@@UAEPAV1@XZ 00421a40 f   DrawingObject.obj
 0001:00020a40       ?MustUpgrade@CLibraryDb@@UAEHXZ 00421a40 f   LibraryDb.obj
 0001:00020a40       ?CanEdit@CDrawingObject@@UAEHXZ 00421a40 f   DrawingObject.obj
 0001:00020a50       ?MoveField@CDrawingObject@@UAEXHVCDPoint@@@Z 00421a50 f   DrawingObject.obj
 0001:00020a50       ?ContextMenu@CDrawingObject@@UAEXVCDPoint@@I@Z 00421a50 f   DrawingObject.obj
 0001:00020a60       ?LButtonDown@CDrawingObject@@UAEXVCDPoint@@0@Z 00421a60 f   DrawingObject.obj
 0001:00020af0       ?Move@CDrawingObject@@UAEXVCDPoint@@0@Z 00421af0 f   DrawingObject.obj
 0001:00020b30       ?RButtonDown@CDrawingObject@@UAEHVCDPoint@@0@Z 00421b30 f   DrawingObject.obj
 0001:00020b40       ?EndEdit@CDrawingObject@@UAEXXZ 00421b40 f   DrawingObject.obj
 0001:00020b50       ?GetType@CDrawingObject@@UAE?AW4ObjType@@XZ 00421b50 f   DrawingObject.obj
 0001:00020b60       ?Display@CDrawingObject@@UAEXH@Z 00421b60 f   DrawingObject.obj
 0001:00020bf0       ?DistanceFromPoint@CDrawingObject@@UAENVCDPoint@@@Z 00421bf0 f   DrawingObject.obj
 0001:00020c30       ?IsInside@CDrawingObject@@UAEHNNNN@Z 00421c30 f   DrawingObject.obj
 0001:00020cb0       ?Rotate@CDrawingObject@@UAEXVCDPoint@@H@Z 00421cb0 f   DrawingObject.obj
 0001:00020d70       ?IsInsideField@CDrawingObject@@UAEHVCDPoint@@@Z 00421d70 f   DrawingObject.obj
 0001:00020d70       ?SetCursor@CDrawingObject@@UAEHVCDPoint@@@Z 00421d70 f   DrawingObject.obj
 0001:00020d80       ?SetCursorEdit@CDrawingObject@@UAEHVCDPoint@@@Z 00421d80 f   DrawingObject.obj
 0001:00020db0       ?LButtonUp@CDrawPolygon@@UAEXVCDPoint@@@Z 00421db0 f   Polygon.obj
 0001:00020db0       ?LButtonUp@CDrawingObject@@UAEXVCDPoint@@@Z 00421db0 f   DrawingObject.obj
 0001:00020db0       ?FinishDrawing@CDrawingObject@@UAEXVCDPoint@@@Z 00421db0 f   DrawingObject.obj
 0001:00020dc0       ?GetContextMenu@CDrawingObject@@UAEHXZ 00421dc0 f   DrawingObject.obj
 0001:00020dd0       ?IsLibInUse@CTinyCadDoc@@UAE_NPAVCLibraryStore@@@Z 00421dd0 f   TinyCadDoc.obj
 0001:00020dd0       ?GetActive@CDrawingObject@@UAE_NAAVCActiveNode@@@Z 00421dd0 f   DrawingObject.obj
 0001:00020dd0       ?IsLibInUse@CMultiSheetDoc@@UAE_NPAVCLibraryStore@@@Z 00421dd0 f   MultiSheetDoc.obj
 0001:00020dd0       ?Comparex@CDocResource@@UBE_NPBV1@@Z 00421dd0 f   DocResource.obj
 0001:00020de0       ?Shift@CDrawingObject@@UAEXVCDPoint@@@Z 00421de0 f   DrawingObject.obj
 0001:00020e10       ?ReadPoint@CDrawingObject@@QAE?AVCDPoint@@AAVCStream@@@Z 00421e10 f   DrawingObject.obj
 0001:00020e40       ?Load@CDrawingObject@@UAEXAAVCStream@@@Z 00421e40 f   DrawingObject.obj
 0001:00020e90       ?Find@CDrawingObject@@UAE?AV?$CStringT@_WV?$StrTraitMFC@_WV?$ChTraitsCRT@_W@ATL@@@@@ATL@@PB_W@Z 00421e90 f   DrawingObject.obj
 0001:00020ec0       ?GetName@CDrawingObject@@UBE?AV?$CStringT@_WV?$StrTraitMFC@_WV?$ChTraitsCRT@_W@ATL@@@@@ATL@@XZ 00421ec0 f   DrawingObject.obj
 0001:00020ef0       ??0CDrawJunction@@QAE@PAVCTinyCadDoc@@@Z 00421ef0 f   DrawJunction.obj
 0001:00020f30       ?getMenuID@CDrawJunction@@UAEHXZ 00421f30 f i DrawJunction.obj
 0001:00020f40       ?Load@CDrawNoConnect@@UAEXAAVCStream@@@Z 00421f40 f   DrawNoConnect.obj
 0001:00020f40       ?Load@CDrawJunction@@UAEXAAVCStream@@@Z 00421f40 f   DrawJunction.obj
 0001:00020f90       ?GetXMLTag@CDrawJunction@@SAPB_WXZ 00421f90 f   DrawJunction.obj
 0001:00020fa0       ?IsInside@CDrawJunction@@UAEHNNNN@Z 00421fa0 f   DrawJunction.obj
 0001:00020fa0       ?IsInside@CDrawNoConnect@@UAEHNNNN@Z 00421fa0 f   DrawNoConnect.obj
 0001:00020ff0       ?GetType@CDrawJunction@@UAE?AW4ObjType@@XZ 00421ff0 f   DrawJunction.obj
 0001:00021000       ?Move@CDrawJunction@@UAEXVCDPoint@@0@Z 00422000 f   DrawJunction.obj
 0001:000210a0       ?LButtonDown@CDrawJunction@@UAEXVCDPoint@@0@Z 004220a0 f   DrawJunction.obj
 0001:00021150       ?Display@CDrawJunction@@UAEXH@Z 00422150 f   DrawJunction.obj
 0001:00021220       ?DistanceFromPoint@CDrawJunction@@UAENVCDPoint@@@Z 00422220 f   DrawJunction.obj
 0001:00021260       ?Paint@CDrawJunction@@UAEXAAVCContext@@W4paint_options@@@Z 00422260 f   DrawJunction.obj
 0001:000213c0       ?Store@CDrawJunction@@UAEPAVCDrawingObject@@XZ 004223c0 f   DrawJunction.obj
 0001:000214a0       ?SaveXML@CDrawJunction@@UAEXAAVCXMLWriter@@@Z 004224a0 f   DrawJunction.obj
 0001:000214f0       ?LoadXML@CDrawJunction@@UAEXAAVCXMLReader@@@Z 004224f0 f   DrawJunction.obj
 0001:000214f0       ?LoadXML@CDrawNoConnect@@UAEXAAVCXMLReader@@@Z 004224f0 f   DrawNoConnect.obj
 0001:00021530       ?GetName@CDrawJunction@@UBE?AV?$CStringT@_WV?$StrTraitMFC@_WV?$ChTraitsCRT@_W@ATL@@@@@ATL@@XZ 00422530 f   DrawJunction.obj
 0001:00021560       ??1CDrawingObject@@UAE@XZ  00422560 f i DrawBlockDrag.obj
 0001:00021560       ??1CDrawRectOutline@@UAE@XZ 00422560 f i DrawLabel.obj
 0001:00021570       ?TagResources@CDrawLabel@@UAEXXZ 00422570 f   DrawLabel.obj
 0001:00021570       ?TagResources@CDrawText@@UAEXXZ 00422570 f   DrawText.obj
 0001:00021590       ?getMenuID@CDrawLabel@@UAEHXZ 00422590 f   DrawLabel.obj
 0001:000215a0       ?GetXMLTag@CDrawLabel@@SAPB_WXZ 004225a0 f   DrawLabel.obj
 0001:000215b0       ?GetType@CDrawLabel@@UAE?AW4ObjType@@XZ 004225b0 f   DrawLabel.obj
 0001:000215c0       ?SetScalingWidths@CDrawLabel@@AAEXXZ 004225c0 f   DrawLabel.obj
 0001:00021610       ?EndEdit@CDrawLabel@@UAEXXZ 00422610 f   DrawLabel.obj
 0001:00021640       ?Display@CDrawLabel@@UAEXH@Z 00422640 f   DrawLabel.obj
 0001:00021710       ?Rotate@CDrawLabel@@UAEXVCDPoint@@H@Z 00422710 f   DrawLabel.obj
 0001:00021890       ?GetActive@CDrawLabel@@UAE_NAAVCActiveNode@@@Z 00422890 f   DrawLabel.obj
 0001:000218d0       ?IsInsideField@CDrawLabel@@UAEHVCDPoint@@@Z 004228d0 f   DrawLabel.obj
 0001:00021910       ?CalcLayout@CDrawLabel@@AAEXXZ 00422910 f   DrawLabel.obj
 0001:00021b80       ?FindOneOf@?$CStringT@_WV?$StrTraitMFC@_WV?$ChTraitsCRT@_W@ATL@@@@@ATL@@QBEHPB_W@Z 00422b80 f i DrawLabel.obj
 0001:00021bb0       ?_Dec@const_iterator@?$_Tree@V?$_Tmap_traits@HHU?$less@H@std@@V?$allocator@U?$pair@$$CBHH@std@@@2@$0A@@std@@@std@@QAEXXZ 00422bb0 f i DlgColours.obj
 0001:00021bb0       ?_Dec@const_iterator@?$_Tree@V?$_Tmap_traits@W4ObjType@@FU?$less@W4ObjType@@@std@@V?$allocator@U?$pair@$$CBW4ObjType@@F@std@@@3@$0A@@std@@@std@@QAEXXZ 00422bb0 f i DrawLabel.obj
 0001:00021bb0       ?_Dec@const_iterator@?$_Tree@V?$_Tmap_traits@V?$CStringT@_WV?$StrTraitMFC@_WV?$ChTraitsCRT@_W@ATL@@@@@ATL@@V12@U?$less@V?$CStringT@_WV?$StrTraitMFC@_WV?$ChTraitsCRT@_W@ATL@@@@@ATL@@@std@@V?$allocator@U?$pair@$$CBV?$CStringT@_WV?$StrTraitMFC@_WV?$ChTraitsCRT@_W@ATL@@@@@ATL@@V12@@std@@@4@$0A@@std@@@std@@QAEXXZ 00422bb0 f i xml_parse_tag.obj
 0001:00021bb0       ?_Dec@const_iterator@?$_Tree@V?$_Tmap_traits@HKU?$less@H@std@@V?$allocator@U?$pair@$$CBHK@std@@@2@$0A@@std@@@std@@QAEXXZ 00422bb0 f i UserColor.obj
 0001:00021bb0       ?_Dec@const_iterator@?$_Tree@V?$_Tmap_traits@HV?$CStringT@_WV?$StrTraitMFC@_WV?$ChTraitsCRT@_W@ATL@@@@@ATL@@U?$less@H@std@@V?$allocator@U?$pair@$$CBHV?$CStringT@_WV?$StrTraitMFC@_WV?$ChTraitsCRT@_W@ATL@@@@@ATL@@@std@@@4@$0A@@std@@@std@@QAEXXZ 00422bb0 f i NetList.obj
 0001:00021bb0       ?_Dec@const_iterator@?$_Tree@V?$_Tmap_traits@V?$CStringT@_WV?$StrTraitMFC@_WV?$ChTraitsCRT@_W@ATL@@@@@ATL@@HU?$less@V?$CStringT@_WV?$StrTraitMFC@_WV?$ChTraitsCRT@_W@ATL@@@@@ATL@@@std@@V?$allocator@U?$pair@$$CBV?$CStringT@_WV?$StrTraitMFC@_WV?$ChTraitsCRT@_W@ATL@@@@@ATL@@H@std@@@4@$0A@@std@@@std@@QAEXXZ 00422bb0 f i Library.obj
 0001:00021c40       ?NewOptions@CDrawLabel@@UAEXXZ 00422c40 f   DrawLabel.obj
 0001:00021c90       ?Load@CDrawLabel@@UAEXAAVCStream@@W4ObjType@@@Z 00422c90 f   DrawLabel.obj
 0001:00021e30       ?Shift@CDrawLabel@@UAEXVCDPoint@@@Z 00422e30 f   DrawLabel.obj
 0001:00021e70       ?Move@CDrawLabel@@UAEXVCDPoint@@0@Z 00422e70 f   DrawLabel.obj
 0001:00021f00       ?MoveField@CDrawLabel@@UAEXHVCDPoint@@@Z 00422f00 f   DrawLabel.obj
 0001:00022170       ??$addAttribute@K@CXMLWriter@@QAEXPB_WK@Z 00423170 f i DrawLabel.obj
 0001:00022200       ?SaveXML@CDrawLabel@@UAEXAAVCXMLWriter@@@Z 00423200 f   DrawLabel.obj
 0001:000222b0       ??0CDrawLabel@@QAE@PAVCTinyCadDoc@@@Z 004232b0 f   DrawLabel.obj
 0001:000223c0       ?GetLabelPoint@CDrawLabel@@UAE?AVCDPoint@@XZ 004233c0 f i DrawLabel.obj
 0001:000223e0       ??_ECDrawLabel@@UAEPAXI@Z  004233e0 f i DrawLabel.obj
 0001:000223e0       ??_GCDrawLabel@@UAEPAXI@Z  004233e0 f i DrawLabel.obj
 0001:00022460       ?Paint@CDrawLabel@@UAEXAAVCContext@@W4paint_options@@@Z 00423460 f   DrawLabel.obj
 0001:00022e30       ??$getAttribute@K@CXMLReader@@QAE_NPB_WAAK@Z 00423e30 f i DrawLabel.obj
 0001:00022f40       ?LoadXML@CDrawLabel@@UAEXAAVCXMLReader@@@Z 00423f40 f   DrawLabel.obj
 0001:00022fe0       ??HATL@@YA?AV?$CStringT@_WV?$StrTraitMFC@_WV?$ChTraitsCRT@_W@ATL@@@@@0@ABV10@PB_W@Z 00423fe0 f i DrawLabel.obj
 0001:000230c0       ?Find@CDrawLabel@@UAE?AV?$CStringT@_WV?$StrTraitMFC@_WV?$ChTraitsCRT@_W@ATL@@@@@ATL@@PB_W@Z 004240c0 f   DrawLabel.obj
 0001:00023210       ?GetName@CDrawLabel@@UBE?AV?$CStringT@_WV?$StrTraitMFC@_WV?$ChTraitsCRT@_W@ATL@@@@@ATL@@XZ 00424210 f   DrawLabel.obj
 0001:00023240       ?LButtonDown@CDrawLabel@@UAEXVCDPoint@@0@Z 00424240 f   DrawLabel.obj
 0001:00023450       ??4CDrawLabel@@QAEAAV0@ABV0@@Z 00424450 f i DrawLabel.obj
 0001:00023530       ?Store@CDrawLabel@@UAEPAVCDrawingObject@@XZ 00424530 f   DrawLabel.obj
 0001:000235f0       ?_Insert@?$_Tree@V?$_Tmap_traits@HHU?$less@H@std@@V?$allocator@U?$pair@$$CBHH@std@@@2@$0A@@std@@@std@@IAE?AViterator@12@_NPAU_Node@?$_Tree_nod@V?$_Tmap_traits@HHU?$less@H@std@@V?$allocator@U?$pair@$$CBHH@std@@@2@$0A@@std@@@2@ABU?$pair@$$CBHH@2@@Z 004245f0 f i DlgColours.obj
 0001:000235f0       ?_Insert@?$_Tree@V?$_Tmap_traits@W4ObjType@@FU?$less@W4ObjType@@@std@@V?$allocator@U?$pair@$$CBW4ObjType@@F@std@@@3@$0A@@std@@@std@@IAE?AViterator@12@_NPAU_Node@?$_Tree_nod@V?$_Tmap_traits@W4ObjType@@FU?$less@W4ObjType@@@std@@V?$allocator@U?$pair@$$CBW4ObjType@@F@std@@@3@$0A@@std@@@2@ABU?$pair@$$CBW4ObjType@@F@2@@Z 004245f0 f i DrawLabel.obj
 0001:000235f0       ?_Insert@?$_Tree@V?$_Tmap_traits@HKU?$less@H@std@@V?$allocator@U?$pair@$$CBHK@std@@@2@$0A@@std@@@std@@IAE?AViterator@12@_NPAU_Node@?$_Tree_nod@V?$_Tmap_traits@HKU?$less@H@std@@V?$allocator@U?$pair@$$CBHK@std@@@2@$0A@@std@@@2@ABU?$pair@$$CBHK@2@@Z 004245f0 f i UserColor.obj
 0001:000237f0       ?insert@?$_Tree@V?$_Tmap_traits@HKU?$less@H@std@@V?$allocator@U?$pair@$$CBHK@std@@@2@$0A@@std@@@std@@QAE?AU?$pair@Viterator@?$_Tree@V?$_Tmap_traits@HKU?$less@H@std@@V?$allocator@U?$pair@$$CBHK@std@@@2@$0A@@std@@@std@@_N@2@ABU?$pair@$$CBHK@2@@Z 004247f0 f i UserColor.obj
 0001:000237f0       ?insert@?$_Tree@V?$_Tmap_traits@W4ObjType@@FU?$less@W4ObjType@@@std@@V?$allocator@U?$pair@$$CBW4ObjType@@F@std@@@3@$0A@@std@@@std@@QAE?AU?$pair@Viterator@?$_Tree@V?$_Tmap_traits@W4ObjType@@FU?$less@W4ObjType@@@std@@V?$allocator@U?$pair@$$CBW4ObjType@@F@std@@@3@$0A@@std@@@std@@_N@2@ABU?$pair@$$CBW4ObjType@@F@2@@Z 004247f0 f i DrawLabel.obj
 0001:000237f0       ?insert@?$_Tree@V?$_Tmap_traits@HHU?$less@H@std@@V?$allocator@U?$pair@$$CBHH@std@@@2@$0A@@std@@@std@@QAE?AU?$pair@Viterator@?$_Tree@V?$_Tmap_traits@HHU?$less@H@std@@V?$allocator@U?$pair@$$CBHH@std@@@2@$0A@@std@@@std@@_N@2@ABU?$pair@$$CBHH@2@@Z 004247f0 f i DlgColours.obj
 0001:000238e0       ??A?$map@W4ObjType@@FU?$less@W4ObjType@@@std@@V?$allocator@U?$pair@$$CBW4ObjType@@F@std@@@3@@std@@QAEAAFABW4ObjType@@@Z 004248e0 f i DrawLabel.obj
 0001:00023990       ?BeginEdit@CDrawLabel@@UAEXH@Z 00424990 f   DrawLabel.obj
 0001:000239e0       ?AddStyle@COption@@QAEFPAVLineStyle@@F@Z 004249e0 f i DrawLine.obj
 0001:00023a70       ??4CDrawLine@@QAEAAV0@ABV0@@Z 00424a70 f i DrawLine.obj
 0001:00023af0       ?TagResources@CDrawLine@@UAEXXZ 00424af0 f   DrawLine.obj
 0001:00023b20       ?GetXMLTag@CDrawLine@@SAPB_WW4ObjType@@@Z 00424b20 f   DrawLine.obj
 0001:00023b40       ?ToAngle@CDrawLine@@IAEXXZ 00424b40 f   DrawLine.obj
 0001:00023c20       ?RButtonDown@CDrawLine@@UAEHVCDPoint@@0@Z 00424c20 f   DrawLine.obj
 0001:00023d10       ?DblLButtonDown@CDrawLine@@UAEXVCDPoint@@0@Z 00424d10 f   DrawLine.obj
 0001:00023db0       ?LButtonUp@CDrawLine@@UAEXVCDPoint@@@Z 00424db0 f   DrawLine.obj
 0001:00023ee0       ?GetType@CDrawHierarchicalSymbol@@UAE?AW4ObjType@@XZ 00424ee0 f   DrawHierarchicalSymbol.obj
 0001:00023ee0       ?GetContextMenu@CDrawLine@@UAEHXZ 00424ee0 f   DrawLine.obj
 0001:00023ef0       ?ContextMenu@CDrawLine@@UAEXVCDPoint@@I@Z 00424ef0 f   DrawLine.obj
 0001:00024060       ?getMenuID@CDrawLine@@UAEHXZ 00425060 f   DrawLine.obj
 0001:00024080       ?GetStickyPoint@CDrawLine@@IAE?AVCDPoint@@V2@@Z 00425080 f   DrawLine.obj
 0001:000240f0       ?GetType@CDrawLine@@UAE?AW4ObjType@@XZ 004250f0 f   DrawLine.obj
 0001:00024100       ?Display@CDrawLine@@UAEXH@Z 00425100 f   DrawLine.obj
 0001:00024340       ?IsInsideField@CDrawLine@@UAEHVCDPoint@@@Z 00425340 f   DrawLine.obj
 0001:00024500       ?MoveField@CDrawLine@@UAEXHVCDPoint@@@Z 00425500 f   DrawLine.obj
 0001:00024730       ?SetCursorEdit@CDrawLine@@UAEHVCDPoint@@@Z 00425730 f   DrawLine.obj
 0001:000247a0       ?EndEdit@CDrawLine@@UAEXXZ 004257a0 f   DrawLine.obj
 0001:00024870       ?IsInside@CDrawLine@@UAEHNNNN@Z 00425870 f   DrawLine.obj
 0001:00024870       ?IsInside@CDrawBusSlash@@UAEHNNNN@Z 00425870 f   DrawBusSlash.obj
 0001:00024940       ?DistanceFromPoint@CDrawLine@@UAENVCDPoint@@@Z 00425940 f   DrawLine.obj
 0001:00024940       ?DistanceFromPoint@CDrawBusSlash@@UAENVCDPoint@@@Z 00425940 f   DrawBusSlash.obj
 0001:00024a20       ?Load@CDrawLine@@UAEXAAVCStream@@@Z 00425a20 f   DrawLine.obj
 0001:00024b80       ?Move@CDrawLine@@UAEXVCDPoint@@0@Z 00425b80 f   DrawLine.obj
 0001:00024cd0       ?PaintHandles@CDrawLine@@UAEXAAVCContext@@@Z 00425cd0 f   DrawLine.obj
 0001:00024db0       ?Paint@CDrawLine@@UAEXAAVCContext@@W4paint_options@@@Z 00425db0 f   DrawLine.obj
 0001:00025000       ?LButtonDown@CDrawLine@@UAEXVCDPoint@@0@Z 00426000 f   DrawLine.obj
 0001:00025400       ??$addAttribute@G@CXMLWriter@@QAEXPB_WG@Z 00426400 f i DrawLine.obj
 0001:00025490       ?SaveXML@CDrawLine@@UAEXAAVCXMLWriter@@@Z 00426490 f   DrawLine.obj
 0001:00025550       ??$getAttribute@G@CXMLReader@@QAE_NPB_WAAG@Z 00426550 f i DrawLine.obj
 0001:00025550       ??$getAttribute@F@CXMLReader@@QAE_NPB_WAAF@Z 00426550 f i DrawLabel.obj
 0001:00025660       ?LoadXML@CDrawLine@@UAEXAAVCXMLReader@@@Z 00426660 f   DrawLine.obj
 0001:00025700       ?GetName@CDrawLine@@UBE?AV?$CStringT@_WV?$StrTraitMFC@_WV?$ChTraitsCRT@_W@ATL@@@@@ATL@@XZ 00426700 f   DrawLine.obj
 0001:00025750       ??0CDrawLine@@QAE@PAVCTinyCadDoc@@W4ObjType@@@Z 00426750 f   DrawLine.obj
 0001:00025880       ??1CDrawLine@@UAE@XZ       00426880 f i DrawLine.obj
 0001:000258e0       ??_ECDrawLine@@UAEPAXI@Z   004268e0 f i DrawLine.obj
 0001:000258e0       ??_GCDrawLine@@UAEPAXI@Z   004268e0 f i DrawLine.obj
 0001:00025900       ?NewOptions@CDrawLine@@UAEXXZ 00426900 f   DrawLine.obj
 0001:00025b70       ?Store@CDrawLine@@UAEPAVCDrawingObject@@XZ 00426b70 f   DrawLine.obj
 0001:00025c10       ?BeginEdit@CDrawLine@@UAEXH@Z 00426c10 f   DrawLine.obj
 0001:00025d20       ?AddMetaFile@COption@@QAEFPAVCImage@@F@Z 00426d20 f i DrawMetafile.obj
 0001:00025da0       ??0CDrawMetaFile@@QAE@PAVCTinyCadDoc@@@Z 00426da0 f   DrawMetafile.obj
 0001:00025de0       ?getMenuID@CDrawMetaFile@@UAEHXZ 00426de0 f i DrawMetafile.obj
 0001:00025df0       ?setMetaFile@CDrawMetaFile@@QAEXPAUHENHMETAFILE__@@@Z 00426df0 f   DrawMetafile.obj
 0001:00025ee0       ?setBitmap@CDrawMetaFile@@QAE_NAAVCBitmap@@@Z 00426ee0 f   DrawMetafile.obj
 0001:00025f70       ?setImageFile@CDrawMetaFile@@QAE_NPB_W@Z 00426f70 f   DrawMetafile.obj
 0001:000261d0       ?determineSize@CDrawMetaFile@@QAEXAAVCDC@@@Z 004271d0 f   DrawMetafile.obj
 0001:00026280       ?GetType@CDrawMetaFile@@UAE?AW4ObjType@@XZ 00427280 f   DrawMetafile.obj
 0001:00026290       ?TagResources@CDrawMetaFile@@UAEXXZ 00427290 f   DrawMetafile.obj
 0001:000262b0       ?RButtonDown@CDrawMetaFile@@UAEHVCDPoint@@0@Z 004272b0 f   DrawMetafile.obj
 0001:000262b0       ?RButtonDown@CDrawSquare@@UAEHVCDPoint@@0@Z 004272b0 f   DrawSquare.obj
 0001:000262e0       ?GetXMLTag@CDrawMetaFile@@SAPB_WXZ 004272e0 f   DrawMetafile.obj
 0001:000262f0       ?Paint@CDrawMetaFile@@UAEXAAVCContext@@W4paint_options@@@Z 004272f0 f   DrawMetafile.obj
 0001:00026400       ??_ECDrawingObject@@UAEPAXI@Z 00427400 f i DrawBlockDrag.obj
 0001:00026400       ??_ECDrawRuler@@UAEPAXI@Z  00427400 f i DrawRuler.obj
 0001:00026400       ??_GCDrawBusSlash@@UAEPAXI@Z 00427400 f i DrawBusSlash.obj
 0001:00026400       ??_GCDrawBlockRotate@@UAEPAXI@Z 00427400 f i DrawBlockRotate.obj
 0001:00026400       ??_GCDrawJunction@@UAEPAXI@Z 00427400 f i DrawJunction.obj
 0001:00026400       ??_ECDrawRefPainter@@UAEPAXI@Z 00427400 f i Special.obj
 0001:00026400       ??_GCDrawError@@UAEPAXI@Z  00427400 f i DrawError.obj
 0001:00026400       ??_GCDrawBlockImport@@UAEPAXI@Z 00427400 f i DrawBlockImport.obj
 0001:00026400       ??_GCDrawRefPainter@@UAEPAXI@Z 00427400 f i Special.obj
 0001:00026400       ??_GCDrawSquare@@UAEPAXI@Z 00427400 f i DrawSquare.obj
 0001:00026400       ??_ECDrawBlockDup@@UAEPAXI@Z 00427400 f i DrawBlockDup.obj
 0001:00026400       ??_GCDrawBlockMove@@UAEPAXI@Z 00427400 f i DrawBlockMove.obj
 0001:00026400       ??_ECDrawBlockMove@@UAEPAXI@Z 00427400 f i DrawBlockMove.obj
 0001:00026400       ??_ECDrawCentre@@UAEPAXI@Z 00427400 f i TinyCadView.obj
 0001:00026400       ??_ECDrawBusSlash@@UAEPAXI@Z 00427400 f i DrawBusSlash.obj
 0001:00026400       ??_GCDrawBlockDup@@UAEPAXI@Z 00427400 f i DrawBlockDup.obj
 0001:00026400       ??_ECDrawBlockImport@@UAEPAXI@Z 00427400 f i DrawBlockImport.obj
 0001:00026400       ??_ECDrawSquare@@UAEPAXI@Z 00427400 f i DrawSquare.obj
 0001:00026400       ??_ECDrawNoConnect@@UAEPAXI@Z 00427400 f i DrawNoConnect.obj
 0001:00026400       ??_ECDrawBlockRotate@@UAEPAXI@Z 00427400 f i DrawBlockRotate.obj
 0001:00026400       ??_GCDrawRuler@@UAEPAXI@Z  00427400 f i DrawRuler.obj
 0001:00026400       ??_GCDrawCentre@@UAEPAXI@Z 00427400 f i TinyCadView.obj
 0001:00026400       ??_GCDrawNoConnect@@UAEPAXI@Z 00427400 f i DrawNoConnect.obj
 0001:00026400       ??_ECDrawJunction@@UAEPAXI@Z 00427400 f i DrawJunction.obj
 0001:00026400       ??_ECDrawError@@UAEPAXI@Z  00427400 f i DrawError.obj
 0001:00026400       ??_GCDrawMetaFile@@UAEPAXI@Z 00427400 f i DrawMetafile.obj
 0001:00026400       ??_GCDrawingObject@@UAEPAXI@Z 00427400 f i DrawBlockDrag.obj
 0001:00026400       ??_ECDrawMetaFile@@UAEPAXI@Z 00427400 f i DrawMetafile.obj
 0001:00026420       ?Load@CDrawMetaFile@@UAEXAAVCStream@@@Z 00427420 f   DrawMetafile.obj
 0001:000264b0       ?Store@CDrawMetaFile@@UAEPAVCDrawingObject@@XZ 004274b0 f   DrawMetafile.obj
 0001:000265a0       ?SaveXML@CDrawMetaFile@@UAEXAAVCXMLWriter@@@Z 004275a0 f   DrawMetafile.obj
 0001:00026630       ?LoadXML@CDrawMetaFile@@UAEXAAVCXMLReader@@@Z 00427630 f   DrawMetafile.obj
 0001:00026690       ?GetName@CDrawMetaFile@@UBE?AV?$CStringT@_WV?$StrTraitMFC@_WV?$ChTraitsCRT@_W@ATL@@@@@ATL@@XZ 00427690 f   DrawMetafile.obj
 0001:000266c0       ?AddSymbol@COption@@QAEFPAVCDesignFileSymbol@@F@Z 004276c0 f i DrawMethod.obj
 0001:00026740       ?GetContextMenu@CDrawMethod@@UAEHXZ 00427740 f   DrawMethod.obj
 0001:00026750       ?IsNoSymbol@CDrawMethod@@UAEHXZ 00427750 f   DrawMethod.obj
 0001:00026760       ?GetSymbolData@CDrawMethod@@QAEPAVCDesignFileSymbol@@XZ 00427760 f   DrawMethod.obj
 0001:00026790       ?BeginEdit@CDrawMethod@@UAEXH@Z 00427790 f   DrawMethod.obj
 0001:000267b0       ?EndEdit@CDrawMethod@@UAEXXZ 004277b0 f   DrawMethod.obj
 0001:000267e0       ?GetXMLTag@CDrawMethod@@SAPB_WXZ 004277e0 f   DrawMethod.obj
 0001:000267f0       ?GetType@CDrawMethod@@UAE?AW4ObjType@@XZ 004277f0 f   DrawMethod.obj
 0001:00026800       ?Move@CDrawMethod@@UAEXVCDPoint@@0@Z 00427800 f   DrawMethod.obj
 0001:00026880       ?LButtonDown@CDrawMethod@@UAEXVCDPoint@@0@Z 00427880 f   DrawMethod.obj
 0001:00026980       ?ScalePoint@CDrawMethod@@QAEXAAVCDPoint@@@Z 00427980 f   DrawMethod.obj
 0001:000269a0       ?PaintHandles@CDrawMethod@@UAEXAAVCContext@@@Z 004279a0 f   DrawMethod.obj
 0001:000269f0       ?NormalizeRect@CRect@@QAEXXZ 004279f0 f i DrawMethod.obj
 0001:00026a10       ?ExtractSymbol@CDrawMethod@@UAEHAAVCDPoint@@AAV?$list@PAVCDrawingObject@@V?$allocator@PAVCDrawingObject@@@std@@@std@@@Z 00427a10 f   DrawMethod.obj
 0001:00026b00       ?SetCursorEdit@CDrawMethod@@UAEHVCDPoint@@@Z 00427b00 f   DrawMethod.obj
 0001:00026c40       ?GetName@CDrawMethod@@UBE?AV?$CStringT@_WV?$StrTraitMFC@_WV?$ChTraitsCRT@_W@ATL@@@@@ATL@@XZ 00427c40 f   DrawMethod.obj
 0001:00026c90       ?GetFieldName@CDrawMethod@@QAE?AV?$CStringT@_WV?$StrTraitMFC@_WV?$ChTraitsCRT@_W@ATL@@@@@ATL@@H@Z 00427c90 f   DrawMethod.obj
 0001:00026ce0       ?SaveXML@CDrawMethod@@UAEXAAVCXMLWriter@@@Z 00427ce0 f   DrawMethod.obj
 0001:00026ec0       ?GetActiveListFirst@CDrawMethod@@UAEXAAVCActiveNode@@@Z 00427ec0 f   DrawMethod.obj
 0001:00026f90       ?GetActive@CDrawMethod@@UAE_NAAVCActiveNode@@@Z 00427f90 f   DrawMethod.obj
 0001:000270b0       ?Append@?$CSimpleStringT@_W$0A@@ATL@@QAEXPB_W@Z 004280b0 f i DrawMethod.obj
 0001:000270f0       ?Find@CDrawMethod@@UAE?AV?$CStringT@_WV?$StrTraitMFC@_WV?$ChTraitsCRT@_W@ATL@@@@@ATL@@PB_W@Z 004280f0 f   DrawMethod.obj
 0001:000272c0       ?GetRefVal@CDrawMethod@@QAEHXZ 004282c0 f   DrawMethod.obj
 0001:000273d0       ?SetRefVal@CDrawMethod@@UAEXH@Z 004283d0 f   DrawMethod.obj
 0001:00027560       ?AddReference@CDrawMethod@@QAEXH_N@Z 00428560 f   DrawMethod.obj
 0001:00027910       ?SetRef@CDrawMethod@@QAEXPB_W@Z 00428910 f i DrawMethod.obj
 0001:00027970       ?TagResources@CDrawMethod@@UAEXXZ 00428970 f   DrawMethod.obj
 0001:00027a80       ?DistanceFromPoint@CDrawMethod@@UAENVCDPoint@@@Z 00428a80 f   DrawMethod.obj
 0001:00027bc0       ?MoveField@CDrawMethod@@UAEXHVCDPoint@@@Z 00428bc0 f   DrawMethod.obj
 0001:00027e30       ?NewRotation@CDrawMethod@@IAEXXZ 00428e30 f   DrawMethod.obj
 0001:00028120       ?GetTr@CDrawMethod@@QAE?AVCDPoint@@XZ 00429120 f   DrawMethod.obj
 0001:000281b0       ?RemoveReference@CDrawMethod@@QAEXXZ 004291b0 f   DrawMethod.obj
 0001:00028210       ??Y?$CStringT@_WV?$StrTraitMFC@_WV?$ChTraitsCRT@_W@ATL@@@@@ATL@@QAEAAV01@PB_W@Z 00429210 f i DrawMethod.obj
 0001:00028250       ?Rotate@CDrawMethod@@UAEXVCDPoint@@H@Z 00429250 f   DrawMethod.obj
 0001:00028390       ?GetField@CDrawMethod@@QAE?AV?$CStringT@_WV?$StrTraitMFC@_WV?$ChTraitsCRT@_W@ATL@@@@@ATL@@H@Z 00429390 f   DrawMethod.obj
 0001:000284c0       ?GetSymbolByName@CDrawMethod@@IAEXPB_W@Z 004294c0 f   DrawMethod.obj
 0001:00028520       ?IsInside@CDrawMethod@@UAEHNNNN@Z 00429520 f   DrawMethod.obj
 0001:00028aa0       ?IsInsideField@CDrawMethod@@UAEHVCDPoint@@@Z 00429aa0 f   DrawMethod.obj
 0001:00028d70       ?Display@CDrawMethod@@UAEXH@Z 00429d70 f   DrawMethod.obj
 0001:00028f40       ?Paint@CDrawMethod@@UAEXAAVCContext@@W4paint_options@@@Z 00429f40 f   DrawMethod.obj
 0001:000292b0       ?erase@?$vector@UCField@CDrawMethod@@V?$allocator@UCField@CDrawMethod@@@std@@@std@@QAE?AV?$_Vector_iterator@UCField@CDrawMethod@@V?$allocator@UCField@CDrawMethod@@@std@@@2@V?$_Vector_const_iterator@UCField@CDrawMethod@@V?$allocator@UCField@CDrawMethod@@@std@@@2@@Z 0042a2b0 f i DrawMethod.obj
 0001:00029340       ?insert@?$vector@UCField@CDrawMethod@@V?$allocator@UCField@CDrawMethod@@@std@@@std@@QAE?AV?$_Vector_iterator@UCField@CDrawMethod@@V?$allocator@UCField@CDrawMethod@@@std@@@2@V?$_Vector_const_iterator@UCField@CDrawMethod@@V?$allocator@UCField@CDrawMethod@@@std@@@2@ABUCField@CDrawMethod@@@Z 0042a340 f i DrawMethod.obj
 0001:00029400       ??4CDrawMethod@@QAEAAV0@ABV0@@Z 0042a400 f i DrawMethod.obj
 0001:00029490       ?push_back@?$vector@UCField@CDrawMethod@@V?$allocator@UCField@CDrawMethod@@@std@@@std@@QAEXABUCField@CDrawMethod@@@Z 0042a490 f i DrawMethod.obj
 0001:00029510       ??0CDrawMethod@@QAE@PAVCTinyCadDoc@@FH@Z 0042a510 f   DrawMethod.obj
 0001:00029920       ?ReplaceSymbol@CDrawMethod@@QAEXFF_N@Z 0042a920 f   DrawMethod.obj
 0001:00029f70       ??0CDrawMethod@@QAE@PAVCTinyCadDoc@@@Z 0042af70 f   DrawMethod.obj
 0001:0002a230       ?OldLoad@CDrawMethod@@QAEXAAVCStream@@@Z 0042b230 f   DrawMethod.obj
 0001:0002a570       ?OldLoad2@CDrawMethod@@QAEXAAVCStream@@@Z 0042b570 f   DrawMethod.obj
 0001:0002a920       ?OldLoad3@CDrawMethod@@QAEXAAVCStream@@@Z 0042b920 f   DrawMethod.obj
 0001:0002b050       ?LoadXML@CDrawMethod@@UAEXAAVCXMLReader@@@Z 0042c050 f   DrawMethod.obj
 0001:0002b350       ?Load@CDrawMethod@@UAEXAAVCStream@@@Z 0042c350 f   DrawMethod.obj
 0001:0002b5e0       ?Store@CDrawMethod@@UAEPAVCDrawingObject@@XZ 0042c5e0 f   DrawMethod.obj
 0001:0002b660       ?ContextMenu@CDrawMethod@@UAEXVCDPoint@@I@Z 0042c660 f   DrawMethod.obj
 0001:0002b7d0       ??0CDrawNoConnect@@QAE@PAVCTinyCadDoc@@@Z 0042c7d0 f   DrawNoConnect.obj
 0001:0002b810       ?getMenuID@CDrawNoConnect@@UAEHXZ 0042c810 f i DrawNoConnect.obj
 0001:0002b820       ?GetXMLTag@CDrawNoConnect@@SAPB_WXZ 0042c820 f   DrawNoConnect.obj
 0001:0002b830       ?DistanceFromPoint@CDrawNoConnect@@UAENVCDPoint@@@Z 0042c830 f   DrawNoConnect.obj
 0001:0002b850       ?GetType@CDrawNoConnect@@UAE?AW4ObjType@@XZ 0042c850 f   DrawNoConnect.obj
 0001:0002b860       ?Move@CDrawNoConnect@@UAEXVCDPoint@@0@Z 0042c860 f   DrawNoConnect.obj
 0001:0002b900       ?LButtonDown@CDrawNoConnect@@UAEXVCDPoint@@0@Z 0042c900 f   DrawNoConnect.obj
 0001:0002b9b0       ?Display@CDrawNoConnect@@UAEXH@Z 0042c9b0 f   DrawNoConnect.obj
 0001:0002ba80       ?Paint@CDrawNoConnect@@UAEXAAVCContext@@W4paint_options@@@Z 0042ca80 f   DrawNoConnect.obj
 0001:0002bbc0       ?Store@CDrawNoConnect@@UAEPAVCDrawingObject@@XZ 0042cbc0 f   DrawNoConnect.obj
 0001:0002bca0       ?SaveXML@CDrawNoConnect@@UAEXAAVCXMLWriter@@@Z 0042cca0 f   DrawNoConnect.obj
 0001:0002bcf0       ?GetName@CDrawNoConnect@@UBE?AV?$CStringT@_WV?$StrTraitMFC@_WV?$ChTraitsCRT@_W@ATL@@@@@ATL@@XZ 0042ccf0 f   DrawNoConnect.obj
 0001:0002bd20       ?TagResources@CDrawPin@@UAEXXZ 0042cd20 f   DrawPin.obj
 0001:0002bd20       ?TagResources@CDrawPower@@UAEXXZ 0042cd20 f   Power.obj
 0001:0002bd40       ?GetXMLTag@CDrawPin@@SAPB_WXZ 0042cd40 f   DrawPin.obj
 0001:0002bd50       ?GetType@CDrawPin@@UAE?AW4ObjType@@XZ 0042cd50 f   DrawPin.obj
 0001:0002bd60       ?GetActivePoint@CDrawPin@@QAE?AVCDPoint@@PAVCDrawMethod@@@Z 0042cd60 f   DrawPin.obj
 0001:0002be70       ?BeginEdit@CDrawPin@@UAEXH@Z 0042ce70 f   DrawPin.obj
 0001:0002be90       ?IsInvisible@CDrawPin@@QAEHXZ 0042ce90 f   DrawPin.obj
 0001:0002bed0       ?IsHierarchicalPin@CDrawPin@@QAEHXZ 0042ced0 f   DrawPin.obj
 0001:0002bee0       ?EndEdit@CDrawPin@@UAEXXZ  0042cee0 f   DrawPin.obj
 0001:0002bf10       ?Rotate@CDrawPin@@UAEXVCDPoint@@H@Z 0042cf10 f   DrawPin.obj
 0001:0002bfe0       ?DetermineLayout@CDrawPin@@AAEXAAVCDPoint@@00000AAHH@Z 0042cfe0 f   DrawPin.obj
 0001:0002c830       ?Display@CDrawPin@@UAEXH@Z 0042d830 f   DrawPin.obj
 0001:0002cb50       ?DetermineSize@CDrawPin@@AAEXXZ 0042db50 f   DrawPin.obj
 0001:0002cd00       ?DistanceFromPoint@CDrawPin@@UAENVCDPoint@@@Z 0042dd00 f   DrawPin.obj
 0001:0002ce80       ?IsInside@CDrawPin@@UAEHNNNN@Z 0042de80 f   DrawPin.obj
 0001:0002cff0       ?Move@CDrawPin@@UAEXVCDPoint@@0@Z 0042dff0 f   DrawPin.obj
 0001:0002d040       ?ConvertPowerToNormal@CDrawPin@@QAEXXZ 0042e040 f   DrawPin.obj
 0001:0002d050       ?OldLoad@CDrawPin@@UAEXAAVCStream@@@Z 0042e050 f   DrawPin.obj
 0001:0002d130       ?Load@CDrawPin@@UAEXAAVCStream@@@Z 0042e130 f   DrawPin.obj
 0001:0002d210       ?SaveXML@CDrawPin@@UAEXAAVCXMLWriter@@@Z 0042e210 f   DrawPin.obj
 0001:0002d330       ??0CDrawPin@@QAE@PAVCTinyCadDoc@@@Z 0042e330 f   DrawPin.obj
 0001:0002d460       ?getMenuID@CDrawPin@@UAEHXZ 0042e460 f i DrawPin.obj
 0001:0002d470       ??1CDrawPin@@UAE@XZ        0042e470 f i DrawPin.obj
 0001:0002d4c0       ??_ECDrawPin@@UAEPAXI@Z    0042e4c0 f i DrawPin.obj
 0001:0002d4c0       ??_GCDrawPin@@UAEPAXI@Z    0042e4c0 f i DrawPin.obj
 0001:0002d4e0       ?Paint@CDrawPin@@UAEXAAVCContext@@W4paint_options@@@Z 0042e4e0 f   DrawPin.obj
 0001:0002dab0       ?LoadXML@CDrawPin@@UAEXAAVCXMLReader@@@Z 0042eab0 f   DrawPin.obj
 0001:0002dba0       ?LButtonDown@CDrawPin@@UAEXVCDPoint@@0@Z 0042eba0 f   DrawPin.obj
 0001:0002ddf0       ??4CDrawPin@@QAEAAV0@ABV0@@Z 0042edf0 f i DrawPin.obj
 0001:0002de90       ?Store@CDrawPin@@UAEPAVCDrawingObject@@XZ 0042ee90 f   DrawPin.obj
 0001:0002df20       ?GetName@CDrawPin@@UBE?AV?$CStringT@_WV?$StrTraitMFC@_WV?$ChTraitsCRT@_W@ATL@@@@@ATL@@XZ 0042ef20 f   DrawPin.obj
 0001:0002df50       ?Find@CDrawPin@@UAE?AV?$CStringT@_WV?$StrTraitMFC@_WV?$ChTraitsCRT@_W@ATL@@@@@ATL@@PB_W@Z 0042ef50 f   DrawPin.obj
 0001:0002e0a0       ?Display@CDrawRectOutline@@MAEXH@Z 0042f0a0 f   DrawRectOutline.obj
 0001:0002e0a0       ?Display@CDrawError@@UAEXH@Z 0042f0a0 f   DrawError.obj
 0001:0002e100       ?PaintHandles@CDrawRectOutline@@MAEXAAVCContext@@@Z 0042f100 f   DrawRectOutline.obj
 0001:0002e150       ?MoveField@CDrawRectOutline@@MAEXHVCDPoint@@@Z 0042f150 f   DrawRectOutline.obj
 0001:0002e2f0       ?SetCursorEdit@CDrawRectOutline@@MAEHVCDPoint@@@Z 0042f2f0 f   DrawRectOutline.obj
 0001:0002e320       ?IsInsideField@CDrawRectOutline@@MAEHVCDPoint@@@Z 0042f320 f   DrawRectOutline.obj
 0001:0002e420       ?RButtonDown@CDrawRefPainter@@UAEHVCDPoint@@0@Z 0042f420 f   DrawRefPainter.obj
 0001:0002e430       ?LButtonDown@CDrawRefPainter@@UAEXVCDPoint@@0@Z 0042f430 f   DrawRefPainter.obj
 0001:0002e570       ?RButtonUp@CDrawRefPainter@@UAEXVCDPoint@@0@Z 0042f570 f   DrawRefPainter.obj
 0001:0002e6a0       ??0CDrawRuler@@QAE@PAVCTinyCadDoc@@H@Z 0042f6a0 f   DrawRuler.obj
 0001:0002e710       ?GetType@CDrawRuler@@UAE?AW4ObjType@@XZ 0042f710 f   DrawRuler.obj
 0001:0002e720       ?DistanceFromPoint@CDrawRuler@@UAENVCDPoint@@@Z 0042f720 f   DrawRuler.obj
 0001:0002e740       ?IsInside@CDrawRuler@@UAEHNNNN@Z 0042f740 f   DrawRuler.obj
 0001:0002e790       ?SetCursorEdit@CDrawRuler@@UAEHVCDPoint@@@Z 0042f790 f   DrawRuler.obj
 0001:0002e7d0       ?GetXMLTag@CDrawRuler@@SAPB_WXZ 0042f7d0 f   DrawRuler.obj
 0001:0002e7e0       ?Display@CDrawRuler@@UAEXH@Z 0042f7e0 f   DrawRuler.obj
 0001:0002e860       ?Move@CDrawRuler@@UAEXVCDPoint@@0@Z 0042f860 f   DrawRuler.obj
 0001:0002e8f0       ?getMenuID@CDrawRuler@@UAEHXZ 0042f8f0 f   DrawRuler.obj
 0001:0002e900       ??4CDrawRuler@@QAEAAV0@ABV0@@Z 0042f900 f i DrawRuler.obj
 0001:0002e960       ?Load@CDrawRuler@@UAEXAAVCStream@@@Z 0042f960 f   DrawRuler.obj
 0001:0002e9b0       ?Store@CDrawRuler@@UAEPAVCDrawingObject@@XZ 0042f9b0 f   DrawRuler.obj
 0001:0002ea30       ?Paint@CDrawRuler@@UAEXAAVCContext@@W4paint_options@@@Z 0042fa30 f   DrawRuler.obj
 0001:0002ed90       ?SaveXML@CDrawRuler@@UAEXAAVCXMLWriter@@@Z 0042fd90 f   DrawRuler.obj
 0001:0002edf0       ?LoadXML@CDrawRuler@@UAEXAAVCXMLReader@@@Z 0042fdf0 f   DrawRuler.obj
 0001:0002ee40       ?GetName@CDrawRuler@@UBE?AV?$CStringT@_WV?$StrTraitMFC@_WV?$ChTraitsCRT@_W@ATL@@@@@ATL@@XZ 0042fe40 f   DrawRuler.obj
 0001:0002ee70       ?GetType@CDrawSquare@@UAE?AW4ObjType@@XZ 0042fe70 f   DrawSquare.obj
 0001:0002ee80       ?EndEdit@CDrawSquare@@UAEXXZ 0042fe80 f   DrawSquare.obj
 0001:0002eea0       ?LButtonDown@CDrawSquare@@UAEXVCDPoint@@0@Z 0042fea0 f   DrawSquare.obj
 0001:0002eff0       ?LButtonUp@CDrawSquare@@UAEXVCDPoint@@@Z 0042fff0 f   DrawSquare.obj
 0001:0002f080       ?TagResources@CDrawSquare@@UAEXXZ 00430080 f   DrawSquare.obj
 0001:0002f0c0       ?GetXMLTag@CDrawSquare@@SAPB_WH@Z 004300c0 f   DrawSquare.obj
 0001:0002f0e0       ?Load@CDrawSquare@@UAEXAAVCStream@@@Z 004300e0 f   DrawSquare.obj
 0001:0002f1b0       ?OldLoad2@CDrawSquare@@QAEXAAVCStream@@@Z 004301b0 f   DrawSquare.obj
 0001:0002f240       ?OldLoad@CDrawSquare@@QAEXAAVCStream@@H@Z 00430240 f   DrawSquare.obj
 0001:0002f2f0       ?EllipseDistanceFromPoint@CDrawSquare@@AAENVCDPoint@@AAH@Z 004302f0 f   DrawSquare.obj
 0001:0002f420       ?DistanceFromPoint@CDrawSquare@@UAENVCDPoint@@@Z 00430420 f   DrawSquare.obj
 0001:0002f7b0       ?IsInside@CDrawSquare@@UAEHNNNN@Z 004307b0 f   DrawSquare.obj
 0001:0002fe10       ?Paint@CDrawSquare@@UAEXAAVCContext@@W4paint_options@@@Z 00430e10 f   DrawSquare.obj
 0001:0002ff40       ??4CDrawSquare@@QAEAAV0@ABV0@@Z 00430f40 f i DrawSquare.obj
 0001:0002ffb0       ?SaveXML@CDrawSquare@@UAEXAAVCXMLWriter@@@Z 00430fb0 f   DrawSquare.obj
 0001:00030060       ?LoadXML@CDrawSquare@@UAEXAAVCXMLReader@@@Z 00431060 f   DrawSquare.obj
 0001:000300f0       ?GetName@CDrawSquare@@UBE?AV?$CStringT@_WV?$StrTraitMFC@_WV?$ChTraitsCRT@_W@ATL@@@@@ATL@@XZ 004310f0 f   DrawSquare.obj
 0001:00030120       ??0CDrawSquare@@QAE@PAVCTinyCadDoc@@W4ObjType@@@Z 00431120 f   DrawSquare.obj
 0001:000301d0       ?getMenuID@CDrawSquare@@UAEHXZ 004311d0 f i DrawSquare.obj
 0001:000301f0       ?BeginEdit@CDrawSquare@@UAEXH@Z 004311f0 f   DrawSquare.obj
 0001:00030270       ?NewOptions@CDrawSquare@@UAEXXZ 00431270 f   DrawSquare.obj
 0001:000302f0       ?Store@CDrawSquare@@UAEPAVCDrawingObject@@XZ 004312f0 f   DrawSquare.obj
 0001:00030370       ?IsEditLibrary@CTinyCadSymbolDoc@@UAEHXZ 00431370 f   TinyCadSymbolDoc.obj
 0001:00030370       ?GetType@CDrawCentre@@UAE?AW4ObjType@@XZ 00431370 f   DrawCentre.obj
 0001:00030370       ?CanEdit@CDrawSquare@@UAEHXZ 00431370 f   DrawSquare.obj
 0001:00030370       ?IsConstruction@CDrawRuler@@UAEHXZ 00431370 f   DrawRuler.obj
 0001:00030370       ?CanEdit@CDrawPower@@UAEHXZ 00431370 f   Power.obj
 0001:00030370       ?CanControlAspect@CDrawingObject@@UAEHXZ 00431370 f   DrawingObject.obj
 0001:00030370       ?MustUpgrade@CLibraryFile@@UAEHXZ 00431370 f   Library.obj
 0001:00030370       ?CanEdit@CDrawLabel@@UAEHXZ 00431370 f   DrawLabel.obj
 0001:00030370       ?CanEdit@CDrawError@@UAEHXZ 00431370 f   DrawError.obj
 0001:00030370       ?CanEdit@CDrawText@@UAEHXZ 00431370 f   DrawText.obj
 0001:00030370       ?CanEdit@CDrawPin@@UAEHXZ  00431370 f   DrawPin.obj
 0001:00030370       ?CanEdit@CDrawMethod@@UAEHXZ 00431370 f   DrawMethod.obj
 0001:00030370       ?CanEdit@CDrawLine@@UAEHXZ 00431370 f   DrawLine.obj
 0001:00030370       ?CanEdit@CDrawPolygon@@UAEHXZ 00431370 f   Polygon.obj
 0001:00030370       ?GetType@CDrawRefPainter@@UAE?AW4ObjType@@XZ 00431370 f   DrawRefPainter.obj
 0001:00030380       ?getMenuID@CDrawText@@UAEHXZ 00431380 f   DrawText.obj
 0001:00030440       ?GetXMLTag@CDrawText@@SAPB_WW4ObjType@@@Z 00431440 f   DrawText.obj
 0001:000304f0       ?IsModified@CDocument@@UAEHXZ 004314f0 f   LibraryDoc.obj
 0001:000304f0       ?GetType@CDrawText@@UAE?AW4ObjType@@XZ 004314f0 f   DrawText.obj
 0001:00030500       ?EndEdit@CDrawText@@UAEXXZ 00431500 f   DrawText.obj
 0001:00030530       ?Move@CDrawText@@UAEXVCDPoint@@0@Z 00431530 f   DrawText.obj
 0001:000305d0       ?MoveField@CDrawText@@UAEXHVCDPoint@@@Z 004315d0 f   DrawText.obj
 0001:00030800       ?Display@CDrawText@@UAEXH@Z 00431800 f   DrawText.obj
 0001:00030900       ?Rotate@CDrawText@@UAEXVCDPoint@@H@Z 00431900 f   DrawText.obj
 0001:00030a80       ?CalcLayout@CDrawText@@AAEXXZ 00431a80 f   DrawText.obj
 0001:00030ae0       ?Load@CDrawText@@UAEXAAVCStream@@@Z 00431ae0 f   DrawText.obj
 0001:00030d30       ?NewOptions@CDrawText@@UAEXXZ 00431d30 f   DrawText.obj
 0001:00030d80       ?SaveXML@CDrawText@@UAEXAAVCXMLWriter@@@Z 00431d80 f   DrawText.obj
 0001:00030e30       ??0CDrawText@@QAE@PAVCTinyCadDoc@@W4ObjType@@@Z 00431e30 f   DrawText.obj
 0001:00030f50       ??_ECDrawText@@UAEPAXI@Z   00431f50 f i DrawText.obj
 0001:00030f50       ??_GCDrawText@@UAEPAXI@Z   00431f50 f i DrawText.obj
 0001:00030fd0       ?Paint@CDrawText@@UAEXAAVCContext@@W4paint_options@@@Z 00431fd0 f   DrawText.obj
 0001:00031300       ?LoadXML@CDrawText@@UAEXAAVCXMLReader@@@Z 00432300 f   DrawText.obj
 0001:000313d0       ?Find@CDrawText@@UAE?AV?$CStringT@_WV?$StrTraitMFC@_WV?$ChTraitsCRT@_W@ATL@@@@@ATL@@PB_W@Z 004323d0 f   DrawText.obj
 0001:00031520       ?GetName@CDrawText@@UBE?AV?$CStringT@_WV?$StrTraitMFC@_WV?$ChTraitsCRT@_W@ATL@@@@@ATL@@XZ 00432520 f   DrawText.obj
 0001:00031580       ?LButtonDown@CDrawText@@UAEXVCDPoint@@0@Z 00432580 f   DrawText.obj
 0001:000317a0       ??4CDrawText@@QAEAAV0@ABV0@@Z 004327a0 f i DrawText.obj
 0001:00031830       ?Store@CDrawText@@UAEPAVCDrawingObject@@XZ 00432830 f   DrawText.obj
 0001:000318c0       ?BeginEdit@CDrawText@@UAEXH@Z 004328c0 f   DrawText.obj
 0001:00031950       ??0CDRect@@QAE@NNNN@Z      00432950 f   DRect.obj
 0001:00031970       ?Width@CDRect@@QBENXZ      00432970 f   DRect.obj
 0001:00031980       ?Height@CDRect@@QBENXZ     00432980 f   DRect.obj
 0001:00031990       ?InflateRect@CDRect@@QAEXNNNN@Z 00432990 f   DRect.obj
 0001:000319c0       ?NormalizeRect@CDRect@@QAEXXZ 004329c0 f   DRect.obj
 0001:000319f0       ??YCDRect@@QAE?AV0@VCDPoint@@@Z 004329f0 f   DRect.obj
 0001:00031a30       ?PtInRect@CDRect@@QBEHVCDPoint@@@Z 00432a30 f   DRect.obj
 0001:00031aa0       ??0CDRect@@QAE@XZ          00432aa0 f   DRect.obj
 0001:00031aa0       ??0CDSize@@QAE@XZ          00432aa0 f   DSize.obj
 0001:00031aa0       ??0CRegistry@@IAE@XZ       00432aa0 f   Registry.obj
 0001:00031ab0       ??0CDSize@@QAE@NN@Z        00432ab0 f   DSize.obj
 0001:00031ad0       ?Open@CEditDlgRotateBox@@QAEXPAVCTinyCadDoc@@PAVCDrawingObject@@@Z 00432ad0 f   editbar.obj
 0001:00031ad0       ?Show@CEditDlg@@QAEXPAVCTinyCadDoc@@PAVCDrawingObject@@@Z 00432ad0 f   editbar.obj
 0001:00031b00       ?Close@CEditDlg@@QAEXXZ    00432b00 f   editbar.obj
 0001:00031b20       ?getObject@CEditDlg@@QAEPAVCDrawingObject@@XZ 00432b20 f   editbar.obj
 0001:00031b30       ?OnLeft@CEditDlgRotateBox@@QAEXXZ 00432b30 f   editbar.obj
 0001:00031b60       ?OnRight@CEditDlgRotateBox@@QAEXXZ 00432b60 f   editbar.obj
 0001:00031b90       ?OnMirror@CEditDlgRotateBox@@QAEXXZ 00432b90 f   editbar.obj
 0001:00031bc0       ?Create@CEditDlgNoTool@@QAEXXZ 00432bc0 f   editbar.obj
 0001:00031bd0       ?Create@CEditDlgPowerEdit@@QAEXXZ 00432bd0 f   editbar.obj
 0001:00031be0       ?Open@CEditDlgPowerEdit@@QAEXPAVCTinyCadDoc@@PAVCDrawingObject@@@Z 00432be0 f   editbar.obj
 0001:00031c70       ?Create@CEditDlgRotateBox@@QAEXXZ 00432c70 f   editbar.obj
 0001:00031c80       ?GetMessageMap@CEditDlgRotateBox@@MBEPBUAFX_MSGMAP@@XZ 00432c80 f   editbar.obj
 0001:00031c90       ?OnChange@CEditDlgPowerEdit@@QAEXXZ 00432c90 f   editbar.obj
 0001:00031d60       ?GetMessageMap@CEditDlgPowerEdit@@MBEPBUAFX_MSGMAP@@XZ 00432d60 f   editbar.obj
 0001:00031d70       ??0CEditDlg@@QAE@XZ        00432d70 f   EditDlg.obj
 0001:00031d90       ?GetMessageMap@CDlgRenameSheet@@MBEPBUAFX_MSGMAP@@XZ 00432d90 f   DlgRenameSheet.obj
 0001:00031d90       ?GetThisMessageMap@CEditDlg@@KGPBUAFX_MSGMAP@@XZ 00432d90 f   EditDlg.obj
 0001:00031d90       ?GetMessageMap@CEditDlg@@MBEPBUAFX_MSGMAP@@XZ 00432d90 f   EditDlg.obj
 0001:00031d90       ?GetMessageMap@CDlgPartsInPackage@@MBEPBUAFX_MSGMAP@@XZ 00432d90 f   DlgPartsInPackage.obj
 0001:00031da0       ??0CEditDlgDrawLineEdit@@QAE@XZ 00432da0 f   EditDlgDrawLineEdit.obj
 0001:00031dc0       ?Open@CEditDlgDrawPolyEdit@@QAEXPAVCTinyCadDoc@@PAVCDrawingObject@@@Z 00432dc0 f   EditDlgDrawPolyEdit.obj
 0001:00031dc0       ?Open@CEditDlgDrawLineEdit@@QAEXPAVCTinyCadDoc@@PAVCDrawingObject@@@Z 00432dc0 f   EditDlgDrawLineEdit.obj
 0001:00031df0       ?GetMessageMap@CEditDlgDrawLineEdit@@MBEPBUAFX_MSGMAP@@XZ 00432df0 f   EditDlgDrawLineEdit.obj
 0001:00031df0       ?GetMessageMap@CEditDlgDrawPolyEdit@@MBEPBUAFX_MSGMAP@@XZ 00432df0 f   EditDlgDrawPolyEdit.obj
 0001:00031e00       ?Create@CEditDlgDrawLineEdit@@QAEXXZ 00432e00 f   EditDlgDrawLineEdit.obj
 0001:00031e20       ??0CEditDlgDrawPolyEdit@@QAE@XZ 00432e20 f   EditDlgDrawPolyEdit.obj
 0001:00031e40       ?SetSheetName@CTinyCadHierarchicalDoc@@UAEXPB_W@Z 00432e40 f   TinyCadHierarchicalDoc.obj
 0001:00031e40       ?DoDataExchange@CInitDialogBar@@MAEXPAVCDataExchange@@@Z 00432e40 f   InitDialogBar.obj
 0001:00031e40       ?DoDataExchange@CEditDlgLabelEdit@@MAEXPAVCDataExchange@@@Z 00432e40 f   EditDlgLabelEdit.obj
 0001:00031e40       ?OnChangedFolder@CFolderView@@UAEXH@Z 00432e40 f   FolderFrame.obj
 0001:00031e40       ?BeginEdit@CDrawingObject@@UAEXH@Z 00432e40 f   DrawingObject.obj
 0001:00031e40       ?DoDataExchange@CEditDlgDrawLineEdit@@MAEXPAVCDataExchange@@@Z 00432e40 f   EditDlgDrawLineEdit.obj
 0001:00031e40       ?BeginEdit@CDrawBlockRotate@@UAEXH@Z 00432e40 f   DrawBlockRotate.obj
 0001:00031e40       ?Serialize@CLibraryDoc@@UAEXAAVCArchive@@@Z 00432e40 f   LibraryDoc.obj
 0001:00031e40       ?Serialize@CMultiSheetDoc@@UAEXAAVCArchive@@@Z 00432e40 f   MultiSheetDoc.obj
 0001:00031e40       ?SaveXML@CDrawingObject@@UAEXAAVCXMLWriter@@@Z 00432e40 f   DrawingObject.obj
 0001:00031e40       ?GetActiveListFirst@CDrawPower@@UAEXAAVCActiveNode@@@Z 00432e40 f   Power.obj
 0001:00031e40       ?DoDataExchange@COptionsGrid@@MAEXPAVCDataExchange@@@Z 00432e40 f   OptionsSheets.obj
 0001:00031e40       ?Display@CDrawRefPainter@@UAEXH@Z 00432e40 f   DrawRefPainter.obj
 0001:00031e40       ?Serialize@CTextEditDoc@@UAEXAAVCArchive@@@Z 00432e40 f   TextEditDoc.obj
 0001:00031e40       ?DoDataExchange@CWnd@@MAEXPAVCDataExchange@@@Z 00432e40 f   ChildFrm.obj
 0001:00031e40       ?GetActiveListFirst@CDrawBusSlash@@UAEXAAVCActiveNode@@@Z 00432e40 f   DrawBusSlash.obj
 0001:00031e40       ?DoDataExchange@CEditDlg@@MAEXPAVCDataExchange@@@Z 00432e40 f   EditDlg.obj
 0001:00031e40       ?Serialize@CObject@@UAEXAAVCArchive@@@Z 00432e40 f   ChildFrm.obj
 0001:00031e40       ?GetActiveListFirst@CDrawingObject@@UAEXAAVCActiveNode@@@Z 00432e40 f   DrawingObject.obj
 0001:00031e40       ?GetActiveListFirst@CDrawLabel@@UAEXAAVCActiveNode@@@Z 00432e40 f   DrawLabel.obj
 0001:00031e40       ?DoDataExchange@CEditDlgTextEdit@@MAEXPAVCDataExchange@@@Z 00432e40 f   EditDlgTextEdit.obj
 0001:00031e40       ?PaintHandles@CDrawingObject@@UAEXAAVCContext@@@Z 00432e40 f   DrawingObject.obj
 0001:00031e40       ?SetActiveSheetIndex@CMultiSheetDoc@@UAEXH@Z 00432e40 f   MultiSheetDoc.obj
 0001:00031e40       ?Serialize@CTinyCadMultiSymbolDoc@@UAEXAAVCArchive@@@Z 00432e40 f   TinyCadMultiSymbolDoc.obj
 0001:00031e40       ?LoadXML@CDrawingObject@@UAEXAAVCXMLReader@@@Z 00432e40 f   DrawingObject.obj
 0001:00031e40       ?Display@CDrawCentre@@UAEXH@Z 00432e40 f   DrawCentre.obj
 0001:00031e40       ?DoDataExchange@CEditDlgDrawPolyEdit@@MAEXPAVCDataExchange@@@Z 00432e40 f   EditDlgDrawPolyEdit.obj
 0001:00031e50       ?Create@CEditDlgDrawPolyEdit@@QAEXXZ 00432e50 f   EditDlgDrawPolyEdit.obj
 0001:00031e70       ?DoDataExchange@CEditDlgHierarchicalEdit@@MAEXPAVCDataExchange@@@Z 00432e70 f   EditDlgHierarchicalEdit.obj
 0001:00031e70       ?DoDataExchange@CEditDlgMethodEdit@@MAEXPAVCDataExchange@@@Z 00432e70 f   EditDlgMethodEdit.obj
 0001:00031eb0       ??0CEditDlgHierarchicalEdit@@QAE@XZ 00432eb0 f   EditDlgHierarchicalEdit.obj
 0001:00031f50       ?Create@CEditDlgHierarchicalEdit@@QAEXXZ 00432f50 f   EditDlgHierarchicalEdit.obj
 0001:00031f60       ?OnInitDialog@CEditDlgHierarchicalEdit@@MAEHXZ 00432f60 f   EditDlgHierarchicalEdit.obj
 0001:00031f60       ?OnInitDialog@CEditDlgMethodEdit@@MAEHXZ 00432f60 f   EditDlgMethodEdit.obj
 0001:00031fd0       ?OnChangeText@CEditDlgHierarchicalEdit@@IAEXXZ 00432fd0 f   EditDlgHierarchicalEdit.obj
 0001:00031fd0       ?OnChangeText@CEditDlgMethodEdit@@IAEXXZ 00432fd0 f   EditDlgMethodEdit.obj
 0001:00032080       ?Open@CEditDlgHierarchicalEdit@@QAEXPAVCTinyCadDoc@@PAVCDrawingObject@@@Z 00433080 f   EditDlgHierarchicalEdit.obj
 0001:00032150       ?OnBnClickedDesign@CEditDlgHierarchicalEdit@@QAEXXZ 00433150 f   EditDlgHierarchicalEdit.obj
 0001:00032180       ?EndEdit@CEditDlgHierarchicalEdit@@QAEXXZ 00433180 f   EditDlgHierarchicalEdit.obj
 0001:00032340       ?OnKillfocusEdit@CEditDlgHierarchicalEdit@@IAEXXZ 00433340 f   EditDlgHierarchicalEdit.obj
 0001:00032350       ?OnOK@CEditDlgHierarchicalEdit@@UAEXXZ 00433350 f   EditDlgHierarchicalEdit.obj
 0001:00032360       ?BeginEdit@CEditDlgHierarchicalEdit@@QAEXHVCRect@@@Z 00433360 f   EditDlgHierarchicalEdit.obj
 0001:000324d0       ?OnClickList@CEditDlgHierarchicalEdit@@IAEXPAUtagNMHDR@@PAJ@Z 004334d0 f   EditDlgHierarchicalEdit.obj
 0001:000326c0       ?OnSetfocusList@CEditDlgHierarchicalEdit@@IAEXPAUtagNMHDR@@PAJ@Z 004336c0 f   EditDlgHierarchicalEdit.obj
 0001:000326e0       ?OnAdd@CEditDlgHierarchicalEdit@@IAEXXZ 004336e0 f   EditDlgHierarchicalEdit.obj
 0001:00032920       ?GetMessageMap@CEditDlgHierarchicalEdit@@MBEPBUAFX_MSGMAP@@XZ 00433920 f   EditDlgHierarchicalEdit.obj
 0001:00032930       ??0CEditDlgLabelEdit@@QAE@XZ 00433930 f   EditDlgLabelEdit.obj
 0001:00032950       ?OnTextColour@CEditDlgLabelEdit@@IAEXXZ 00433950 f   EditDlgLabelEdit.obj
 0001:00032950       ?OnTextColour@CEditDlgTextEdit@@IAEXXZ 00433950 f   EditDlgTextEdit.obj
 0001:00032980       ?Create@CEditDlgLabelEdit@@QAEXXZ 00433980 f   EditDlgLabelEdit.obj
 0001:00032990       ?Open@CEditDlgLabelEdit@@QAEXPAVCTinyCadDoc@@PAVCDrawingObject@@@Z 00433990 f   EditDlgLabelEdit.obj
 0001:00032a40       ?ReFocus@CEditDlgLabelEdit@@QAEXXZ 00433a40 f   EditDlgLabelEdit.obj
 0001:00032a70       ?OnChange@CEditDlgLabelEdit@@QAEXXZ 00433a70 f   EditDlgLabelEdit.obj
 0001:00032b50       ?OnStyle4@CEditDlgLabelEdit@@IAEXXZ 00433b50 f   EditDlgLabelEdit.obj
 0001:00032b50       ?OnStyle2@CEditDlgLabelEdit@@IAEXXZ 00433b50 f   EditDlgLabelEdit.obj
 0001:00032b50       ?OnStyle1@CEditDlgLabelEdit@@IAEXXZ 00433b50 f   EditDlgLabelEdit.obj
 0001:00032b50       ?OnStyle3@CEditDlgLabelEdit@@IAEXXZ 00433b50 f   EditDlgLabelEdit.obj
 0001:00032b60       ?GetMessageMap@CEditDlgLabelEdit@@MBEPBUAFX_MSGMAP@@XZ 00433b60 f   EditDlgLabelEdit.obj
 0001:00032b70       ??0CEditDlgLine@@QAE@PAVCWnd@@@Z 00433b70 f   EditDlgLine.obj
 0001:00032c70       ??1CEditDlgLine@@UAE@XZ    00433c70 f i EditDlgLine.obj
 0001:00032d20       ??_GCEditDlgLine@@UAEPAXI@Z 00433d20 f i EditDlgLine.obj
 0001:00032d20       ??_ECEditDlgLine@@UAEPAXI@Z 00433d20 f i EditDlgLine.obj
 0001:00032d40       ?DoDataExchange@CEditDlgLine@@MAEXPAVCDataExchange@@@Z 00433d40 f   EditDlgLine.obj
 0001:00032dc0       ?Create@CEditDlgLine@@QAEXXZ 00433dc0 f   EditDlgLine.obj
 0001:00032dd0       ?OnInitDialog@CEditDlgLine@@MAEHXZ 00433dd0 f   EditDlgLine.obj
 0001:00032e60       ?OnDrawItem@CEditDlgLine@@IAEXHPAUtagDRAWITEMSTRUCT@@@Z 00433e60 f   EditDlgLine.obj
 0001:00033030       ?Open@CEditDlgLine@@QAEXPAVCTinyCadDoc@@PAVCDrawingObject@@@Z 00434030 f   EditDlgLine.obj
 0001:00033240       ?UpdateOptions@CEditDlgLine@@IAEXXZ 00434240 f   EditDlgLine.obj
 0001:000332c0       ?OnEntireNet@CEditDlgLine@@IAEXXZ 004342c0 f   EditDlgLine.obj
 0001:000332f0       ?OnDefaultStyle@CEditDlgLine@@IAEXXZ 004342f0 f   EditDlgLine.obj
 0001:00033380       ?OnLineColour@CEditDlgLine@@IAEXXZ 00434380 f   EditDlgLine.obj
 0001:000333a0       ?OnSelchangeStyle@CEditDlgLine@@IAEXXZ 004343a0 f   EditDlgLine.obj
 0001:000333e0       ?OnChangeThickness@CEditDlgLine@@IAEXXZ 004343e0 f   EditDlgLine.obj
 0001:00033550       ?GetMessageMap@CEditDlgLine@@MBEPBUAFX_MSGMAP@@XZ 00434550 f   EditDlgLine.obj
 0001:00033560       ?OnChangePart@CEditDlgMethodEdit@@IAEXXZ 00434560 f   EditDlgMethodEdit.obj
 0001:00033680       ?OnBnClickedShowpower@CEditDlgMethodEdit@@QAEXXZ 00434680 f   EditDlgMethodEdit.obj
 0001:000336c0       ??0CEditDlgMethodEdit@@QAE@XZ 004346c0 f   EditDlgMethodEdit.obj
 0001:00033760       ??1CEditDlgMethodEdit@@UAE@XZ 00434760 f i EditDlgMethodEdit.obj
 0001:00033760       ??1CEditDlgHierarchicalEdit@@UAE@XZ 00434760 f i EditDlgHierarchicalEdit.obj
 0001:000337e0       ??_ECEditDlgMethodEdit@@UAEPAXI@Z 004347e0 f i EditDlgMethodEdit.obj
 0001:000337e0       ??_ECEditDlgHierarchicalEdit@@UAEPAXI@Z 004347e0 f i EditDlgHierarchicalEdit.obj
 0001:000337e0       ??_GCEditDlgMethodEdit@@UAEPAXI@Z 004347e0 f i EditDlgMethodEdit.obj
 0001:000337e0       ??_GCEditDlgHierarchicalEdit@@UAEPAXI@Z 004347e0 f i EditDlgHierarchicalEdit.obj
 0001:00033800       ?Create@CEditDlgMethodEdit@@QAEXXZ 00434800 f   EditDlgMethodEdit.obj
 0001:00033810       ?OnChangeRotation@CEditDlgMethodEdit@@IAEXXZ 00434810 f   EditDlgMethodEdit.obj
 0001:00033810       ?OnChangeRotation@CEditDlgHierarchicalEdit@@IAEXXZ 00434810 f   EditDlgHierarchicalEdit.obj
 0001:00033890       ?GetField@CEditDlgHierarchicalEdit@@QAEAAUCField@CDrawMethod@@H@Z 00434890 f   EditDlgHierarchicalEdit.obj
 0001:00033890       ?GetField@CEditDlgMethodEdit@@QAEAAUCField@CDrawMethod@@H@Z 00434890 f   EditDlgMethodEdit.obj
 0001:00033900       ?HideShow@CEditDlgMethodEdit@@QAEXH@Z 00434900 f   EditDlgMethodEdit.obj
 0001:00033900       ?HideShow@CEditDlgHierarchicalEdit@@QAEXH@Z 00434900 f   EditDlgHierarchicalEdit.obj
 0001:00033990       ?ReadFields@CEditDlgMethodEdit@@QAEXXZ 00434990 f   EditDlgMethodEdit.obj
 0001:00033990       ?ReadFields@CEditDlgHierarchicalEdit@@QAEXXZ 00434990 f   EditDlgHierarchicalEdit.obj
 0001:00033c20       ?Open@CEditDlgMethodEdit@@QAEXPAVCTinyCadDoc@@PAVCDrawingObject@@@Z 00434c20 f   EditDlgMethodEdit.obj
 0001:00033d40       ?EndEdit@CEditDlgMethodEdit@@QAEXXZ 00434d40 f   EditDlgMethodEdit.obj
 0001:00033ef0       ?OnKillfocusEdit@CEditDlgMethodEdit@@IAEXXZ 00434ef0 f   EditDlgMethodEdit.obj
 0001:00033f00       ?OnOK@CEditDlgMethodEdit@@UAEXXZ 00434f00 f   EditDlgMethodEdit.obj
 0001:00033f10       ?BeginEdit@CEditDlgMethodEdit@@QAEXHVCRect@@@Z 00434f10 f   EditDlgMethodEdit.obj
 0001:00034080       ?OnClickList@CEditDlgMethodEdit@@IAEXPAUtagNMHDR@@PAJ@Z 00435080 f   EditDlgMethodEdit.obj
 0001:00034260       ?OnSetfocusList@CEditDlgMethodEdit@@IAEXPAUtagNMHDR@@PAJ@Z 00435260 f   EditDlgMethodEdit.obj
 0001:00034280       ?OnDrawItem@CEditDlgHierarchicalEdit@@IAEXHPAUtagDRAWITEMSTRUCT@@@Z 00435280 f   EditDlgHierarchicalEdit.obj
 0001:00034280       ?OnDrawItem@CEditDlgMethodEdit@@IAEXHPAUtagDRAWITEMSTRUCT@@@Z 00435280 f   EditDlgMethodEdit.obj
 0001:00034560       ?OnDelete@CEditDlgHierarchicalEdit@@IAEXXZ 00435560 f   EditDlgHierarchicalEdit.obj
 0001:00034560       ?OnDelete@CEditDlgMethodEdit@@IAEXXZ 00435560 f   EditDlgMethodEdit.obj
 0001:00034670       ?OnAdd@CEditDlgMethodEdit@@IAEXXZ 00435670 f   EditDlgMethodEdit.obj
 0001:000348b0       ?GetMessageMap@CEditDlgMethodEdit@@MBEPBUAFX_MSGMAP@@XZ 004358b0 f   EditDlgMethodEdit.obj
 0001:000348c0       ??0CEditDlgPinEdit@@QAE@XZ 004358c0 f   EditDlgPinEdit.obj
 0001:00034950       ??1CEditDlgPinEdit@@UAE@XZ 00435950 f i EditDlgPinEdit.obj
 0001:000349c0       ??_GCEditDlgPinEdit@@UAEPAXI@Z 004359c0 f i EditDlgPinEdit.obj
 0001:000349c0       ??_ECEditDlgPinEdit@@UAEPAXI@Z 004359c0 f i EditDlgPinEdit.obj
 0001:000349e0       ?DoDataExchange@CEditDlgPinEdit@@MAEXPAVCDataExchange@@@Z 004359e0 f   EditDlgPinEdit.obj
 0001:00034a20       ?Create@CEditDlgPinEdit@@QAEXXZ 00435a20 f   EditDlgPinEdit.obj
 0001:00034b90       ?Open@CEditDlgPinEdit@@QAEXPAVCTinyCadDoc@@PAVCDrawingObject@@@Z 00435b90 f   EditDlgPinEdit.obj
 0001:00034d20       ?ReFocus@CEditDlgPinEdit@@QAEXXZ 00435d20 f   EditDlgPinEdit.obj
 0001:00034d80       ?OnSelchangeElec@CEditDlgPinEdit@@IAEXXZ 00435d80 f   EditDlgPinEdit.obj
 0001:00034dc0       ?OnSelchangePinType@CEditDlgPinEdit@@IAEXXZ 00435dc0 f   EditDlgPinEdit.obj
 0001:00034e00       ?OnChange@CEditDlgPinEdit@@QAEXXZ 00435e00 f   EditDlgPinEdit.obj
 0001:00035000       ?GetMessageMap@CEditDlgPinEdit@@MBEPBUAFX_MSGMAP@@XZ 00436000 f   EditDlgPinEdit.obj
 0001:00035010       ?AddFillStyle@COption@@QAEFPAVFillStyle@@F@Z 00436010 f i EditDlgPolygon.obj
 0001:00035090       ??0CEditDlgPolygon@@QAE@PAVCWnd@@@Z 00436090 f   EditDlgPolygon.obj
 0001:00035170       ??1CEditDlgPolygon@@UAE@XZ 00436170 f i EditDlgPolygon.obj
 0001:00035220       ??_GCEditDlgPolygon@@UAEPAXI@Z 00436220 f i EditDlgPolygon.obj
 0001:00035220       ??_ECEditDlgPolygon@@UAEPAXI@Z 00436220 f i EditDlgPolygon.obj
 0001:00035240       ?DoDataExchange@CEditDlgPolygon@@MAEXPAVCDataExchange@@@Z 00436240 f   EditDlgPolygon.obj
 0001:000352c0       ?Create@CEditDlgPolygon@@QAEXXZ 004362c0 f   EditDlgPolygon.obj
 0001:000352d0       ?OnInitDialog@CEditDlgPolygon@@MAEHXZ 004362d0 f   EditDlgPolygon.obj
 0001:000353e0       ?OnDrawItem@CEditDlgPolygon@@IAEXHPAUtagDRAWITEMSTRUCT@@@Z 004363e0 f   EditDlgPolygon.obj
 0001:000355b0       ?Open@CEditDlgPolygon@@QAEXPAVCTinyCadDoc@@PAVCDrawingObject@@@Z 004365b0 f   EditDlgPolygon.obj
 0001:000357e0       ?UpdateOptions@CEditDlgPolygon@@IAEXXZ 004367e0 f   EditDlgPolygon.obj
 0001:00035900       ?OnFill@CEditDlgPolygon@@IAEXXZ 00436900 f   EditDlgPolygon.obj
 0001:00035940       ?OnFillColour@CEditDlgPolygon@@IAEXXZ 00436940 f   EditDlgPolygon.obj
 0001:00035960       ?OnLineColour@CEditDlgPolygon@@IAEXXZ 00436960 f   EditDlgPolygon.obj
 0001:00035980       ?OnSelchangeIndex@CEditDlgPolygon@@IAEXXZ 00436980 f   EditDlgPolygon.obj
 0001:000359b0       ?OnSelchangeStyle@CEditDlgPolygon@@IAEXXZ 004369b0 f   EditDlgPolygon.obj
 0001:000359f0       ?OnChangeThickness@CEditDlgPolygon@@IAEXXZ 004369f0 f   EditDlgPolygon.obj
 0001:00035b60       ?GetMessageMap@CEditDlgPolygon@@MBEPBUAFX_MSGMAP@@XZ 00436b60 f   EditDlgPolygon.obj
 0001:00035b70       ??0CEditDlgTextEdit@@QAE@XZ 00436b70 f   EditDlgTextEdit.obj
 0001:00035b90       ?Create@CEditDlgTextEdit@@QAEXXZ 00436b90 f   EditDlgTextEdit.obj
 0001:00035ba0       ?Open@CEditDlgTextEdit@@QAEXPAVCTinyCadDoc@@PAVCDrawingObject@@@Z 00436ba0 f   EditDlgTextEdit.obj
 0001:00035c60       ?ReFocus@CEditDlgTextEdit@@QAEXXZ 00436c60 f   EditDlgTextEdit.obj
 0001:00035c90       ?OnTextFont@CEditDlgLabelEdit@@IAEXXZ 00436c90 f   EditDlgLabelEdit.obj
 0001:00035c90       ?OnTextFont@CEditDlgTextEdit@@IAEXXZ 00436c90 f   EditDlgTextEdit.obj
 0001:00035d60       ?OnChange@CEditDlgTextEdit@@QAEXXZ 00436d60 f   EditDlgTextEdit.obj
 0001:00035e40       ?GetMessageMap@CEditDlgTextEdit@@MBEPBUAFX_MSGMAP@@XZ 00436e40 f   EditDlgTextEdit.obj
 0001:00035e50       ??1CEditToolbar@@UAE@XZ    00436e50 f   EditToolbar.obj
 0001:00035f60       ?OnSetFocus@CEditToolbar@@IAEXPAVCWnd@@@Z 00436f60 f   EditToolbar.obj
 0001:00035f70       ??0CEditToolbar@@QAE@XZ    00436f70 f   EditToolbar.obj
 0001:000360a0       ??_ECEditToolbar@@UAEPAXI@Z 004370a0 f i EditToolbar.obj
 0001:000360a0       ??_GCEditToolbar@@UAEPAXI@Z 004370a0 f i EditToolbar.obj
 0001:000360c0       ?setDlg@CEditToolbar@@QAEXPAVCEditDlg@@@Z 004370c0 f   EditToolbar.obj
 0001:00036170       ?unsetDlg@CEditToolbar@@QAEXXZ 00437170 f   EditToolbar.obj
 0001:00036180       ?GetMessageMap@CEditToolbar@@MBEPBUAFX_MSGMAP@@XZ 00437180 f   EditToolbar.obj
 0001:00036190       ?Create@CEditToolbar@@QAEXPAVCWnd@@@Z 00437190 f   EditToolbar.obj
 0001:00036300       ?GetRuntimeClass@CFolderFrame@@UBEPAUCRuntimeClass@@XZ 00437300 f   FolderFrame.obj
 0001:00036310       ??1CFolderFrame@@UAE@XZ    00437310 f   FolderFrame.obj
 0001:000363c0       ?PreCreateWindow@CFolderFrame@@UAEHAAUtagCREATESTRUCTW@@@Z 004373c0 f   FolderFrame.obj
 0001:000363f0       ?OnCmdMsg@CFolderFrame@@UAEHIHPAXPAUAFX_CMDHANDLERINFO@@@Z 004373f0 f   FolderFrame.obj
 0001:00036450       ?GetRuntimeClass@CFolderView@@UBEPAUCRuntimeClass@@XZ 00437450 f   FolderFrame.obj
 0001:00036460       ?OnChangedTab@CFolderView@@IAEXPAUtagNMHDR@@PAJ@Z 00437460 f   FolderFrame.obj
 0001:00036480       ?OnContextMenu@CFolderView@@IAEXPAUtagNMHDR@@PAJ@Z 00437480 f   FolderFrame.obj
 0001:00036490       ?SendMessageW@CWnd@@QBEJIIJ@Z 00437490 f i FolderFrame.obj
 0001:000364b0       ??_GCScrollBar@@UAEPAXI@Z  004374b0 f i FolderFrame.obj
 0001:000364b0       ??_ECScrollBar@@UAEPAXI@Z  004374b0 f i FolderFrame.obj
 0001:000364d0       ??0CFolderFrame@@QAE@XZ    004374d0 f   FolderFrame.obj
 0001:000365a0       ??_GCFolderFrame@@UAEPAXI@Z 004375a0 f i FolderFrame.obj
 0001:000365a0       ??_ECFolderFrame@@UAEPAXI@Z 004375a0 f i FolderFrame.obj
 0001:000365c0       ?Create@CFolderFrame@@QAEHPAVCWnd@@PAUCRuntimeClass@@PAUCCreateContext@@IHK@Z 004375c0 f   FolderFrame.obj
 0001:000366d0       ?OnCreate@CFolderFrame@@QAEHPAUtagCREATESTRUCTW@@@Z 004376d0 f   FolderFrame.obj
 0001:000367e0       ?OnSize@CFolderFrame@@QAEXIHH@Z 004377e0 f   FolderFrame.obj
 0001:00036840       ?OnWinMgr@CFolderFrame@@QAEJIJ@Z 00437840 f   FolderFrame.obj
 0001:00036930       ?ShowControls@CFolderFrame@@QAEXH@Z 00437930 f   FolderFrame.obj
 0001:00036a00       ?OnHScroll@CFolderFrame@@QAEXIIPAVCScrollBar@@@Z 00437a00 f   FolderFrame.obj
 0001:00036a40       ?OnVScroll@CFolderFrame@@QAEXIIPAVCScrollBar@@@Z 00437a40 f   FolderFrame.obj
 0001:00036a80       ?GetMessageMap@CFolderView@@MBEPBUAFX_MSGMAP@@XZ 00437a80 f   FolderFrame.obj
 0001:00036a80       ?GetThisMessageMap@CFolderView@@KGPBUAFX_MSGMAP@@XZ 00437a80 f   FolderFrame.obj
 0001:00036a90       ?GetFolderFrame@CFolderView@@QBEPAVCFolderFrame@@XZ 00437a90 f   FolderFrame.obj
 0001:00036ab0       ?GetScrollBarCtrl@CFolderView@@UBEPAVCScrollBar@@H@Z 00437ab0 f   FolderFrame.obj
 0001:00036af0       ?GetMessageMap@CFolderFrame@@MBEPBUAFX_MSGMAP@@XZ 00437af0 f   FolderFrame.obj
 0001:00036b00       ?GetRuntimeClass@CFolderTabCtrl@@UBEPAUCRuntimeClass@@XZ 00437b00 f   Ftab.obj
 0001:00036b10       ??1CFolderButton@@UAE@XZ   00437b10 f i Ftab.obj
 0001:00036b20       ?GetRuntimeClass@CFolderButton@@UBEPAUCRuntimeClass@@XZ 00437b20 f   Ftab.obj
 0001:00036b30       ??$wcscpy_s@$0CA@@@YAHAAY0CA@_WPB_W@Z 00437b30 f i Ftab.obj
 0001:00036b50       ??0CFolderButton@@QAE@XZ   00437b50 f i Ftab.obj
 0001:00036b70       ??_GCFolderButton@@UAEPAXI@Z 00437b70 f i Ftab.obj
 0001:00036b70       ??_GCButton@@UAEPAXI@Z     00437b70 f i DlgExportPNG.obj
 0001:00036b70       ??_ECFolderButton@@UAEPAXI@Z 00437b70 f i Ftab.obj
 0001:00036b70       ??_ECButton@@UAEPAXI@Z     00437b70 f i DlgExportPNG.obj
 0001:00036b90       ?Create@CFolderTabCtrl@@UAEHKABUtagRECT@@PAVCWnd@@IK@Z 00437b90 f   Ftab.obj
 0001:00036d30       ?OnCreate@CFolderTabCtrl@@IAEHPAUtagCREATESTRUCTW@@@Z 00437d30 f   Ftab.obj
 0001:00036da0       ?UpdateButtons@CFolderTabCtrl@@IAEXXZ 00437da0 f   Ftab.obj
 0001:00036e60       ?OnNextTab@CFolderTabCtrl@@IAEXXZ 00437e60 f   Ftab.obj
 0001:00036ea0       ?OnPrevTab@CFolderTabCtrl@@IAEXXZ 00437ea0 f   Ftab.obj
 0001:00036ed0       ?OnLButtonDown@CFolderButton@@IAEXIVCPoint@@@Z 00437ed0 f   Ftab.obj
 0001:00036f00       ?OnLButtonUp@CFolderButton@@IAEXIVCPoint@@@Z 00437f00 f   Ftab.obj
 0001:00036f20       ?OnLButtonDblClk@CFolderButton@@IAEXIVCPoint@@@Z 00437f20 f   Ftab.obj
 0001:00036f50       ?OnTimer@CFolderButton@@IAEXI@Z 00437f50 f   Ftab.obj
 0001:00036fd0       ?HitTest@CFolderTabCtrl@@QAEHVCPoint@@@Z 00437fd0 f   Ftab.obj
 0001:000370b0       ?InvalidateTab@CFolderTabCtrl@@IAEXHH@Z 004380b0 f   Ftab.obj
 0001:00037160       ?OnSize@CFolderTabCtrl@@IAEXIHH@Z 00438160 f   Ftab.obj
 0001:000371f0       ?ComputeRgn@CFolderTab@@AAEHAAVCDC@@H@Z 004381f0 f   Ftab.obj
 0001:000372a0       ?SelectItem@CFolderTabCtrl@@QAEHH@Z 004382a0 f   Ftab.obj
 0001:00037300       ?RecomputeLayout@CFolderTabCtrl@@QAEXXZ 00438300 f   Ftab.obj
 0001:00037410       ?GetMessageMap@CFolderButton@@MBEPBUAFX_MSGMAP@@XZ 00438410 f   Ftab.obj
 0001:00037420       ?OnLButtonDown@CFolderTabCtrl@@IAEXIVCPoint@@@Z 00438420 f   Ftab.obj
 0001:000374a0       ?OnRButtonDown@CFolderTabCtrl@@IAEXIVCPoint@@@Z 004384a0 f   Ftab.obj
 0001:00037560       ??1CRgn@@UAE@XZ            00438560 f i Ftab.obj
 0001:00037570       ?Draw@CFolderTab@@AAEHAAVCDC@@AAVCFont@@H@Z 00438570 f   Ftab.obj
 0001:000377e0       ??0CFolderTabCtrl@@QAE@XZ  004387e0 f   Ftab.obj
 0001:000378a0       ??1CFolderTab@@QAE@XZ      004388a0 f i Ftab.obj
 0001:00037920       ?OnPaint@CFolderTabCtrl@@IAEXXZ 00438920 f   Ftab.obj
 0001:00037b90       ?DrawItem@CFolderButton@@MAEXPAUtagDRAWITEMSTRUCT@@@Z 00438b90 f   Ftab.obj
 0001:00037d80       ??_GCRgn@@UAEPAXI@Z        00438d80 f i Ftab.obj
 0001:00037d80       ??_ECRgn@@UAEPAXI@Z        00438d80 f i Ftab.obj
 0001:00037db0       ?RemoveItem@CFolderTabCtrl@@QAEHH@Z 00438db0 f   Ftab.obj
 0001:00037e10       ?GetMessageMap@CFolderTabCtrl@@MBEPBUAFX_MSGMAP@@XZ 00438e10 f   Ftab.obj
 0001:00037e20       ??1CFolderTabCtrl@@UAE@XZ  00438e20 f   Ftab.obj
 0001:00037f10       ?AddItem@CFolderTabCtrl@@QAEHPB_W@Z 00438f10 f   Ftab.obj
 0001:00037fb0       ??_GCFolderTabCtrl@@UAEPAXI@Z 00438fb0 f i Ftab.obj
 0001:00037fb0       ??_ECFolderTabCtrl@@UAEPAXI@Z 00438fb0 f i Ftab.obj
 0001:00037fd0       ?Load@CFolderTabCtrl@@UAEHI@Z 00438fd0 f   Ftab.obj
 0001:00038160       ?Read@CHeaderStamp@@QAEXAAVCStream@@@Z 00439160 f   HeaderStamp.obj
 0001:000381a0       ?IsChecked@CHeaderStamp@@QBE_N_N@Z 004391a0 f   HeaderStamp.obj
 0001:00038220       ??0CHeaderStamp@@QAE@XZ    00439220 f   HeaderStamp.obj
 0001:000382b0       ??0CImage@@QAE@XZ          004392b0 f   Image.obj
 0001:000382c0       ??1CImage@@UAE@XZ          004392c0 f   Image.obj
 0001:000382d0       ??_GCImage@@UAEPAXI@Z      004392d0 f i Image.obj
 0001:000382d0       ??_ECImage@@UAEPAXI@Z      004392d0 f i Image.obj
 0001:000382f0       ?PaintInvalid@CImage@@SAXAAVCDC@@VCRect@@@Z 004392f0 f   Image.obj
 0001:00038370       ?SetCompressedData@CImageBitmap@@UAE_NPAEH@Z 00439370 f   ImageBitmap.obj
 0001:000383a0       ?SaveXML@CImageBitmap@@UAEXAAVCXMLWriter@@@Z 004393a0 f   ImageBitmap.obj
 0001:000383c0       ?CreateCompatibleDC@CDC@@QAEHPAV1@@Z 004393c0 f i ImageBitmap.obj
 0001:00038400       ?SelectObject@CDC@@QAEPAVCBitmap@@PAV2@@Z 00439400 f i ImageBitmap.obj
 0001:00038430       ?Paint@CImageBitmap@@UAEXAAVCDC@@VCRect@@H@Z 00439430 f   ImageBitmap.obj
 0001:000385a0       ?GetSize@CImageBitmap@@UAE?AVCSize@@AAVCDC@@@Z 004395a0 f   ImageBitmap.obj
 0001:00038600       ??1CBitmap@@UAE@XZ         00439600 f i ImageBitmap.obj
 0001:00038610       ??0CImageBitmap@@QAE@XZ    00439610 f   ImageBitmap.obj
 0001:00038650       ??1CImageBitmap@@UAE@XZ    00439650 f   ImageBitmap.obj
 0001:000386e0       ?CreateImageBitmap@CImageBitmap@@QAEPAVCBitmap@@HHAAVCDC@@H@Z 004396e0 f   ImageBitmap.obj
 0001:00038830       ??_GCBitmap@@UAEPAXI@Z     00439830 f i ImageBitmap.obj
 0001:00038830       ??_ECBitmap@@UAEPAXI@Z     00439830 f i ImageBitmap.obj
 0001:00038860       ??_ECImageBitmap@@UAEPAXI@Z 00439860 f i ImageBitmap.obj
 0001:00038860       ??_GCImageBitmap@@UAEPAXI@Z 00439860 f i ImageBitmap.obj
 0001:00038880       ?Rotate@CImageBitmap@@QAEXAAVCDC@@@Z 00439880 f   ImageBitmap.obj
 0001:000389b0       ??0CImageJpeg@@QAE@XZ      004399b0 f   ImageJpeg.obj
 0001:00038a50       ?Read@CImageJpeg@@MAE_NAAVCDC@@PBEH@Z 00439a50 f   ImageJpeg.obj
 0001:00038c20       ??_GCImageJpeg@@UAEPAXI@Z  00439c20 f i ImageJpeg.obj
 0001:00038c20       ??_ECImageJpeg@@UAEPAXI@Z  00439c20 f i ImageJpeg.obj
 0001:00038c50       ?GetType@CImageJpeg@@UAE?AV?$CStringT@_WV?$StrTraitMFC@_WV?$ChTraitsCRT@_W@ATL@@@@@ATL@@XZ 00439c50 f   ImageJpeg.obj
 0001:00038c80       ??0CImageMetafile@@QAE@PAUHENHMETAFILE__@@@Z 00439c80 f   ImageMetafile.obj
 0001:00038ca0       ?SetCompressedData@CImageMetafile@@UAE_NPAEH@Z 00439ca0 f   ImageMetafile.obj
 0001:00038cd0       ?SaveXML@CImageMetafile@@UAEXAAVCXMLWriter@@@Z 00439cd0 f   ImageMetafile.obj
 0001:00038d20       ?GetSize@CImageMetafile@@UAE?AVCSize@@AAVCDC@@@Z 00439d20 f i ImageMetafile.obj
 0001:00038d40       ??_GCImageMetafile@@UAEPAXI@Z 00439d40 f i ImageMetafile.obj
 0001:00038d40       ??_ECImageMetafile@@UAEPAXI@Z 00439d40 f i ImageMetafile.obj
 0001:00038d70       ?Paint@CImageMetafile@@UAEXAAVCDC@@VCRect@@H@Z 00439d70 f   ImageMetafile.obj
 0001:00038ff0       ?GetType@CImageMetafile@@UAE?AV?$CStringT@_WV?$StrTraitMFC@_WV?$ChTraitsCRT@_W@ATL@@@@@ATL@@XZ 00439ff0 f   ImageMetafile.obj
 0001:00039090       ?user_read_function@CImagePNG@@CAXPAUpng_struct_def@@PAEI@Z 0043a090 f   ImagePng.obj
 0001:000390c0       ?Read@CImagePNG@@EAE_NAAVCDC@@PBEH@Z 0043a0c0 f   ImagePng.obj
 0001:00039350       ?CreateOutputBitmap@CImagePNG@@AAEXAAVCBitmap@@AAVCDC@@@Z 0043a350 f   ImagePng.obj
 0001:00039460       ?SortCmpRtn@CImagePNG@@CAHPBX0@Z 0043a460 f   ImagePng.obj
 0001:00039480       ??0CUserException@@QAE@XZ  0043a480 f i ImagePng.obj
 0001:000394a0       ?BitBlt@CDC@@QAEHHHHHPAV1@HHK@Z 0043a4a0 f i ImagePng.obj
 0001:000394e0       ?SubdivColorMap@CImagePNG@@AAE_NPAUNewColorMapType@1@HPAH@Z 0043a4e0 f   ImagePng.obj
 0001:00039790       ??_ECUserException@@UAEPAXI@Z 0043a790 f i ImagePng.obj
 0001:00039790       ??_GCUserException@@UAEPAXI@Z 0043a790 f i ImagePng.obj
 0001:000397b0       ?QuantizeBuffer@CImagePNG@@AAEXAAVCBitmap@@AAVCDC@@@Z 0043a7b0 f   ImagePng.obj
 0001:00039bb0       ??1CFileException@@UAE@XZ  0043abb0 f i ImagePng.obj
 0001:00039be0       ??_GCFileException@@UAEPAXI@Z 0043abe0 f i ImagePng.obj
 0001:00039be0       ??_ECFileException@@UAEPAXI@Z 0043abe0 f i ImagePng.obj
 0001:00039c20       ??0CImagePNG@@QAE@XZ       0043ac20 f   ImagePng.obj
 0001:00039c50       ??1CImagePNG@@UAE@XZ       0043ac50 f   ImagePng.obj
 0001:00039cc0       ?GetType@CImagePNG@@UAE?AV?$CStringT@_WV?$StrTraitMFC@_WV?$ChTraitsCRT@_W@ATL@@@@@ATL@@XZ 0043acc0 f   ImagePng.obj
 0001:00039cf0       ?Save@CImagePNG@@AAEXAAVCDC@@PAX11@Z 0043acf0 f   ImagePng.obj
 0001:00039f00       ??_GCImagePNG@@UAEPAXI@Z   0043af00 f i ImagePng.obj
 0001:00039f00       ??_ECImagePNG@@UAEPAXI@Z   0043af00 f i ImagePng.obj
 0001:00039f20       ?ImportBitmap@CImagePNG@@QAE_NAAVCBitmap@@@Z 0043af20 f   ImagePng.obj
 0001:0003a0f0       ?Save@CImagePNG@@QAEXAAVCDC@@PB_W@Z 0043b0f0 f   ImagePng.obj
 0001:0003a140       ??0CFileException@@QAE@HJPB_W@Z 0043b140 f i ImagePng.obj
 0001:0003a200       ?ImportBMP@CImagePNG@@QAE_NPB_W@Z 0043b200 f   ImagePng.obj
 0001:0003a670       ?GetRuntimeClass@CInitDialogBar@@UBEPAUCRuntimeClass@@XZ 0043b670 f   InitDialogBar.obj
 0001:0003a680       ??0CInitDialogBar@@QAE@XZ  0043b680 f   InitDialogBar.obj
 0001:0003a6a0       ??1CInitDialogBar@@UAE@XZ  0043b6a0 f   InitDialogBar.obj
 0001:0003a6b0       ?Create@CInitDialogBar@@UAEHPAVCWnd@@PB_WII@Z 0043b6b0 f   InitDialogBar.obj
 0001:0003a6f0       ?Create@CInitDialogBar@@UAEHPAVCWnd@@III@Z 0043b6f0 f   InitDialogBar.obj
 0001:0003a740       ?OnInitDialogBar@CInitDialogBar@@MAEHXZ 0043b740 f   InitDialogBar.obj
 0001:0003a750       ?GetThisMessageMap@CInitDialogBar@@KGPBUAFX_MSGMAP@@XZ 0043b750 f   InitDialogBar.obj
 0001:0003a750       ?GetMessageMap@CInitDialogBar@@MBEPBUAFX_MSGMAP@@XZ 0043b750 f   InitDialogBar.obj
 0001:0003a750       ?GetMessageMap@CDlgPositionBox@@MBEPBUAFX_MSGMAP@@XZ 0043b750 f   DlgPositionBox.obj
 0001:0003a760       ??_GCInitDialogBar@@UAEPAXI@Z 0043b760 f i InitDialogBar.obj
 0001:0003a760       ??_ECInitDialogBar@@UAEPAXI@Z 0043b760 f i InitDialogBar.obj
 0001:0003a790       ?LoadFonts@COption@@QAEXAAVCStream@@@Z 0043b790 f i Io.obj
 0001:0003a7b0       ?LoadStyles@COption@@QAEXAAVCStream@@@Z 0043b7b0 f i Io.obj
 0001:0003a7d0       ?LoadFillStyles@COption@@QAEXAAVCStream@@@Z 0043b7d0 f i Io.obj
 0001:0003a7f0       ?LoadMetaFiles@COption@@QAEXAAVCStream@@@Z 0043b7f0 f i Io.obj
 0001:0003a810       ?LoadSymbols@COption@@QAEXAAVCStream@@@Z 0043b810 f i Io.obj
 0001:0003a830       ?LoadMetaFileXML@COption@@QAEXAAVCXMLReader@@@Z 0043b830 f i Io.obj
 0001:0003a850       ?LoadSymbolXML@COption@@QAEXAAVCXMLReader@@@Z 0043b850 f i Io.obj
 0001:0003a870       ?Load@TransformSnap@@QAEXAAVCStream@@H@Z 0043b870 f i Io.obj
 0001:0003a8c0       ??0CDrawTag@@QAE@PAVCTinyCadDoc@@@Z 0043b8c0 f i Io.obj
 0001:0003a960       ?GetType@CDrawTag@@UAE?AW4ObjType@@XZ 0043b960 f i Io.obj
 0001:0003a970       ?IsInside@CDrawTag@@UAEHNNNN@Z 0043b970 f i Io.obj
 0001:0003a980       ??_ECDrawTag@@UAEPAXI@Z    0043b980 f i Io.obj
 0001:0003a980       ??_GCDrawTag@@UAEPAXI@Z    0043b980 f i Io.obj
 0001:0003aa00       ?_Copy@?$_Tree@V?$_Tset_traits@PAVCDrawingObject@@U?$less@PAVCDrawingObject@@@std@@V?$allocator@PAVCDrawingObject@@@3@$0A@@std@@@std@@IAEPAU_Node@?$_Tree_nod@V?$_Tset_traits@PAVCDrawingObject@@U?$less@PAVCDrawingObject@@@std@@V?$allocator@PAVCDrawingObject@@@3@$0A@@std@@@2@PAU342@0@Z 0043ba00 f i Io.obj
 0001:0003aac0       ?SaveXML@CTinyCadDoc@@QAEXAAVCXMLWriter@@AAV?$list@PAVCDrawingObject@@V?$allocator@PAVCDrawingObject@@@std@@@std@@HHH@Z 0043bac0 f   Io.obj
 0001:0003adb0       ?_Copy@?$_Tree@V?$_Tset_traits@PAVCDrawingObject@@U?$less@PAVCDrawingObject@@@std@@V?$allocator@PAVCDrawingObject@@@3@$0A@@std@@@std@@IAEXABV12@@Z 0043bdb0 f i Io.obj
 0001:0003ae30       ?SaveXML@CTinyCadDoc@@QAEXAAVCXMLWriter@@HH@Z 0043be30 f   Io.obj
 0001:0003ae50       ?GetXMLTag@CTinyCadDoc@@UAE?AV?$CStringT@_WV?$StrTraitMFC@_WV?$ChTraitsCRT@_W@ATL@@@@@ATL@@XZ 0043be50 f   Io.obj
 0001:0003ae80       ?SetTagName@CDrawTag@@UAEXPB_W@Z 0043be80 f i Io.obj
 0001:0003aec0       ?insert@?$list@PAVCDrawingObject@@V?$allocator@PAVCDrawingObject@@@std@@@std@@QAE?AV?$_Iterator@$00@12@V?$_Const_iterator@$00@12@ABQAVCDrawingObject@@@Z 0043bec0 f i Io.obj
 0001:0003af50       ??0?$_Tree@V?$_Tset_traits@PAVCDrawingObject@@U?$less@PAVCDrawingObject@@@std@@V?$allocator@PAVCDrawingObject@@@3@$0A@@std@@@std@@QAE@ABV01@@Z 0043bf50 f i Io.obj
 0001:0003b000       ??4?$set@PAVCDrawingObject@@U?$less@PAVCDrawingObject@@@std@@V?$allocator@PAVCDrawingObject@@@3@@std@@QAEAAV01@ABV01@@Z 0043c000 f i Io.obj
 0001:0003b040       ?ReadFileXML@CTinyCadDoc@@QAEHAAVCXMLReader@@HAAV?$list@PAVCDrawingObject@@V?$allocator@PAVCDrawingObject@@@std@@@std@@H@Z 0043c040 f   Io.obj
 0001:0003bb50       ?Save@CTinyCadDoc@@QAEHHH@Z 0043cb50 f   Io.obj
 0001:0003be70       ?ReadFileXML@CTinyCadDoc@@QAEHAAVCXMLReader@@H@Z 0043ce70 f   Io.obj
 0001:0003bf60       ?ReadFile@CTinyCadDoc@@QAEHAAVCStream@@HAAV?$list@PAVCDrawingObject@@V?$allocator@PAVCDrawingObject@@@std@@@std@@@Z 0043cf60 f   Io.obj
 0001:0003c980       ?ReadFile@CTinyCadDoc@@QAEHAAVCStream@@@Z 0043d980 f   Io.obj
 0001:0003ca60       ??0CDrawEditItem@@QAE@PAVCTinyCadDoc@@@Z 0043da60 f   Item.obj
 0001:0003caf0       ?GetType@CDrawEditItem@@UAE?AW4ObjType@@XZ 0043daf0 f i Item.obj
 0001:0003cb00       ?getMenuID@CDrawEditItem@@UAEHXZ 0043db00 f i Item.obj
 0001:0003cb10       ??1CDrawEditItem@@UAE@XZ   0043db10 f i Item.obj
 0001:0003cb60       ?BeginEdit@CDrawEditItem@@UAEXH@Z 0043db60 f   Item.obj
 0001:0003cb90       ?Display@CDrawEditItem@@UAEXH@Z 0043db90 f   Item.obj
 0001:0003cc20       ?EndEdit@CDrawEditItem@@UAEXXZ 0043dc20 f   Item.obj
 0001:0003cc60       ?LButtonUp@CDrawEditItem@@UAEXVCDPoint@@@Z 0043dc60 f   Item.obj
 0001:0003cdd0       ?ReleaseSelection@CDrawEditItem@@UAEXXZ 0043ddd0 f   Item.obj
 0001:0003ce30       ?DblLButtonDown@CDrawingObject@@UAEXVCDPoint@@0@Z 0043de30 f   DrawingObject.obj
 0001:0003ce30       ?RButtonUp@CDrawingObject@@UAEXVCDPoint@@0@Z 0043de30 f   DrawingObject.obj
 0001:0003ce30       ?RButtonUp@CDrawEditItem@@UAEXVCDPoint@@0@Z 0043de30 f   Item.obj
 0001:0003ce40       ?EndSelection@CDrawEditItem@@UAEXXZ 0043de40 f   Item.obj
 0001:0003ced0       ??1CMenu@@UAE@XZ           0043ded0 f i Item.obj
 0001:0003cee0       ?GetSubMenu@CMenu@@QBEPAV1@H@Z 0043dee0 f i Item.obj
 0001:0003cf00       ??_GCDrawEditItem@@UAEPAXI@Z 0043df00 f i Item.obj
 0001:0003cf00       ??_ECDrawEditItem@@UAEPAXI@Z 0043df00 f i Item.obj
 0001:0003cf20       ??_GCMenu@@UAEPAXI@Z       0043df20 f i Item.obj
 0001:0003cf20       ??_ECMenu@@UAEPAXI@Z       0043df20 f i Item.obj
 0001:0003cf50       ?GetClosestObject@CDrawEditItem@@AAEPAVCDrawingObject@@VCDPoint@@@Z 0043df50 f   Item.obj
 0001:0003d060       ?Move@CDrawEditItem@@UAEXVCDPoint@@0@Z 0043e060 f   Item.obj
 0001:0003d2e0       ?ClickSelection@CDrawEditItem@@AAEXVCDPoint@@0@Z 0043e2e0 f   Item.obj
 0001:0003d500       ?LButtonDown@CDrawEditItem@@UAEXVCDPoint@@0@Z 0043e500 f   Item.obj
 0001:0003d600       ?RButtonDown@CDrawEditItem@@UAEHVCDPoint@@0@Z 0043e600 f   Item.obj
 0001:0003d760       ?NewOptions@CDrawEditItem@@UAEXXZ 0043e760 f   Item.obj
 0001:0003d800       ?SetCursor@CDrawEditItem@@UAEHVCDPoint@@@Z 0043e800 f   Item.obj
 0001:0003d920       ?ContextMenu@CDrawEditItem@@UAEXVCDPoint@@I@Z 0043e920 f   Item.obj
 0001:0003dab0       ??0todo_point@CJunctionUtils@@QAE@VCDPoint@@0@Z 0043eab0 f i JunctionUtils.obj
 0001:0003db00       ??Mtodo_point@CJunctionUtils@@QBE_NU01@@Z 0043eb00 f i JunctionUtils.obj
 0001:0003dba0       ??R?$less@VCDPoint@@@std@@QBE_NABVCDPoint@@0@Z 0043eba0 f i JunctionUtils.obj
 0001:0003dbd0       ?_Max@?$_Tree@V?$_Tset_traits@Utodo_point@CJunctionUtils@@U?$less@Utodo_point@CJunctionUtils@@@std@@V?$allocator@Utodo_point@CJunctionUtils@@@4@$0A@@std@@@std@@KAPAU_Node@?$_Tree_nod@V?$_Tset_traits@Utodo_point@CJunctionUtils@@U?$less@Utodo_point@CJunctionUtils@@@std@@V?$allocator@Utodo_point@CJunctionUtils@@@4@$0A@@std@@@2@PAU342@@Z 0043ebd0 f i JunctionUtils.obj
 0001:0003dbf0       ?_Min@?$_Tree@V?$_Tset_traits@Utodo_point@CJunctionUtils@@U?$less@Utodo_point@CJunctionUtils@@@std@@V?$allocator@Utodo_point@CJunctionUtils@@@4@$0A@@std@@@std@@KAPAU_Node@?$_Tree_nod@V?$_Tset_traits@Utodo_point@CJunctionUtils@@U?$less@Utodo_point@CJunctionUtils@@@std@@V?$allocator@Utodo_point@CJunctionUtils@@@4@$0A@@std@@@2@PAU342@@Z 0043ebf0 f i JunctionUtils.obj
 0001:0003dc10       ?_Min@?$_Tree@V?$_Tset_traits@VCDPoint@@U?$less@VCDPoint@@@std@@V?$allocator@VCDPoint@@@3@$0A@@std@@@std@@KAPAU_Node@?$_Tree_nod@V?$_Tset_traits@VCDPoint@@U?$less@VCDPoint@@@std@@V?$allocator@VCDPoint@@@3@$0A@@std@@@2@PAU342@@Z 0043ec10 f i JunctionUtils.obj
 0001:0003dc30       ?_Max@?$_Tree@V?$_Tset_traits@VCDPoint@@U?$less@VCDPoint@@@std@@V?$allocator@VCDPoint@@@3@$0A@@std@@@std@@KAPAU_Node@?$_Tree_nod@V?$_Tset_traits@VCDPoint@@U?$less@VCDPoint@@@std@@V?$allocator@VCDPoint@@@3@$0A@@std@@@2@PAU342@@Z 0043ec30 f i JunctionUtils.obj
 0001:0003dc50       ?_Lrotate@?$_Tree@V?$_Tset_traits@Utodo_point@CJunctionUtils@@U?$less@Utodo_point@CJunctionUtils@@@std@@V?$allocator@Utodo_point@CJunctionUtils@@@4@$0A@@std@@@std@@IAEXPAU_Node@?$_Tree_nod@V?$_Tset_traits@Utodo_point@CJunctionUtils@@U?$less@Utodo_point@CJunctionUtils@@@std@@V?$allocator@Utodo_point@CJunctionUtils@@@4@$0A@@std@@@2@@Z 0043ec50 f i JunctionUtils.obj
 0001:0003dca0       ?_Rrotate@?$_Tree@V?$_Tset_traits@Utodo_point@CJunctionUtils@@U?$less@Utodo_point@CJunctionUtils@@@std@@V?$allocator@Utodo_point@CJunctionUtils@@@4@$0A@@std@@@std@@IAEXPAU_Node@?$_Tree_nod@V?$_Tset_traits@Utodo_point@CJunctionUtils@@U?$less@Utodo_point@CJunctionUtils@@@std@@V?$allocator@Utodo_point@CJunctionUtils@@@4@$0A@@std@@@2@@Z 0043eca0 f i JunctionUtils.obj
 0001:0003dd00       ?_Lrotate@?$_Tree@V?$_Tset_traits@VCDPoint@@U?$less@VCDPoint@@@std@@V?$allocator@VCDPoint@@@3@$0A@@std@@@std@@IAEXPAU_Node@?$_Tree_nod@V?$_Tset_traits@VCDPoint@@U?$less@VCDPoint@@@std@@V?$allocator@VCDPoint@@@3@$0A@@std@@@2@@Z 0043ed00 f i JunctionUtils.obj
 0001:0003dd50       ?_Rrotate@?$_Tree@V?$_Tset_traits@VCDPoint@@U?$less@VCDPoint@@@std@@V?$allocator@VCDPoint@@@3@$0A@@std@@@std@@IAEXPAU_Node@?$_Tree_nod@V?$_Tset_traits@VCDPoint@@U?$less@VCDPoint@@@std@@V?$allocator@VCDPoint@@@3@$0A@@std@@@2@@Z 0043ed50 f i JunctionUtils.obj
 0001:0003ddb0       ?_Inc@const_iterator@?$_Tree@V?$_Tset_traits@VCDPoint@@U?$less@VCDPoint@@@std@@V?$allocator@VCDPoint@@@3@$0A@@std@@@std@@QAEXXZ 0043edb0 f i JunctionUtils.obj
 0001:0003de20       ?_Inc@const_iterator@?$_Tree@V?$_Tset_traits@Utodo_point@CJunctionUtils@@U?$less@Utodo_point@CJunctionUtils@@@std@@V?$allocator@Utodo_point@CJunctionUtils@@@4@$0A@@std@@@std@@QAEXXZ 0043ee20 f i JunctionUtils.obj
 0001:0003de90       ?_Dec@const_iterator@?$_Tree@V?$_Tset_traits@VCDPoint@@U?$less@VCDPoint@@@std@@V?$allocator@VCDPoint@@@3@$0A@@std@@@std@@QAEXXZ 0043ee90 f i JunctionUtils.obj
 0001:0003df20       ?_Dec@const_iterator@?$_Tree@V?$_Tset_traits@Utodo_point@CJunctionUtils@@U?$less@Utodo_point@CJunctionUtils@@@std@@V?$allocator@Utodo_point@CJunctionUtils@@@4@$0A@@std@@@std@@QAEXXZ 0043ef20 f i JunctionUtils.obj
 0001:0003dfb0       ?_Erase@?$_Tree@V?$_Tset_traits@Utodo_point@CJunctionUtils@@U?$less@Utodo_point@CJunctionUtils@@@std@@V?$allocator@Utodo_point@CJunctionUtils@@@4@$0A@@std@@@std@@IAEXPAU_Node@?$_Tree_nod@V?$_Tset_traits@Utodo_point@CJunctionUtils@@U?$less@Utodo_point@CJunctionUtils@@@std@@V?$allocator@Utodo_point@CJunctionUtils@@@4@$0A@@std@@@2@@Z 0043efb0 f i JunctionUtils.obj
 0001:0003dff0       ?_Erase@?$_Tree@V?$_Tset_traits@VCDPoint@@U?$less@VCDPoint@@@std@@V?$allocator@VCDPoint@@@3@$0A@@std@@@std@@IAEXPAU_Node@?$_Tree_nod@V?$_Tset_traits@VCDPoint@@U?$less@VCDPoint@@@std@@V?$allocator@VCDPoint@@@3@$0A@@std@@@2@@Z 0043eff0 f i JunctionUtils.obj
 0001:0003e030       ?_Buynode@?$_Tree@V?$_Tset_traits@Utodo_point@CJunctionUtils@@U?$less@Utodo_point@CJunctionUtils@@@std@@V?$allocator@Utodo_point@CJunctionUtils@@@4@$0A@@std@@@std@@IAEPAU_Node@?$_Tree_nod@V?$_Tset_traits@Utodo_point@CJunctionUtils@@U?$less@Utodo_point@CJunctionUtils@@@std@@V?$allocator@Utodo_point@CJunctionUtils@@@4@$0A@@std@@@2@PAU342@00ABUtodo_point@CJunctionUtils@@D@Z 0043f030 f i JunctionUtils.obj
 0001:0003e080       ?_Buynode@?$_Tree@V?$_Tset_traits@VCDPoint@@U?$less@VCDPoint@@@std@@V?$allocator@VCDPoint@@@3@$0A@@std@@@std@@IAEPAU_Node@?$_Tree_nod@V?$_Tset_traits@VCDPoint@@U?$less@VCDPoint@@@std@@V?$allocator@VCDPoint@@@3@$0A@@std@@@2@PAU342@00ABVCDPoint@@D@Z 0043f080 f i JunctionUtils.obj
 0001:0003e0d0       ?_Buynode@?$_Tree@V?$_Tset_traits@Utodo_point@CJunctionUtils@@U?$less@Utodo_point@CJunctionUtils@@@std@@V?$allocator@Utodo_point@CJunctionUtils@@@4@$0A@@std@@@std@@IAEPAU_Node@?$_Tree_nod@V?$_Tset_traits@Utodo_point@CJunctionUtils@@U?$less@Utodo_point@CJunctionUtils@@@std@@V?$allocator@Utodo_point@CJunctionUtils@@@4@$0A@@std@@@2@XZ 0043f0d0 f i JunctionUtils.obj
 0001:0003e110       ?_Buynode@?$_Tree@V?$_Tset_traits@VCDPoint@@U?$less@VCDPoint@@@std@@V?$allocator@VCDPoint@@@3@$0A@@std@@@std@@IAEPAU_Node@?$_Tree_nod@V?$_Tset_traits@VCDPoint@@U?$less@VCDPoint@@@std@@V?$allocator@VCDPoint@@@3@$0A@@std@@@2@XZ 0043f110 f i JunctionUtils.obj
 0001:0003e150       ?PaintJunctions@CJunctionUtils@@QAEXAAVCContext@@W4paint_options@@@Z 0043f150 f   JunctionUtils.obj
 0001:0003e480       ??0?$_Tree@V?$_Tset_traits@Utodo_point@CJunctionUtils@@U?$less@Utodo_point@CJunctionUtils@@@std@@V?$allocator@Utodo_point@CJunctionUtils@@@4@$0A@@std@@@std@@QAE@ABU?$less@Utodo_point@CJunctionUtils@@@1@ABV?$allocator@Utodo_point@CJunctionUtils@@@1@@Z 0043f480 f i JunctionUtils.obj
 0001:0003e510       ??0?$_Tree@V?$_Tset_traits@VCDPoint@@U?$less@VCDPoint@@@std@@V?$allocator@VCDPoint@@@3@$0A@@std@@@std@@QAE@ABU?$less@VCDPoint@@@1@ABV?$allocator@VCDPoint@@@1@@Z 0043f510 f i JunctionUtils.obj
 0001:0003e5a0       ?erase@?$_Tree@V?$_Tset_traits@VCDPoint@@U?$less@VCDPoint@@@std@@V?$allocator@VCDPoint@@@3@$0A@@std@@@std@@QAE?AViterator@12@Vconst_iterator@12@@Z 0043f5a0 f i JunctionUtils.obj
 0001:0003e870       ?erase@?$_Tree@V?$_Tset_traits@Utodo_point@CJunctionUtils@@U?$less@Utodo_point@CJunctionUtils@@@std@@V?$allocator@Utodo_point@CJunctionUtils@@@4@$0A@@std@@@std@@QAE?AViterator@12@Vconst_iterator@12@@Z 0043f870 f i JunctionUtils.obj
 0001:0003eb40       ?_Insert@?$_Tree@V?$_Tset_traits@Utodo_point@CJunctionUtils@@U?$less@Utodo_point@CJunctionUtils@@@std@@V?$allocator@Utodo_point@CJunctionUtils@@@4@$0A@@std@@@std@@IAE?AViterator@12@_NPAU_Node@?$_Tree_nod@V?$_Tset_traits@Utodo_point@CJunctionUtils@@U?$less@Utodo_point@CJunctionUtils@@@std@@V?$allocator@Utodo_point@CJunctionUtils@@@4@$0A@@std@@@2@ABUtodo_point@CJunctionUtils@@@Z 0043fb40 f i JunctionUtils.obj
 0001:0003ed40       ?_Insert@?$_Tree@V?$_Tset_traits@VCDPoint@@U?$less@VCDPoint@@@std@@V?$allocator@VCDPoint@@@3@$0A@@std@@@std@@IAE?AViterator@12@_NPAU_Node@?$_Tree_nod@V?$_Tset_traits@VCDPoint@@U?$less@VCDPoint@@@std@@V?$allocator@VCDPoint@@@3@$0A@@std@@@2@ABVCDPoint@@@Z 0043fd40 f i JunctionUtils.obj
 0001:0003ef40       ?erase@?$_Tree@V?$_Tset_traits@VCDPoint@@U?$less@VCDPoint@@@std@@V?$allocator@VCDPoint@@@3@$0A@@std@@@std@@QAE?AViterator@12@Vconst_iterator@12@0@Z 0043ff40 f i JunctionUtils.obj
 0001:0003f020       ?insert@?$_Tree@V?$_Tset_traits@Utodo_point@CJunctionUtils@@U?$less@Utodo_point@CJunctionUtils@@@std@@V?$allocator@Utodo_point@CJunctionUtils@@@4@$0A@@std@@@std@@QAE?AU?$pair@Viterator@?$_Tree@V?$_Tset_traits@Utodo_point@CJunctionUtils@@U?$less@Utodo_point@CJunctionUtils@@@std@@V?$allocator@Utodo_point@CJunctionUtils@@@4@$0A@@std@@@std@@_N@2@ABUtodo_point@CJunctionUtils@@@Z 00440020 f i JunctionUtils.obj
 0001:0003f150       ?erase@?$_Tree@V?$_Tset_traits@Utodo_point@CJunctionUtils@@U?$less@Utodo_point@CJunctionUtils@@@std@@V?$allocator@Utodo_point@CJunctionUtils@@@4@$0A@@std@@@std@@QAE?AViterator@12@Vconst_iterator@12@0@Z 00440150 f i JunctionUtils.obj
 0001:0003f230       ?insert@?$_Tree@V?$_Tset_traits@VCDPoint@@U?$less@VCDPoint@@@std@@V?$allocator@VCDPoint@@@3@$0A@@std@@@std@@QAE?AU?$pair@Viterator@?$_Tree@V?$_Tset_traits@VCDPoint@@U?$less@VCDPoint@@@std@@V?$allocator@VCDPoint@@@3@$0A@@std@@@std@@_N@2@ABVCDPoint@@@Z 00440230 f i JunctionUtils.obj
 0001:0003f350       ?CheckJunctionRequirement@CJunctionUtils@@QAEXVCDPoint@@_N@Z 00440350 f   JunctionUtils.obj
 0001:0003fad0       ?AddObjectToTodo@CJunctionUtils@@QAEXPAVCDrawingObject@@@Z 00440ad0 f   JunctionUtils.obj
 0001:0003fc90       ??1?$_Tree@V?$_Tset_traits@Utodo_point@CJunctionUtils@@U?$less@Utodo_point@CJunctionUtils@@@std@@V?$allocator@Utodo_point@CJunctionUtils@@@4@$0A@@std@@@std@@QAE@XZ 00440c90 f i JunctionUtils.obj
 0001:0003fd10       ??1?$_Tree@V?$_Tset_traits@VCDPoint@@U?$less@VCDPoint@@@std@@V?$allocator@VCDPoint@@@3@$0A@@std@@@std@@QAE@XZ 00440d10 f i JunctionUtils.obj
 0001:0003fd90       ??1?$set@Utodo_point@CJunctionUtils@@U?$less@Utodo_point@CJunctionUtils@@@std@@V?$allocator@Utodo_point@CJunctionUtils@@@4@@std@@QAE@XZ 00440d90 f i JunctionUtils.obj
 0001:0003fda0       ??1CJunctionUtils@@UAE@XZ  00440da0 f   JunctionUtils.obj
 0001:0003fe00       ??1?$set@VCDPoint@@U?$less@VCDPoint@@@std@@V?$allocator@VCDPoint@@@3@@std@@QAE@XZ 00440e00 f i JunctionUtils.obj
 0001:0003fe10       ??0CJunctionUtils@@QAE@PAVCTinyCadDoc@@@Z 00440e10 f   JunctionUtils.obj
 0001:0003fe90       ??_GCJunctionUtils@@UAEPAXI@Z 00440e90 f i JunctionUtils.obj
 0001:0003fe90       ??_ECJunctionUtils@@UAEPAXI@Z 00440e90 f i JunctionUtils.obj
 0001:0003feb0       ?CheckJunctionRequirement@CJunctionUtils@@QAEXVCDPoint@@0_N@Z 00440eb0 f   JunctionUtils.obj
 0001:00040390       ?CheckTodoList@CJunctionUtils@@QAEX_N@Z 00441390 f   JunctionUtils.obj
 0001:000405f0       ?Flush@CStreamFile@@UAEXXZ 004415f0 f i Library.obj
 0001:00040600       ??0CLibraryFile@@QAE@XZ    00441600 f   Library.obj
 0001:00040670       ??1CLibraryFile@@UAE@XZ    00441670 f   Library.obj
 0001:000406f0       ?DeleteSymbol@CLibraryFile@@UAEXAAVCLibraryStoreNameSet@@@Z 004416f0 f   Library.obj
 0001:00040710       ?Store@CLibraryFile@@UAEXPAVCLibraryStoreNameSet@@AAVCTinyCadMultiSymbolDoc@@@Z 00441710 f   Library.obj
 0001:00040710       ?Paint@CDrawingObject@@UAEXAAVCContext@@W4paint_options@@@Z 00441710 f   DrawingObject.obj
 0001:00040720       ??1?$pair@$$CBHVCLibraryStoreNameSet@@@std@@QAE@XZ 00441720 f i Library.obj
 0001:00040730       ?_Max@?$_Tree@V?$_Tmap_traits@V?$CStringT@_WV?$StrTraitMFC@_WV?$ChTraitsCRT@_W@ATL@@@@@ATL@@VCNetListSymbol@@U?$less@V?$CStringT@_WV?$StrTraitMFC@_WV?$ChTraitsCRT@_W@ATL@@@@@ATL@@@std@@V?$allocator@U?$pair@$$CBV?$CStringT@_WV?$StrTraitMFC@_WV?$ChTraitsCRT@_W@ATL@@@@@ATL@@VCNetListSymbol@@@std@@@5@$0A@@std@@@std@@KAPAU_Node@?$_Tree_nod@V?$_Tmap_traits@V?$CStringT@_WV?$StrTraitMFC@_WV?$ChTraitsCRT@_W@ATL@@@@@ATL@@VCNetListSymbol@@U?$less@V?$CStringT@_WV?$StrTraitMFC@_WV?$ChTraitsCRT@_W@ATL@@@@@ATL@@@std@@V?$allocator@U?$pair@$$CBV?$CStringT@_WV?$StrTraitMFC@_WV?$ChTraitsCRT@_W@ATL@@@@@ATL@@VCNetListSymbol@@@std@@@5@$0A@@std@@@2@PAU342@@Z 00441730 f i NetList.obj
 0001:00040730       ?_Max@?$_Tree@V?$_Tmap_traits@HVCLibraryStoreNameSet@@U?$less@H@std@@V?$allocator@U?$pair@$$CBHVCLibraryStoreNameSet@@@std@@@3@$0A@@std@@@std@@KAPAU_Node@?$_Tree_nod@V?$_Tmap_traits@HVCLibraryStoreNameSet@@U?$less@H@std@@V?$allocator@U?$pair@$$CBHVCLibraryStoreNameSet@@@std@@@3@$0A@@std@@@2@PAU342@@Z 00441730 f i Library.obj
 0001:00040750       ?_Rrotate@?$_Tree@V?$_Tmap_traits@V?$CStringT@_WV?$StrTraitMFC@_WV?$ChTraitsCRT@_W@ATL@@@@@ATL@@VCNetListSymbol@@U?$less@V?$CStringT@_WV?$StrTraitMFC@_WV?$ChTraitsCRT@_W@ATL@@@@@ATL@@@std@@V?$allocator@U?$pair@$$CBV?$CStringT@_WV?$StrTraitMFC@_WV?$ChTraitsCRT@_W@ATL@@@@@ATL@@VCNetListSymbol@@@std@@@5@$0A@@std@@@std@@IAEXPAU_Node@?$_Tree_nod@V?$_Tmap_traits@V?$CStringT@_WV?$StrTraitMFC@_WV?$ChTraitsCRT@_W@ATL@@@@@ATL@@VCNetListSymbol@@U?$less@V?$CStringT@_WV?$StrTraitMFC@_WV?$ChTraitsCRT@_W@ATL@@@@@ATL@@@std@@V?$allocator@U?$pair@$$CBV?$CStringT@_WV?$StrTraitMFC@_WV?$ChTraitsCRT@_W@ATL@@@@@ATL@@VCNetListSymbol@@@std@@@5@$0A@@std@@@2@@Z 00441750 f i NetList.obj
 0001:00040750       ?_Rrotate@?$_Tree@V?$_Tmap_traits@HVCLibraryStoreNameSet@@U?$less@H@std@@V?$allocator@U?$pair@$$CBHVCLibraryStoreNameSet@@@std@@@3@$0A@@std@@@std@@IAEXPAU_Node@?$_Tree_nod@V?$_Tmap_traits@HVCLibraryStoreNameSet@@U?$less@H@std@@V?$allocator@U?$pair@$$CBHVCLibraryStoreNameSet@@@std@@@3@$0A@@std@@@2@@Z 00441750 f i Library.obj
 0001:000407b0       ?OnIdle@CLibraryFile@@UAEXXZ 004417b0 f i Library.obj
 0001:000407d0       ??_GCLibraryFile@@UAEPAXI@Z 004417d0 f i Library.obj
 0001:000407d0       ??_ECLibraryFile@@UAEPAXI@Z 004417d0 f i Library.obj
 0001:000407f0       ?_Inc@const_iterator@?$_Tree@V?$_Tmap_traits@V?$CStringT@_WV?$StrTraitMFC@_WV?$ChTraitsCRT@_W@ATL@@@@@ATL@@VCNetListSymbol@@U?$less@V?$CStringT@_WV?$StrTraitMFC@_WV?$ChTraitsCRT@_W@ATL@@@@@ATL@@@std@@V?$allocator@U?$pair@$$CBV?$CStringT@_WV?$StrTraitMFC@_WV?$ChTraitsCRT@_W@ATL@@@@@ATL@@VCNetListSymbol@@@std@@@5@$0A@@std@@@std@@QAEXXZ 004417f0 f i NetList.obj
 0001:000407f0       ?_Inc@const_iterator@?$_Tree@V?$_Tmap_traits@HVCLibraryStoreNameSet@@U?$less@H@std@@V?$allocator@U?$pair@$$CBHVCLibraryStoreNameSet@@@std@@@3@$0A@@std@@@std@@QAEXXZ 004417f0 f i Library.obj
 0001:00040860       ?_Lrotate@?$_Tree@V?$_Tmap_traits@V?$CStringT@_WV?$StrTraitMFC@_WV?$ChTraitsCRT@_W@ATL@@@@@ATL@@V12@U?$less@V?$CStringT@_WV?$StrTraitMFC@_WV?$ChTraitsCRT@_W@ATL@@@@@ATL@@@std@@V?$allocator@U?$pair@$$CBV?$CStringT@_WV?$StrTraitMFC@_WV?$ChTraitsCRT@_W@ATL@@@@@ATL@@V12@@std@@@4@$0A@@std@@@std@@IAEXPAU_Node@?$_Tree_nod@V?$_Tmap_traits@V?$CStringT@_WV?$StrTraitMFC@_WV?$ChTraitsCRT@_W@ATL@@@@@ATL@@V12@U?$less@V?$CStringT@_WV?$StrTraitMFC@_WV?$ChTraitsCRT@_W@ATL@@@@@ATL@@@std@@V?$allocator@U?$pair@$$CBV?$CStringT@_WV?$StrTraitMFC@_WV?$ChTraitsCRT@_W@ATL@@@@@ATL@@V12@@std@@@4@$0A@@std@@@2@@Z 00441860 f i xml_parse_tag.obj
 0001:00040860       ?_Lrotate@?$_Tree@V?$_Tmap_traits@HHU?$less@H@std@@V?$allocator@U?$pair@$$CBHH@std@@@2@$0A@@std@@@std@@IAEXPAU_Node@?$_Tree_nod@V?$_Tmap_traits@HHU?$less@H@std@@V?$allocator@U?$pair@$$CBHH@std@@@2@$0A@@std@@@2@@Z 00441860 f i DlgColours.obj
 0001:00040860       ?_Lrotate@?$_Tree@V?$_Tmap_traits@HKU?$less@H@std@@V?$allocator@U?$pair@$$CBHK@std@@@2@$0A@@std@@@std@@IAEXPAU_Node@?$_Tree_nod@V?$_Tmap_traits@HKU?$less@H@std@@V?$allocator@U?$pair@$$CBHK@std@@@2@$0A@@std@@@2@@Z 00441860 f i DlgColours.obj
 0001:00040860       ?_Lrotate@?$_Tree@V?$_Tmap_traits@W4ObjType@@FU?$less@W4ObjType@@@std@@V?$allocator@U?$pair@$$CBW4ObjType@@F@std@@@3@$0A@@std@@@std@@IAEXPAU_Node@?$_Tree_nod@V?$_Tmap_traits@W4ObjType@@FU?$less@W4ObjType@@@std@@V?$allocator@U?$pair@$$CBW4ObjType@@F@std@@@3@$0A@@std@@@2@@Z 00441860 f i DrawLabel.obj
 0001:00040860       ?_Lrotate@?$_Tree@V?$_Tmap_traits@HV?$CStringT@_WV?$StrTraitMFC@_WV?$ChTraitsCRT@_W@ATL@@@@@ATL@@U?$less@H@std@@V?$allocator@U?$pair@$$CBHV?$CStringT@_WV?$StrTraitMFC@_WV?$ChTraitsCRT@_W@ATL@@@@@ATL@@@std@@@4@$0A@@std@@@std@@IAEXPAU_Node@?$_Tree_nod@V?$_Tmap_traits@HV?$CStringT@_WV?$StrTraitMFC@_WV?$ChTraitsCRT@_W@ATL@@@@@ATL@@U?$less@H@std@@V?$allocator@U?$pair@$$CBHV?$CStringT@_WV?$StrTraitMFC@_WV?$ChTraitsCRT@_W@ATL@@@@@ATL@@@std@@@4@$0A@@std@@@2@@Z 00441860 f i NetList.obj
 0001:00040860       ?_Lrotate@?$_Tree@V?$_Tmap_traits@V?$CStringT@_WV?$StrTraitMFC@_WV?$ChTraitsCRT@_W@ATL@@@@@ATL@@HU?$less@V?$CStringT@_WV?$StrTraitMFC@_WV?$ChTraitsCRT@_W@ATL@@@@@ATL@@@std@@V?$allocator@U?$pair@$$CBV?$CStringT@_WV?$StrTraitMFC@_WV?$ChTraitsCRT@_W@ATL@@@@@ATL@@H@std@@@4@$0A@@std@@@std@@IAEXPAU_Node@?$_Tree_nod@V?$_Tmap_traits@V?$CStringT@_WV?$StrTraitMFC@_WV?$ChTraitsCRT@_W@ATL@@@@@ATL@@HU?$less@V?$CStringT@_WV?$StrTraitMFC@_WV?$ChTraitsCRT@_W@ATL@@@@@ATL@@@std@@V?$allocator@U?$pair@$$CBV?$CStringT@_WV?$StrTraitMFC@_WV?$ChTraitsCRT@_W@ATL@@@@@ATL@@H@std@@@4@$0A@@std@@@2@@Z 00441860 f i Library.obj
 0001:00040860       ?_Lrotate@?$_Tree@V?$_Tmap_traits@V?$CStringT@_WV?$StrTraitMFC@_WV?$ChTraitsCRT@_W@ATL@@@@@ATL@@HU?$less@V?$CStringT@_WV?$StrTraitMFC@_WV?$ChTraitsCRT@_W@ATL@@@@@ATL@@@std@@V?$allocator@U?$pair@$$CBV?$CStringT@_WV?$StrTraitMFC@_WV?$ChTraitsCRT@_W@ATL@@@@@ATL@@H@std@@@4@$00@std@@@std@@IAEXPAU_Node@?$_Tree_nod@V?$_Tmap_traits@V?$CStringT@_WV?$StrTraitMFC@_WV?$ChTraitsCRT@_W@ATL@@@@@ATL@@HU?$less@V?$CStringT@_WV?$StrTraitMFC@_WV?$ChTraitsCRT@_W@ATL@@@@@ATL@@@std@@V?$allocator@U?$pair@$$CBV?$CStringT@_WV?$StrTraitMFC@_WV?$ChTraitsCRT@_W@ATL@@@@@ATL@@H@std@@@4@$00@std@@@2@@Z 00441860 f i LibraryDoc.obj
 0001:000408b0       ?_Inc@const_iterator@?$_Tree@V?$_Tmap_traits@V?$CStringT@_WV?$StrTraitMFC@_WV?$ChTraitsCRT@_W@ATL@@@@@ATL@@V12@U?$less@V?$CStringT@_WV?$StrTraitMFC@_WV?$ChTraitsCRT@_W@ATL@@@@@ATL@@@std@@V?$allocator@U?$pair@$$CBV?$CStringT@_WV?$StrTraitMFC@_WV?$ChTraitsCRT@_W@ATL@@@@@ATL@@V12@@std@@@4@$0A@@std@@@std@@QAEXXZ 004418b0 f i xml_parse_tag.obj
 0001:000408b0       ?_Inc@const_iterator@?$_Tree@V?$_Tmap_traits@W4ObjType@@FU?$less@W4ObjType@@@std@@V?$allocator@U?$pair@$$CBW4ObjType@@F@std@@@3@$0A@@std@@@std@@QAEXXZ 004418b0 f i DrawLabel.obj
 0001:000408b0       ?_Inc@const_iterator@?$_Tree@V?$_Tmap_traits@HHU?$less@H@std@@V?$allocator@U?$pair@$$CBHH@std@@@2@$0A@@std@@@std@@QAEXXZ 004418b0 f i DlgColours.obj
 0001:000408b0       ?_Inc@const_iterator@?$_Tree@V?$_Tmap_traits@HV?$CStringT@_WV?$StrTraitMFC@_WV?$ChTraitsCRT@_W@ATL@@@@@ATL@@U?$less@H@std@@V?$allocator@U?$pair@$$CBHV?$CStringT@_WV?$StrTraitMFC@_WV?$ChTraitsCRT@_W@ATL@@@@@ATL@@@std@@@4@$0A@@std@@@std@@QAEXXZ 004418b0 f i NetList.obj
 0001:000408b0       ?_Inc@const_iterator@?$_Tree@V?$_Tmap_traits@V?$CStringT@_WV?$StrTraitMFC@_WV?$ChTraitsCRT@_W@ATL@@@@@ATL@@HU?$less@V?$CStringT@_WV?$StrTraitMFC@_WV?$ChTraitsCRT@_W@ATL@@@@@ATL@@@std@@V?$allocator@U?$pair@$$CBV?$CStringT@_WV?$StrTraitMFC@_WV?$ChTraitsCRT@_W@ATL@@@@@ATL@@H@std@@@4@$0A@@std@@@std@@QAEXXZ 004418b0 f i Library.obj
 0001:000408b0       ?_Inc@const_iterator@?$_Tree@V?$_Tmap_traits@V?$CStringT@_WV?$StrTraitMFC@_WV?$ChTraitsCRT@_W@ATL@@@@@ATL@@HU?$less@V?$CStringT@_WV?$StrTraitMFC@_WV?$ChTraitsCRT@_W@ATL@@@@@ATL@@@std@@V?$allocator@U?$pair@$$CBV?$CStringT@_WV?$StrTraitMFC@_WV?$ChTraitsCRT@_W@ATL@@@@@ATL@@H@std@@@4@$00@std@@@std@@QAEXXZ 004418b0 f i LibraryDoc.obj
 0001:000408b0       ?_Inc@const_iterator@?$_Tree@V?$_Tmap_traits@HKU?$less@H@std@@V?$allocator@U?$pair@$$CBHK@std@@@2@$0A@@std@@@std@@QAEXXZ 004418b0 f i DlgColours.obj
 0001:00040920       ?_Lbound@?$_Tree@V?$_Tmap_traits@V?$CStringT@_WV?$StrTraitMFC@_WV?$ChTraitsCRT@_W@ATL@@@@@ATL@@HU?$less@V?$CStringT@_WV?$StrTraitMFC@_WV?$ChTraitsCRT@_W@ATL@@@@@ATL@@@std@@V?$allocator@U?$pair@$$CBV?$CStringT@_WV?$StrTraitMFC@_WV?$ChTraitsCRT@_W@ATL@@@@@ATL@@H@std@@@4@$0A@@std@@@std@@IBEPAU_Node@?$_Tree_nod@V?$_Tmap_traits@V?$CStringT@_WV?$StrTraitMFC@_WV?$ChTraitsCRT@_W@ATL@@@@@ATL@@HU?$less@V?$CStringT@_WV?$StrTraitMFC@_WV?$ChTraitsCRT@_W@ATL@@@@@ATL@@@std@@V?$allocator@U?$pair@$$CBV?$CStringT@_WV?$StrTraitMFC@_WV?$ChTraitsCRT@_W@ATL@@@@@ATL@@H@std@@@4@$0A@@std@@@2@ABV?$CStringT@_WV?$StrTraitMFC@_WV?$ChTraitsCRT@_W@ATL@@@@@ATL@@@Z 00441920 f i Library.obj
 0001:00040920       ?_Lbound@?$_Tree@V?$_Tmap_traits@V?$CStringT@_WV?$StrTraitMFC@_WV?$ChTraitsCRT@_W@ATL@@@@@ATL@@V12@U?$less@V?$CStringT@_WV?$StrTraitMFC@_WV?$ChTraitsCRT@_W@ATL@@@@@ATL@@@std@@V?$allocator@U?$pair@$$CBV?$CStringT@_WV?$StrTraitMFC@_WV?$ChTraitsCRT@_W@ATL@@@@@ATL@@V12@@std@@@4@$0A@@std@@@std@@IBEPAU_Node@?$_Tree_nod@V?$_Tmap_traits@V?$CStringT@_WV?$StrTraitMFC@_WV?$ChTraitsCRT@_W@ATL@@@@@ATL@@V12@U?$less@V?$CStringT@_WV?$StrTraitMFC@_WV?$ChTraitsCRT@_W@ATL@@@@@ATL@@@std@@V?$allocator@U?$pair@$$CBV?$CStringT@_WV?$StrTraitMFC@_WV?$ChTraitsCRT@_W@ATL@@@@@ATL@@V12@@std@@@4@$0A@@std@@@2@ABV?$CStringT@_WV?$StrTraitMFC@_WV?$ChTraitsCRT@_W@ATL@@@@@ATL@@@Z 00441920 f i xml_parse_tag.obj
 0001:00040990       ?MethodsFileName@CLibraryFile@@AAE?AV?$CStringT@_WV?$StrTraitMFC@_WV?$ChTraitsCRT@_W@ATL@@@@@ATL@@XZ 00441990 f   Library.obj
 0001:00040c30       ?find@?$_Tree@V?$_Tmap_traits@HVCLibraryStoreNameSet@@U?$less@H@std@@V?$allocator@U?$pair@$$CBHVCLibraryStoreNameSet@@@std@@@3@$0A@@std@@@std@@QAE?AViterator@12@ABH@Z 00441c30 f i Library.obj
 0001:00040cc0       ?_Buynode@?$_Tree@V?$_Tmap_traits@V?$CStringT@_WV?$StrTraitMFC@_WV?$ChTraitsCRT@_W@ATL@@@@@ATL@@HU?$less@V?$CStringT@_WV?$StrTraitMFC@_WV?$ChTraitsCRT@_W@ATL@@@@@ATL@@@std@@V?$allocator@U?$pair@$$CBV?$CStringT@_WV?$StrTraitMFC@_WV?$ChTraitsCRT@_W@ATL@@@@@ATL@@H@std@@@4@$00@std@@@std@@IAEPAU_Node@?$_Tree_nod@V?$_Tmap_traits@V?$CStringT@_WV?$StrTraitMFC@_WV?$ChTraitsCRT@_W@ATL@@@@@ATL@@HU?$less@V?$CStringT@_WV?$StrTraitMFC@_WV?$ChTraitsCRT@_W@ATL@@@@@ATL@@@std@@V?$allocator@U?$pair@$$CBV?$CStringT@_WV?$StrTraitMFC@_WV?$ChTraitsCRT@_W@ATL@@@@@ATL@@H@std@@@4@$00@std@@@2@PAU342@00ABU?$pair@$$CBV?$CStringT@_WV?$StrTraitMFC@_WV?$ChTraitsCRT@_W@ATL@@@@@ATL@@H@2@D@Z 00441cc0 f i LibraryDoc.obj
 0001:00040cc0       ?_Buynode@?$_Tree@V?$_Tmap_traits@V?$CStringT@_WV?$StrTraitMFC@_WV?$ChTraitsCRT@_W@ATL@@@@@ATL@@HU?$less@V?$CStringT@_WV?$StrTraitMFC@_WV?$ChTraitsCRT@_W@ATL@@@@@ATL@@@std@@V?$allocator@U?$pair@$$CBV?$CStringT@_WV?$StrTraitMFC@_WV?$ChTraitsCRT@_W@ATL@@@@@ATL@@H@std@@@4@$0A@@std@@@std@@IAEPAU_Node@?$_Tree_nod@V?$_Tmap_traits@V?$CStringT@_WV?$StrTraitMFC@_WV?$ChTraitsCRT@_W@ATL@@@@@ATL@@HU?$less@V?$CStringT@_WV?$StrTraitMFC@_WV?$ChTraitsCRT@_W@ATL@@@@@ATL@@@std@@V?$allocator@U?$pair@$$CBV?$CStringT@_WV?$StrTraitMFC@_WV?$ChTraitsCRT@_W@ATL@@@@@ATL@@H@std@@@4@$0A@@std@@@2@PAU342@00ABU?$pair@$$CBV?$CStringT@_WV?$StrTraitMFC@_WV?$ChTraitsCRT@_W@ATL@@@@@ATL@@H@2@D@Z 00441cc0 f i Library.obj
 0001:00040d70       ?Create@CLibraryFile@@UAE_NPB_W@Z 00441d70 f   Library.obj
 0001:00040db0       ?_Insert@?$_Tree@V?$_Tmap_traits@V?$CStringT@_WV?$StrTraitMFC@_WV?$ChTraitsCRT@_W@ATL@@@@@ATL@@HU?$less@V?$CStringT@_WV?$StrTraitMFC@_WV?$ChTraitsCRT@_W@ATL@@@@@ATL@@@std@@V?$allocator@U?$pair@$$CBV?$CStringT@_WV?$StrTraitMFC@_WV?$ChTraitsCRT@_W@ATL@@@@@ATL@@H@std@@@4@$00@std@@@std@@IAE?AViterator@12@_NPAU_Node@?$_Tree_nod@V?$_Tmap_traits@V?$CStringT@_WV?$StrTraitMFC@_WV?$ChTraitsCRT@_W@ATL@@@@@ATL@@HU?$less@V?$CStringT@_WV?$StrTraitMFC@_WV?$ChTraitsCRT@_W@ATL@@@@@ATL@@@std@@V?$allocator@U?$pair@$$CBV?$CStringT@_WV?$StrTraitMFC@_WV?$ChTraitsCRT@_W@ATL@@@@@ATL@@H@std@@@4@$00@std@@@2@ABU?$pair@$$CBV?$CStringT@_WV?$StrTraitMFC@_WV?$ChTraitsCRT@_W@ATL@@@@@ATL@@H@2@@Z 00441db0 f i LibraryDoc.obj
 0001:00040db0       ?_Insert@?$_Tree@V?$_Tmap_traits@V?$CStringT@_WV?$StrTraitMFC@_WV?$ChTraitsCRT@_W@ATL@@@@@ATL@@HU?$less@V?$CStringT@_WV?$StrTraitMFC@_WV?$ChTraitsCRT@_W@ATL@@@@@ATL@@@std@@V?$allocator@U?$pair@$$CBV?$CStringT@_WV?$StrTraitMFC@_WV?$ChTraitsCRT@_W@ATL@@@@@ATL@@H@std@@@4@$0A@@std@@@std@@IAE?AViterator@12@_NPAU_Node@?$_Tree_nod@V?$_Tmap_traits@V?$CStringT@_WV?$StrTraitMFC@_WV?$ChTraitsCRT@_W@ATL@@@@@ATL@@HU?$less@V?$CStringT@_WV?$StrTraitMFC@_WV?$ChTraitsCRT@_W@ATL@@@@@ATL@@@std@@V?$allocator@U?$pair@$$CBV?$CStringT@_WV?$StrTraitMFC@_WV?$ChTraitsCRT@_W@ATL@@@@@ATL@@H@std@@@4@$0A@@std@@@2@ABU?$pair@$$CBV?$CStringT@_WV?$StrTraitMFC@_WV?$ChTraitsCRT@_W@ATL@@@@@ATL@@H@2@@Z 00441db0 f i Library.obj
 0001:00040fb0       ?erase@?$_Tree@V?$_Tmap_traits@V?$CStringT@_WV?$StrTraitMFC@_WV?$ChTraitsCRT@_W@ATL@@@@@ATL@@HU?$less@V?$CStringT@_WV?$StrTraitMFC@_WV?$ChTraitsCRT@_W@ATL@@@@@ATL@@@std@@V?$allocator@U?$pair@$$CBV?$CStringT@_WV?$StrTraitMFC@_WV?$ChTraitsCRT@_W@ATL@@@@@ATL@@H@std@@@4@$0A@@std@@@std@@QAE?AViterator@12@Vconst_iterator@12@@Z 00441fb0 f i Library.obj
 0001:00040fb0       ?erase@?$_Tree@V?$_Tmap_traits@V?$CStringT@_WV?$StrTraitMFC@_WV?$ChTraitsCRT@_W@ATL@@@@@ATL@@HU?$less@V?$CStringT@_WV?$StrTraitMFC@_WV?$ChTraitsCRT@_W@ATL@@@@@ATL@@@std@@V?$allocator@U?$pair@$$CBV?$CStringT@_WV?$StrTraitMFC@_WV?$ChTraitsCRT@_W@ATL@@@@@ATL@@H@std@@@4@$00@std@@@std@@QAE?AViterator@12@Vconst_iterator@12@@Z 00441fb0 f i LibraryDoc.obj
 0001:000412a0       ?_Erase@?$_Tree@V?$_Tmap_traits@V?$CStringT@_WV?$StrTraitMFC@_WV?$ChTraitsCRT@_W@ATL@@@@@ATL@@HU?$less@V?$CStringT@_WV?$StrTraitMFC@_WV?$ChTraitsCRT@_W@ATL@@@@@ATL@@@std@@V?$allocator@U?$pair@$$CBV?$CStringT@_WV?$StrTraitMFC@_WV?$ChTraitsCRT@_W@ATL@@@@@ATL@@H@std@@@4@$0A@@std@@@std@@IAEXPAU_Node@?$_Tree_nod@V?$_Tmap_traits@V?$CStringT@_WV?$StrTraitMFC@_WV?$ChTraitsCRT@_W@ATL@@@@@ATL@@HU?$less@V?$CStringT@_WV?$StrTraitMFC@_WV?$ChTraitsCRT@_W@ATL@@@@@ATL@@@std@@V?$allocator@U?$pair@$$CBV?$CStringT@_WV?$StrTraitMFC@_WV?$ChTraitsCRT@_W@ATL@@@@@ATL@@H@std@@@4@$0A@@std@@@2@@Z 004422a0 f i Library.obj
 0001:000412a0       ?_Erase@?$_Tree@V?$_Tmap_traits@V?$CStringT@_WV?$StrTraitMFC@_WV?$ChTraitsCRT@_W@ATL@@@@@ATL@@HU?$less@V?$CStringT@_WV?$StrTraitMFC@_WV?$ChTraitsCRT@_W@ATL@@@@@ATL@@@std@@V?$allocator@U?$pair@$$CBV?$CStringT@_WV?$StrTraitMFC@_WV?$ChTraitsCRT@_W@ATL@@@@@ATL@@H@std@@@4@$00@std@@@std@@IAEXPAU_Node@?$_Tree_nod@V?$_Tmap_traits@V?$CStringT@_WV?$StrTraitMFC@_WV?$ChTraitsCRT@_W@ATL@@@@@ATL@@HU?$less@V?$CStringT@_WV?$StrTraitMFC@_WV?$ChTraitsCRT@_W@ATL@@@@@ATL@@@std@@V?$allocator@U?$pair@$$CBV?$CStringT@_WV?$StrTraitMFC@_WV?$ChTraitsCRT@_W@ATL@@@@@ATL@@H@std@@@4@$00@std@@@2@@Z 004422a0 f i LibraryDoc.obj
 0001:00041300       ?GetMethodArchive@CLibraryFile@@UAEPAVCStream@@PAVCLibraryStoreNameSet@@@Z 00442300 f   Library.obj
 0001:000414a0       ?OpenIndexFile@CLibraryFile@@QAEHAAVCFile@@H@Z 004424a0 f   Library.obj
 0001:00041610       ?erase@?$_Tree@V?$_Tmap_traits@HVCLibraryStoreNameSet@@U?$less@H@std@@V?$allocator@U?$pair@$$CBHVCLibraryStoreNameSet@@@std@@@3@$0A@@std@@@std@@QAE?AViterator@12@Vconst_iterator@12@@Z 00442610 f i Library.obj
 0001:000418f0       ?insert@?$_Tree@V?$_Tmap_traits@V?$CStringT@_WV?$StrTraitMFC@_WV?$ChTraitsCRT@_W@ATL@@@@@ATL@@HU?$less@V?$CStringT@_WV?$StrTraitMFC@_WV?$ChTraitsCRT@_W@ATL@@@@@ATL@@@std@@V?$allocator@U?$pair@$$CBV?$CStringT@_WV?$StrTraitMFC@_WV?$ChTraitsCRT@_W@ATL@@@@@ATL@@H@std@@@4@$0A@@std@@@std@@QAE?AU?$pair@Viterator@?$_Tree@V?$_Tmap_traits@V?$CStringT@_WV?$StrTraitMFC@_WV?$ChTraitsCRT@_W@ATL@@@@@ATL@@HU?$less@V?$CStringT@_WV?$StrTraitMFC@_WV?$ChTraitsCRT@_W@ATL@@@@@ATL@@@std@@V?$allocator@U?$pair@$$CBV?$CStringT@_WV?$StrTraitMFC@_WV?$ChTraitsCRT@_W@ATL@@@@@ATL@@H@std@@@4@$0A@@std@@@std@@_N@2@ABU?$pair@$$CBV?$CStringT@_WV?$StrTraitMFC@_WV?$ChTraitsCRT@_W@ATL@@@@@ATL@@H@2@@Z 004428f0 f i Library.obj
 0001:00041a40       ?insert@?$_Tree@V?$_Tmap_traits@V?$CStringT@_WV?$StrTraitMFC@_WV?$ChTraitsCRT@_W@ATL@@@@@ATL@@HU?$less@V?$CStringT@_WV?$StrTraitMFC@_WV?$ChTraitsCRT@_W@ATL@@@@@ATL@@@std@@V?$allocator@U?$pair@$$CBV?$CStringT@_WV?$StrTraitMFC@_WV?$ChTraitsCRT@_W@ATL@@@@@ATL@@H@std@@@4@$0A@@std@@@std@@QAE?AViterator@12@Vconst_iterator@12@ABU?$pair@$$CBV?$CStringT@_WV?$StrTraitMFC@_WV?$ChTraitsCRT@_W@ATL@@@@@ATL@@H@2@@Z 00442a40 f i Library.obj
 0001:00041c70       ?erase@?$_Tree@V?$_Tmap_traits@V?$CStringT@_WV?$StrTraitMFC@_WV?$ChTraitsCRT@_W@ATL@@@@@ATL@@HU?$less@V?$CStringT@_WV?$StrTraitMFC@_WV?$ChTraitsCRT@_W@ATL@@@@@ATL@@@std@@V?$allocator@U?$pair@$$CBV?$CStringT@_WV?$StrTraitMFC@_WV?$ChTraitsCRT@_W@ATL@@@@@ATL@@H@std@@@4@$00@std@@@std@@QAE?AViterator@12@Vconst_iterator@12@0@Z 00442c70 f i LibraryDoc.obj
 0001:00041c70       ?erase@?$_Tree@V?$_Tmap_traits@V?$CStringT@_WV?$StrTraitMFC@_WV?$ChTraitsCRT@_W@ATL@@@@@ATL@@HU?$less@V?$CStringT@_WV?$StrTraitMFC@_WV?$ChTraitsCRT@_W@ATL@@@@@ATL@@@std@@V?$allocator@U?$pair@$$CBV?$CStringT@_WV?$StrTraitMFC@_WV?$ChTraitsCRT@_W@ATL@@@@@ATL@@H@std@@@4@$0A@@std@@@std@@QAE?AViterator@12@Vconst_iterator@12@0@Z 00442c70 f i Library.obj
 0001:00041d50       ??A?$map@V?$CStringT@_WV?$StrTraitMFC@_WV?$ChTraitsCRT@_W@ATL@@@@@ATL@@HU?$less@V?$CStringT@_WV?$StrTraitMFC@_WV?$ChTraitsCRT@_W@ATL@@@@@ATL@@@std@@V?$allocator@U?$pair@$$CBV?$CStringT@_WV?$StrTraitMFC@_WV?$ChTraitsCRT@_W@ATL@@@@@ATL@@H@std@@@4@@std@@QAEAAHABV?$CStringT@_WV?$StrTraitMFC@_WV?$ChTraitsCRT@_W@ATL@@@@@ATL@@@Z 00442d50 f i Library.obj
 0001:00041e50       ?_Tidy@?$_Tree@V?$_Tmap_traits@V?$CStringT@_WV?$StrTraitMFC@_WV?$ChTraitsCRT@_W@ATL@@@@@ATL@@HU?$less@V?$CStringT@_WV?$StrTraitMFC@_WV?$ChTraitsCRT@_W@ATL@@@@@ATL@@@std@@V?$allocator@U?$pair@$$CBV?$CStringT@_WV?$StrTraitMFC@_WV?$ChTraitsCRT@_W@ATL@@@@@ATL@@H@std@@@4@$0A@@std@@@std@@IAEXXZ 00442e50 f i Library.obj
 0001:00041e90       ??1?$_Tree@V?$_Tmap_traits@V?$CStringT@_WV?$StrTraitMFC@_WV?$ChTraitsCRT@_W@ATL@@@@@ATL@@HU?$less@V?$CStringT@_WV?$StrTraitMFC@_WV?$ChTraitsCRT@_W@ATL@@@@@ATL@@@std@@V?$allocator@U?$pair@$$CBV?$CStringT@_WV?$StrTraitMFC@_WV?$ChTraitsCRT@_W@ATL@@@@@ATL@@H@std@@@4@$0A@@std@@@std@@QAE@XZ 00442e90 f i Library.obj
 0001:00041e90       ??1?$_Tree@V?$_Tmap_traits@V?$CStringT@_WV?$StrTraitMFC@_WV?$ChTraitsCRT@_W@ATL@@@@@ATL@@HU?$less@V?$CStringT@_WV?$StrTraitMFC@_WV?$ChTraitsCRT@_W@ATL@@@@@ATL@@@std@@V?$allocator@U?$pair@$$CBV?$CStringT@_WV?$StrTraitMFC@_WV?$ChTraitsCRT@_W@ATL@@@@@ATL@@H@std@@@4@$00@std@@@std@@QAE@XZ 00442e90 f i LibraryDoc.obj
 0001:00041f10       ??1?$map@V?$CStringT@_WV?$StrTraitMFC@_WV?$ChTraitsCRT@_W@ATL@@@@@ATL@@HU?$less@V?$CStringT@_WV?$StrTraitMFC@_WV?$ChTraitsCRT@_W@ATL@@@@@ATL@@@std@@V?$allocator@U?$pair@$$CBV?$CStringT@_WV?$StrTraitMFC@_WV?$ChTraitsCRT@_W@ATL@@@@@ATL@@H@std@@@4@@std@@QAE@XZ 00442f10 f i Library.obj
 0001:00041f20       ??$_Uninit_copy@PAVCLibraryStoreSymbol@@PAV1@V?$allocator@VCLibraryStoreSymbol@@@std@@@std@@YAPAVCLibraryStoreSymbol@@PAV1@00AAV?$allocator@VCLibraryStoreSymbol@@@0@U_Nonscalar_ptr_iterator_tag@0@U_Range_checked_iterator_tag@0@@Z 00442f20 f i DlgUpdateBox.obj
 0001:00041f20       ??$_Uninit_copy@PBVCLibraryStoreSymbol@@PAV1@V?$allocator@VCLibraryStoreSymbol@@@std@@@std@@YAPAVCLibraryStoreSymbol@@PBV1@0PAV1@AAV?$allocator@VCLibraryStoreSymbol@@@0@U_Nonscalar_ptr_iterator_tag@0@U_Range_checked_iterator_tag@0@@Z 00442f20 f i Library.obj
 0001:00041fd0       ?erase@?$vector@VCLibraryStoreSymbol@@V?$allocator@VCLibraryStoreSymbol@@@std@@@std@@QAE?AV?$_Vector_iterator@VCLibraryStoreSymbol@@V?$allocator@VCLibraryStoreSymbol@@@std@@@2@V?$_Vector_const_iterator@VCLibraryStoreSymbol@@V?$allocator@VCLibraryStoreSymbol@@@std@@@2@0@Z 00442fd0 f i Library.obj
 0001:00042090       ??0?$vector@VCLibraryStoreSymbol@@V?$allocator@VCLibraryStoreSymbol@@@std@@@std@@QAE@ABV01@@Z 00443090 f i Library.obj
 0001:00042180       ?clear@?$vector@VCLibraryStoreSymbol@@V?$allocator@VCLibraryStoreSymbol@@@std@@@std@@QAEXXZ 00443180 f i Library.obj
 0001:000421c0       ??_ECLibraryStoreNameSet@@UAEPAXI@Z 004431c0 f i Library.obj
 0001:000421c0       ??_GCLibraryStoreNameSet@@UAEPAXI@Z 004431c0 f i Library.obj
 0001:000421e0       ??4?$vector@VCLibraryStoreSymbol@@V?$allocator@VCLibraryStoreSymbol@@@std@@@std@@QAEAAV01@ABV01@@Z 004431e0 f i Library.obj
 0001:00042360       ?Upgrade@CLibraryFile@@UAEHPAVCLibraryStore@@@Z 00443360 f   Library.obj
 0001:000427e0       ??0_Node@?$_Tree_nod@V?$_Tmap_traits@HVCLibraryStoreNameSet@@U?$less@H@std@@V?$allocator@U?$pair@$$CBHVCLibraryStoreNameSet@@@std@@@3@$0A@@std@@@std@@QAE@PAU012@00ABU?$pair@$$CBHVCLibraryStoreNameSet@@@2@D@Z 004437e0 f i Library.obj
 0001:00042840       ?_Buynode@?$_Tree@V?$_Tmap_traits@HVCLibraryStoreNameSet@@U?$less@H@std@@V?$allocator@U?$pair@$$CBHVCLibraryStoreNameSet@@@std@@@3@$0A@@std@@@std@@IAEPAU_Node@?$_Tree_nod@V?$_Tmap_traits@HVCLibraryStoreNameSet@@U?$less@H@std@@V?$allocator@U?$pair@$$CBHVCLibraryStoreNameSet@@@std@@@3@$0A@@std@@@2@PAU342@00ABU?$pair@$$CBHVCLibraryStoreNameSet@@@2@D@Z 00443840 f i Library.obj
 0001:000428e0       ?_Insert@?$_Tree@V?$_Tmap_traits@HVCLibraryStoreNameSet@@U?$less@H@std@@V?$allocator@U?$pair@$$CBHVCLibraryStoreNameSet@@@std@@@3@$0A@@std@@@std@@IAE?AViterator@12@_NPAU_Node@?$_Tree_nod@V?$_Tmap_traits@HVCLibraryStoreNameSet@@U?$less@H@std@@V?$allocator@U?$pair@$$CBHVCLibraryStoreNameSet@@@std@@@3@$0A@@std@@@2@ABU?$pair@$$CBHVCLibraryStoreNameSet@@@2@@Z 004438e0 f i Library.obj
 0001:00042ae0       ?insert@?$_Tree@V?$_Tmap_traits@HVCLibraryStoreNameSet@@U?$less@H@std@@V?$allocator@U?$pair@$$CBHVCLibraryStoreNameSet@@@std@@@3@$0A@@std@@@std@@QAE?AU?$pair@Viterator@?$_Tree@V?$_Tmap_traits@HVCLibraryStoreNameSet@@U?$less@H@std@@V?$allocator@U?$pair@$$CBHVCLibraryStoreNameSet@@@std@@@3@$0A@@std@@@std@@_N@2@ABU?$pair@$$CBHVCLibraryStoreNameSet@@@2@@Z 00443ae0 f i Library.obj
 0001:00042bd0       ?insert@?$_Tree@V?$_Tmap_traits@HVCLibraryStoreNameSet@@U?$less@H@std@@V?$allocator@U?$pair@$$CBHVCLibraryStoreNameSet@@@std@@@3@$0A@@std@@@std@@QAE?AViterator@12@Vconst_iterator@12@ABU?$pair@$$CBHVCLibraryStoreNameSet@@@2@@Z 00443bd0 f i Library.obj
 0001:00042da0       ??A?$map@HVCLibraryStoreNameSet@@U?$less@H@std@@V?$allocator@U?$pair@$$CBHVCLibraryStoreNameSet@@@std@@@3@@std@@QAEAAVCLibraryStoreNameSet@@ABH@Z 00443da0 f i Library.obj
 0001:00042ef0       ?Attach@CLibraryFile@@UAEXPB_W@Z 00443ef0 f   Library.obj
 0001:000434a0       ?InsertMenuW@CMenu@@QAEHIIIPB_W@Z 004444a0 f i LibraryCollection.obj
 0001:000434d0       ?_Buynode@?$list@PAVCDrawingObject@@V?$allocator@PAVCDrawingObject@@@std@@@std@@IAEPAU_Node@?$_List_nod@PAVCDrawingObject@@V?$allocator@PAVCDrawingObject@@@std@@@2@PAU342@0ABQAVCDrawingObject@@@Z 004444d0 f i DrawHierarchicalSymbol.obj
 0001:000434d0       ?_Buynode@?$list@PAVCLibraryStore@@V?$allocator@PAVCLibraryStore@@@std@@@std@@IAEPAU_Node@?$_List_nod@PAVCLibraryStore@@V?$allocator@PAVCLibraryStore@@@std@@@2@PAU342@0ABQAVCLibraryStore@@@Z 004444d0 f i LibraryCollection.obj
 0001:00043510       ?Clear@CLibraryCollection@@SAXXZ 00444510 f   LibraryCollection.obj
 0001:000435c0       ?DoIdle@CLibraryCollection@@SAXXZ 004445c0 f   LibraryCollection.obj
 0001:00043630       ?Contains@CLibraryCollection@@SA_NPAVCLibraryStore@@@Z 00444630 f   LibraryCollection.obj
 0001:000436f0       ?ContainsSymbol@CLibraryCollection@@SA_NPAVCLibraryStoreNameSet@@@Z 004446f0 f   LibraryCollection.obj
 0001:00043780       ?GetLibrary@CLibraryCollection@@SAPAVCLibraryStore@@V?$CStringT@_WV?$StrTraitMFC@_WV?$ChTraitsCRT@_W@ATL@@@@@ATL@@@Z 00444780 f   LibraryCollection.obj
 0001:00043880       ?GetSymbol@CLibraryCollection@@SAPAVCLibraryStoreNameSet@@V?$CStringT@_WV?$StrTraitMFC@_WV?$ChTraitsCRT@_W@ATL@@@@@ATL@@@Z 00444880 f   LibraryCollection.obj
 0001:00043970       ?FillLibraryNames@CLibraryCollection@@SAXPAVCListBox@@@Z 00444970 f   LibraryCollection.obj
 0001:00043a30       ?FillLibraryNames@CLibraryCollection@@SAXHPAVCMenu@@@Z 00444a30 f   LibraryCollection.obj
 0001:00043ad0       ?GetLibraryByIndex@CLibraryCollection@@SAPAVCLibraryStore@@H@Z 00444ad0 f   LibraryCollection.obj
 0001:00043b70       ?FillMatchingSymbols@CLibraryCollection@@SAXPAVCListBox@@V?$CStringT@_WV?$StrTraitMFC@_WV?$ChTraitsCRT@_W@ATL@@@@@ATL@@0@Z 00444b70 f   LibraryCollection.obj
 0001:00043d00       ?remove@?$list@PAVCLibraryStore@@V?$allocator@PAVCLibraryStore@@@std@@@std@@QAEXABQAVCLibraryStore@@@Z 00444d00 f i LibraryCollection.obj
 0001:00043da0       ?Remove@CLibraryCollection@@SAXPAVCLibraryStore@@@Z 00444da0 f   LibraryCollection.obj
 0001:00043dc0       ?SaveToRegistry@CLibraryCollection@@SAXXZ 00444dc0 f   LibraryCollection.obj
 0001:00043f10       ?Add@CLibraryCollection@@SAXPAVCLibraryStore@@@Z 00444f10 f   LibraryCollection.obj
 0001:00043f50       ?Upgrade@CLibraryCollection@@SAPAVCLibraryStore@@PAV2@@Z 00444f50 f   LibraryCollection.obj
 0001:00044080       ??0CLibraryDb@@QAE@XZ      00445080 f   LibraryDb.obj
 0001:000440e0       ??1CLibraryDb@@UAE@XZ      004450e0 f   LibraryDb.obj
 0001:00044140       ?Upgrade@CLibraryDb@@UAEHPAVCLibraryStore@@@Z 00445140 f   LibraryDb.obj
 0001:00044160       ??_ECLibraryDb@@UAEPAXI@Z  00445160 f i LibraryDb.obj
 0001:00044160       ??_GCLibraryDb@@UAEPAXI@Z  00445160 f i LibraryDb.obj
 0001:00044180       ??1CHeaderStamp@@QAE@XZ    00445180 f i Io.obj
 0001:00044180       ??1?$CStringT@_WV?$StrTraitMFC@_WV?$ChTraitsCRT@_W@ATL@@@@@ATL@@QAE@XZ 00445180 f i AutoSave.obj
 0001:00044180       ??1?$CSimpleStringT@_W$0A@@ATL@@QAE@XZ 00445180 f i AutoSave.obj
 0001:00044180       ??1?$pair@V?$CStringT@_WV?$StrTraitMFC@_WV?$ChTraitsCRT@_W@ATL@@@@@ATL@@H@std@@QAE@XZ 00445180 f i LibraryDoc.obj
 0001:00044180       ??1?$pair@$$CBV?$CStringT@_WV?$StrTraitMFC@_WV?$ChTraitsCRT@_W@ATL@@@@@ATL@@H@std@@QAE@XZ 00445180 f i Library.obj
 0001:00044180       ??1CDaoIndexFieldInfo@@QAE@XZ 00445180 f i LibraryDb.obj
 0001:000441a0       ?DeleteSymbol@CLibraryDb@@IAEXH@Z 004451a0 f   LibraryDb.obj
 0001:00044310       ?DeleteSymbol@CLibraryDb@@UAEXAAVCLibraryStoreNameSet@@@Z 00445310 f   LibraryDb.obj
 0001:00044330       ?Store@CLibraryDb@@UAEXPAVCLibraryStoreNameSet@@AAVCTinyCadMultiSymbolDoc@@@Z 00445330 f   LibraryDb.obj
 0001:00044960       ?Create@CLibraryDb@@UAE_NPB_W@Z 00445960 f   LibraryDb.obj
 0001:00045130       ?GetMethodArchive@CLibraryDb@@UAEPAVCStream@@PAVCLibraryStoreNameSet@@@Z 00446130 f   LibraryDb.obj
 0001:00045480       ?Attach@CLibraryDb@@UAEXPB_W@Z 00446480 f   LibraryDb.obj
 0001:00045790       ?GetRuntimeClass@CLibraryDoc@@UBEPAUCRuntimeClass@@XZ 00446790 f   LibraryDoc.obj
 0001:000457a0       ?IsLibInUse@CLibraryDoc@@UAE_NPAVCLibraryStore@@@Z 004467a0 f   LibraryDoc.obj
 0001:000457b0       ?OnUpdateContextExportsymbol@CLibraryDoc@@IAEXPAVCCmdUI@@@Z 004467b0 f   LibraryDoc.obj
 0001:000457d0       ?OnFileExportlibrary@CLibraryDoc@@IAEXXZ 004467d0 f   LibraryDoc.obj
 0001:00045920       ?OnFileImportlibrary@CLibraryDoc@@IAEXXZ 00446920 f   LibraryDoc.obj
 0001:00045a30       ?getSymbol@CLibraryDoc@@QAE?AViterator@?$_Tree@V?$_Tmap_traits@HVCLibraryStoreNameSet@@U?$less@H@std@@V?$allocator@U?$pair@$$CBHVCLibraryStoreNameSet@@@std@@@3@$0A@@std@@@std@@H@Z 00446a30 f   LibraryDoc.obj
 0001:00045ac0       ?DeleteSymbol@CLibraryDoc@@QAEXH@Z 00446ac0 f   LibraryDoc.obj
 0001:00045b10       ?EditSymbol@CLibraryDoc@@QAEXH@Z 00446b10 f   LibraryDoc.obj
 0001:00045c00       ?DuplicateSymbol@CLibraryDoc@@QAEXH@Z 00446c00 f   LibraryDoc.obj
 0001:00045de0       ?CopySymbol@CLibraryDoc@@QAEXHPAVCLibraryStore@@@Z 00446de0 f   LibraryDoc.obj
 0001:00045f10       ?SymbolProperties@CLibraryDoc@@QAEXH@Z 00446f10 f   LibraryDoc.obj
 0001:00045ff0       ?OnContextExportsymbol@CLibraryDoc@@IAEXXZ 00446ff0 f   LibraryDoc.obj
 0001:000461c0       ?GetMessageMap@CLibraryDoc@@MBEPBUAFX_MSGMAP@@XZ 004471c0 f   LibraryDoc.obj
 0001:000461d0       ?insert@?$_Tree@V?$_Tmap_traits@V?$CStringT@_WV?$StrTraitMFC@_WV?$ChTraitsCRT@_W@ATL@@@@@ATL@@HU?$less@V?$CStringT@_WV?$StrTraitMFC@_WV?$ChTraitsCRT@_W@ATL@@@@@ATL@@@std@@V?$allocator@U?$pair@$$CBV?$CStringT@_WV?$StrTraitMFC@_WV?$ChTraitsCRT@_W@ATL@@@@@ATL@@H@std@@@4@$00@std@@@std@@QAE?AU?$pair@Viterator@?$_Tree@V?$_Tmap_traits@V?$CStringT@_WV?$StrTraitMFC@_WV?$ChTraitsCRT@_W@ATL@@@@@ATL@@HU?$less@V?$CStringT@_WV?$StrTraitMFC@_WV?$ChTraitsCRT@_W@ATL@@@@@ATL@@@std@@V?$allocator@U?$pair@$$CBV?$CStringT@_WV?$StrTraitMFC@_WV?$ChTraitsCRT@_W@ATL@@@@@ATL@@H@std@@@4@$00@std@@@std@@_N@2@ABU?$pair@$$CBV?$CStringT@_WV?$StrTraitMFC@_WV?$ChTraitsCRT@_W@ATL@@@@@ATL@@H@2@@Z 004471d0 f i LibraryDoc.obj
 0001:00046280       ??1CLibraryDoc@@UAE@XZ     00447280 f   LibraryDoc.obj
 0001:000462e0       ?SetModifiedFlag@CDocument@@UAEXH@Z 004472e0 f i LibraryDoc.obj
 0001:000462f0       ?setLibrary@CLibraryDoc@@QAEXPAVCLibraryStore@@@Z 004472f0 f   LibraryDoc.obj
 0001:000464c0       ?ResetSymbols@CLibraryDoc@@QAEXXZ 004474c0 f   LibraryDoc.obj
 0001:00046590       ??0CLibraryDoc@@IAE@XZ     00447590 f   LibraryDoc.obj
 0001:00046600       ??_GCLibraryDoc@@UAEPAXI@Z 00447600 f i LibraryDoc.obj
 0001:00046600       ??_ECLibraryDoc@@UAEPAXI@Z 00447600 f i LibraryDoc.obj
 0001:00046620       ?CreateObject@CLibraryDoc@@SGPAVCObject@@XZ 00447620 f   LibraryDoc.obj
 0001:00046690       ?getNameSet@CLibraryDoc@@QAEAAVCLibraryStoreNameSet@@ABViterator@?$_Tree@V?$_Tmap_traits@V?$CStringT@_WV?$StrTraitMFC@_WV?$ChTraitsCRT@_W@ATL@@@@@ATL@@HU?$less@V?$CStringT@_WV?$StrTraitMFC@_WV?$ChTraitsCRT@_W@ATL@@@@@ATL@@@std@@V?$allocator@U?$pair@$$CBV?$CStringT@_WV?$StrTraitMFC@_WV?$ChTraitsCRT@_W@ATL@@@@@ATL@@H@std@@@4@$00@std@@@std@@@Z 00447690 f   LibraryDoc.obj
 0001:000466e0       ?_Buynode@?$_Tree@V?$_Tmap_traits@V?$CStringT@_WV?$StrTraitMFC@_WV?$ChTraitsCRT@_W@ATL@@@@@ATL@@VCNetListSymbol@@U?$less@V?$CStringT@_WV?$StrTraitMFC@_WV?$ChTraitsCRT@_W@ATL@@@@@ATL@@@std@@V?$allocator@U?$pair@$$CBV?$CStringT@_WV?$StrTraitMFC@_WV?$ChTraitsCRT@_W@ATL@@@@@ATL@@VCNetListSymbol@@@std@@@5@$0A@@std@@@std@@IAEPAU_Node@?$_Tree_nod@V?$_Tmap_traits@V?$CStringT@_WV?$StrTraitMFC@_WV?$ChTraitsCRT@_W@ATL@@@@@ATL@@VCNetListSymbol@@U?$less@V?$CStringT@_WV?$StrTraitMFC@_WV?$ChTraitsCRT@_W@ATL@@@@@ATL@@@std@@V?$allocator@U?$pair@$$CBV?$CStringT@_WV?$StrTraitMFC@_WV?$ChTraitsCRT@_W@ATL@@@@@ATL@@VCNetListSymbol@@@std@@@5@$0A@@std@@@2@XZ 004476e0 f i NetList.obj
 0001:000466e0       ?_Buynode@?$_Tree@V?$_Tmap_traits@HVCLibraryStoreNameSet@@U?$less@H@std@@V?$allocator@U?$pair@$$CBHVCLibraryStoreNameSet@@@std@@@3@$0A@@std@@@std@@IAEPAU_Node@?$_Tree_nod@V?$_Tmap_traits@HVCLibraryStoreNameSet@@U?$less@H@std@@V?$allocator@U?$pair@$$CBHVCLibraryStoreNameSet@@@std@@@3@$0A@@std@@@2@XZ 004476e0 f i LibraryStore.obj
 0001:00046720       ?_Erase@?$_Tree@V?$_Tmap_traits@HVCLibraryStoreNameSet@@U?$less@H@std@@V?$allocator@U?$pair@$$CBHVCLibraryStoreNameSet@@@std@@@3@$0A@@std@@@std@@IAEXPAU_Node@?$_Tree_nod@V?$_Tmap_traits@HVCLibraryStoreNameSet@@U?$less@H@std@@V?$allocator@U?$pair@$$CBHVCLibraryStoreNameSet@@@std@@@3@$0A@@std@@@2@@Z 00447720 f i LibraryStore.obj
 0001:00046760       ?Extract@CLibraryStore@@QAEPAVCLibraryStoreNameSet@@PB_W@Z 00447760 f   LibraryStore.obj
 0001:000468c0       ?Find@CLibraryStore@@UAEXPB_WPAVCListBox@@@Z 004478c0 f   LibraryStore.obj
 0001:00046cb0       ?DoesExist@CLibraryStore@@UAEHPAVCLibraryStoreNameSet@@@Z 00447cb0 f   LibraryStore.obj
 0001:00046d40       ?SaveXML@CLibraryStore@@UAEXPB_WH@Z 00447d40 f   LibraryStore.obj
 0001:00046ff0       ??0?$_Tree@V?$_Tmap_traits@HVCLibraryStoreNameSet@@U?$less@H@std@@V?$allocator@U?$pair@$$CBHVCLibraryStoreNameSet@@@std@@@3@$0A@@std@@@std@@QAE@ABU?$less@H@1@ABV?$allocator@U?$pair@$$CBHVCLibraryStoreNameSet@@@std@@@1@@Z 00447ff0 f i LibraryStore.obj
 0001:00046ff0       ??0?$_Tree@V?$_Tmap_traits@V?$CStringT@_WV?$StrTraitMFC@_WV?$ChTraitsCRT@_W@ATL@@@@@ATL@@VCNetListSymbol@@U?$less@V?$CStringT@_WV?$StrTraitMFC@_WV?$ChTraitsCRT@_W@ATL@@@@@ATL@@@std@@V?$allocator@U?$pair@$$CBV?$CStringT@_WV?$StrTraitMFC@_WV?$ChTraitsCRT@_W@ATL@@@@@ATL@@VCNetListSymbol@@@std@@@5@$0A@@std@@@std@@QAE@ABU?$less@V?$CStringT@_WV?$StrTraitMFC@_WV?$ChTraitsCRT@_W@ATL@@@@@ATL@@@1@ABV?$allocator@U?$pair@$$CBV?$CStringT@_WV?$StrTraitMFC@_WV?$ChTraitsCRT@_W@ATL@@@@@ATL@@VCNetListSymbol@@@std@@@1@@Z 00447ff0 f i NetList.obj
 0001:00047080       ?LoadXML@CLibraryStore@@UAEXPB_W@Z 00448080 f   LibraryStore.obj
 0001:00047340       ?erase@?$_Tree@V?$_Tmap_traits@HVCLibraryStoreNameSet@@U?$less@H@std@@V?$allocator@U?$pair@$$CBHVCLibraryStoreNameSet@@@std@@@3@$0A@@std@@@std@@QAE?AViterator@12@Vconst_iterator@12@0@Z 00448340 f i LibraryStore.obj
 0001:00047420       ?ReRead@CLibraryStore@@UAEXXZ 00448420 f   LibraryStore.obj
 0001:00047470       ??1?$_Tree@V?$_Tmap_traits@HVCLibraryStoreNameSet@@U?$less@H@std@@V?$allocator@U?$pair@$$CBHVCLibraryStoreNameSet@@@std@@@3@$0A@@std@@@std@@QAE@XZ 00448470 f i LibraryStore.obj
 0001:000474f0       ??1?$map@HVCLibraryStoreNameSet@@U?$less@H@std@@V?$allocator@U?$pair@$$CBHVCLibraryStoreNameSet@@@std@@@3@@std@@QAE@XZ 004484f0 f i LibraryStore.obj
 0001:00047500       ??1CLibraryStore@@UAE@XZ   00448500 f   LibraryStore.obj
 0001:00047540       ??0CLibraryStore@@QAE@XZ   00448540 f   LibraryStore.obj
 0001:000475e0       ??_GCLibraryStore@@UAEPAXI@Z 004485e0 f i LibraryStore.obj
 0001:000475e0       ??_ECLibraryStore@@UAEPAXI@Z 004485e0 f i LibraryStore.obj
 0001:00047670       ?GetRuntimeClass@CLibraryView@@UBEPAUCRuntimeClass@@XZ 00448670 f   LibraryView.obj
 0001:00047680       ?OnCreate@CLibraryView@@IAEHPAUtagCREATESTRUCTW@@@Z 00448680 f   LibraryView.obj
 0001:000476b0       ?OnSymbolNewsymbol@CLibraryView@@IAEXXZ 004486b0 f   LibraryView.obj
 0001:000476c0       ?OnSymbolEditsymbol@CLibraryView@@IAEXXZ 004486c0 f   LibraryView.obj
 0001:000476d0       ?OnUpdateSymbolSymbolproperties@CLibraryView@@IAEXPAVCCmdUI@@@Z 004486d0 f   LibraryView.obj
 0001:000476d0       ?OnUpdateSymbolEditsymbol@CLibraryView@@IAEXPAVCCmdUI@@@Z 004486d0 f   LibraryView.obj
 0001:000476d0       ?OnUpdateContextDuplicatesymbol@CLibraryView@@IAEXPAVCCmdUI@@@Z 004486d0 f   LibraryView.obj
 0001:000476d0       ?OnUpdateSymbolDeletesymbol@CLibraryView@@IAEXPAVCCmdUI@@@Z 004486d0 f   LibraryView.obj
 0001:000476f0       ?OnPreparePrinting@CTextEditView@@MAEHPAUCPrintInfo@@@Z 004486f0 f   TextEditView.obj
 0001:000476f0       ?OnPreparePrinting@CLibraryView@@MAEHPAUCPrintInfo@@@Z 004486f0 f   LibraryView.obj
 0001:00047700       ?OnPrepareDC@CLibraryView@@UAEXPAVCDC@@PAUCPrintInfo@@@Z 00448700 f   LibraryView.obj
 0001:00047730       ?OnSendTo@CLibraryView@@IAEXI@Z 00448730 f   LibraryView.obj
 0001:00047790       ?OnContextDuplicatesymbol@CLibraryView@@IAEXXZ 00448790 f   LibraryView.obj
 0001:000477a0       ?OnSymbolSymbolproperties@CLibraryView@@IAEXXZ 004487a0 f   LibraryView.obj
 0001:000477b0       ?ModifyMenuW@CMenu@@QAEHIIIPB_W@Z 004487b0 f i LibraryView.obj
 0001:000477e0       ?ClientToScreen@CWnd@@QBEXPAUtagPOINT@@@Z 004487e0 f i LibraryView.obj
 0001:00047800       ?CreateObject@CLibraryView@@SGPAVCObject@@XZ 00448800 f   LibraryView.obj
 0001:00047860       ??_ECLibraryView@@MAEPAXI@Z 00448860 f i LibraryView.obj
 0001:00047860       ??_GCLibraryView@@MAEPAXI@Z 00448860 f i LibraryView.obj
 0001:00047890       ?OnSymbolDeletesymbol@CLibraryView@@IAEXXZ 00448890 f   LibraryView.obj
 0001:000478d0       ?GetDocSize@CLibraryView@@IAE?AVCSize@@XZ 004488d0 f   LibraryView.obj
 0001:00047980       ?OnLButtonDown@CLibraryView@@IAEXIVCPoint@@@Z 00448980 f   LibraryView.obj
 0001:00047a50       ?OnLButtonDblClk@CLibraryView@@IAEXIVCPoint@@@Z 00448a50 f   LibraryView.obj
 0001:00047a70       ?OnRButtonDown@CLibraryView@@IAEXIVCPoint@@@Z 00448a70 f   LibraryView.obj
 0001:00047bd0       ?OnInitialUpdate@CLibraryView@@UAEXXZ 00448bd0 f   LibraryView.obj
 0001:00047c10       ?GetMessageMap@CLibraryView@@MBEPBUAFX_MSGMAP@@XZ 00448c10 f   LibraryView.obj
 0001:00047c20       ?OnBeginPrinting@CLibraryView@@MAEXPAVCDC@@PAUCPrintInfo@@@Z 00448c20 f   LibraryView.obj
 0001:00047d10       ?OnDraw@CLibraryView@@MAEXPAVCDC@@@Z 00448d10 f   LibraryView.obj
 0001:00048b50       ??0CLineUtils@@QAE@VCDPoint@@0@Z 00449b50 f   LineUtils.obj
 0001:00048bb0       ??1CLineUtils@@UAE@XZ      00449bb0 f   LineUtils.obj
 0001:00048bc0       ?DistanceFromPoint@CLineUtils@@QBENVCDPoint@@AAV2@@Z 00449bc0 f   LineUtils.obj
 0001:00048d50       ?IsPointOnLine@CLineUtils@@QBEHVCDPoint@@AAN@Z 00449d50 f   LineUtils.obj
 0001:00048df0       ?GetPointOnLine@CLineUtils@@QBE?AVCDPoint@@NPAVTransformSnap@@@Z 00449df0 f   LineUtils.obj
 0001:00048e90       ?WhichArea@CLineUtils@@IBEHVCDPoint@@NNNN@Z 00449e90 f   LineUtils.obj
 0001:00048ef0       ?rIsInside@CLineUtils@@IBEHVCDPoint@@0NNNN@Z 00449ef0 f   LineUtils.obj
 0001:00049070       ?GetLength@CLineUtils@@QAENXZ 0044a070 f   LineUtils.obj
 0001:00049090       ?SplitForDisplay@CLineUtils@@QAEXPAVCTinyCadDoc@@HH@Z 0044a090 f   LineUtils.obj
 0001:00049220       ??_GCLineUtils@@UAEPAXI@Z  0044a220 f i LineUtils.obj
 0001:00049220       ??_ECLineUtils@@UAEPAXI@Z  0044a220 f i LineUtils.obj
 0001:00049240       ?IsInside@CLineUtils@@QBEHNNNN@Z 0044a240 f   LineUtils.obj
 0001:00049300       ??1ListOfFillStyles@@UAE@XZ 0044a300 f   ListOfFillStyles.obj
 0001:00049310       ?GetFontPtr@ListOfFonts@@QAEPAUtagLOGFONTW@@XZ 0044a310 f   ListOfFonts.obj
 0001:00049310       ?GetFillStylePtr@ListOfFillStyles@@QAEPAVFillStyle@@XZ 0044a310 f   ListOfFillStyles.obj
 0001:00049310       ?GetLineStylePtr@ListOfStyles@@QAEPAVLineStyle@@XZ 0044a310 f   ListOfStyles.obj
 0001:00049320       ?SaveItemXML@ListOfFillStyles@@UAEXPAVCTinyCadDoc@@AAVCXMLWriter@@@Z 0044a320 f   ListOfFillStyles.obj
 0001:00049320       ?SaveItemXML@ListOfFonts@@UAEXPAVCTinyCadDoc@@AAVCXMLWriter@@@Z 0044a320 f   ListOfFonts.obj
 0001:00049320       ?SaveItemXML@ListOfStyles@@UAEXPAVCTinyCadDoc@@AAVCXMLWriter@@@Z 0044a320 f   ListOfStyles.obj
 0001:00049330       ?Compare@ListOfFillStyles@@UAEHPAVCDocResource@@@Z 0044a330 f   ListOfFillStyles.obj
 0001:00049360       ??_EListOfFillStyles@@UAEPAXI@Z 0044a360 f i ListOfFillStyles.obj
 0001:00049360       ??_GListOfFillStyles@@UAEPAXI@Z 0044a360 f i ListOfFillStyles.obj
 0001:00049390       ??0ListOfFillStyles@@QAE@HK@Z 0044a390 f   ListOfFillStyles.obj
 0001:00049390       ??0ListOfFillStyles@@QAE@VFillStyle@@@Z 0044a390 f   ListOfFillStyles.obj
 0001:000493c0       ?ReadNative@ListOfFillStyles@@UAEXAAVCStream@@@Z 0044a3c0 f   ListOfFillStyles.obj
 0001:000493f0       ??0ListOfFillStyles@@QAE@XZ 0044a3f0 f   ListOfFillStyles.obj
 0001:00049410       ?LoadItem@ListOfFillStyles@@UAEXPAVCTinyCadDoc@@AAVCStream@@F@Z 0044a410 f   ListOfFillStyles.obj
 0001:00049500       ??$addTag@K@CXMLWriter@@QAEXPB_WK@Z 0044a500 f i ListOfFillStyles.obj
 0001:00049590       ?Write@ListOfFillStyles@@UBEXAAVCXMLWriter@@@Z 0044a590 f   ListOfFillStyles.obj
 0001:000495c0       ??$getChildData@K@CXMLReader@@QAEXAAK@Z 0044a5c0 f i ListOfFillStyles.obj
 0001:00049660       ?Read@ListOfFillStyles@@UAEXAAVCXMLReader@@AAF@Z 0044a660 f   ListOfFillStyles.obj
 0001:000498c0       ?LoadItemXML@ListOfFillStyles@@UAEXPAVCTinyCadDoc@@AAVCXMLReader@@@Z 0044a8c0 f   ListOfFillStyles.obj
 0001:000499b0       ??1ListOfFonts@@UAE@XZ     0044a9b0 f   ListOfFonts.obj
 0001:000499c0       ?Compare@ListOfFonts@@UAEHPAVCDocResource@@@Z 0044a9c0 f   ListOfFonts.obj
 0001:00049a40       ??_EListOfFonts@@UAEPAXI@Z 0044aa40 f i ListOfFonts.obj
 0001:00049a40       ??_GListOfFonts@@UAEPAXI@Z 0044aa40 f i ListOfFonts.obj
 0001:00049a70       ??0ListOfFonts@@QAE@UtagLOGFONTW@@@Z 0044aa70 f   ListOfFonts.obj
 0001:00049ad0       ?GetDefaultFont@ListOfFonts@@SA?AUtagLOGFONTW@@XZ 0044aad0 f   ListOfFonts.obj
 0001:00049b30       ?ReadNative@ListOfFonts@@UAEXAAVCStream@@@Z 0044ab30 f   ListOfFonts.obj
 0001:00049c00       ??0ListOfFonts@@QAE@XZ     0044ac00 f   ListOfFonts.obj
 0001:00049c50       ??0ListOfFonts@@QAE@H_N@Z  0044ac50 f   ListOfFonts.obj
 0001:00049cc0       ?LoadItem@ListOfFonts@@UAEXPAVCTinyCadDoc@@AAVCStream@@F@Z 0044acc0 f   ListOfFonts.obj
 0001:00049e00       ??$addTag@J@CXMLWriter@@QAEXPB_WJ@Z 0044ae00 f i ListOfFonts.obj
 0001:00049e00       ??$addTag@H@CXMLWriter@@QAEXPB_WH@Z 0044ae00 f i Details.obj
 0001:00049e90       ??$addTag@E@CXMLWriter@@QAEXPB_WE@Z 0044ae90 f i ListOfFonts.obj
 0001:00049f20       ??$addTag@PB_W@CXMLWriter@@QAEXPB_W0@Z 0044af20 f i ListOfFonts.obj
 0001:00049fb0       ?Write@ListOfFonts@@UBEXAAVCXMLWriter@@@Z 0044afb0 f   ListOfFonts.obj
 0001:0004a050       ??$getChildData@J@CXMLReader@@QAEXAAJ@Z 0044b050 f i ListOfFonts.obj
 0001:0004a0f0       ??$getChildData@E@CXMLReader@@QAEXAAE@Z 0044b0f0 f i ListOfFonts.obj
 0001:0004a190       ?Read@ListOfFonts@@UAEXAAVCXMLReader@@AAF@Z 0044b190 f   ListOfFonts.obj
 0001:0004a550       ?LoadItemXML@ListOfFonts@@UAEXPAVCTinyCadDoc@@AAVCXMLReader@@@Z 0044b550 f   ListOfFonts.obj
 0001:0004a6a0       ??1ListOfMetaFiles@@UAE@XZ 0044b6a0 f   ListOfMetaFiles.obj
 0001:0004a6b0       ?GetSymbol@ListOfSymbols@@QAEPAVCDesignFileSymbol@@XZ 0044b6b0 f   ListOfSymbols.obj
 0001:0004a6b0       ?GetImage@ListOfMetaFiles@@QBEPAVCImage@@XZ 0044b6b0 f   ListOfMetaFiles.obj
 0001:0004a6c0       ?Write@ListOfMetaFiles@@UBEXAAVCXMLWriter@@@Z 0044b6c0 f   ListOfMetaFiles.obj
 0001:0004a6d0       ?Compare@ListOfMetaFiles@@UAEHPAVCDocResource@@@Z 0044b6d0 f   ListOfMetaFiles.obj
 0001:0004a6f0       ??0ListOfMetaFiles@@QAE@XZ 0044b6f0 f   ListOfMetaFiles.obj
 0001:0004a710       ??_GListOfMetaFiles@@UAEPAXI@Z 0044b710 f i ListOfMetaFiles.obj
 0001:0004a710       ??_EListOfMetaFiles@@UAEPAXI@Z 0044b710 f i ListOfMetaFiles.obj
 0001:0004a740       ??0ListOfMetaFiles@@QAE@PAVCImage@@@Z 0044b740 f   ListOfMetaFiles.obj
 0001:0004a760       ?ReadNative@ListOfMetaFiles@@UAEXAAVCStream@@@Z 0044b760 f   ListOfMetaFiles.obj
 0001:0004a820       ?LoadItem@ListOfMetaFiles@@UAEXPAVCTinyCadDoc@@AAVCStream@@F@Z 0044b820 f   ListOfMetaFiles.obj
 0001:0004a8f0       ?SaveItemXML@ListOfMetaFiles@@UAEXPAVCTinyCadDoc@@AAVCXMLWriter@@@Z 0044b8f0 f   ListOfMetaFiles.obj
 0001:0004a930       ?Read@ListOfMetaFiles@@UAEXAAVCXMLReader@@AAF@Z 0044b930 f   ListOfMetaFiles.obj
 0001:0004ac00       ?LoadItemXML@ListOfMetaFiles@@UAEXPAVCTinyCadDoc@@AAVCXMLReader@@@Z 0044bc00 f   ListOfMetaFiles.obj
 0001:0004acd0       ??1ListOfStyles@@UAE@XZ    0044bcd0 f   ListOfStyles.obj
 0001:0004ace0       ?Compare@ListOfStyles@@UAEHPAVCDocResource@@@Z 0044bce0 f   ListOfStyles.obj
 0001:0004ad10       ??_EListOfStyles@@UAEPAXI@Z 0044bd10 f i ListOfStyles.obj
 0001:0004ad10       ??_GListOfStyles@@UAEPAXI@Z 0044bd10 f i ListOfStyles.obj
 0001:0004ad40       ??0ListOfStyles@@QAE@VLineStyle@@@Z 0044bd40 f   ListOfStyles.obj
 0001:0004ad40       ??0ListOfStyles@@QAE@HHK@Z 0044bd40 f   ListOfStyles.obj
 0001:0004ad70       ?ReadNative@ListOfStyles@@UAEXAAVCStream@@@Z 0044bd70 f   ListOfStyles.obj
 0001:0004ada0       ??0ListOfStyles@@QAE@XZ    0044bda0 f   ListOfStyles.obj
 0001:0004add0       ?LoadItem@ListOfStyles@@UAEXPAVCTinyCadDoc@@AAVCStream@@F@Z 0044bdd0 f   ListOfStyles.obj
 0001:0004aeb0       ?Write@ListOfStyles@@UBEXAAVCXMLWriter@@@Z 0044beb0 f   ListOfStyles.obj
 0001:0004aef0       ?Read@ListOfStyles@@UAEXAAVCXMLReader@@AAF@Z 0044bef0 f   ListOfStyles.obj
 0001:0004b0d0       ?LoadItemXML@ListOfStyles@@UAEXPAVCTinyCadDoc@@AAVCXMLReader@@@Z 0044c0d0 f   ListOfStyles.obj
 0001:0004b1b0       ??1ListOfSymbols@@UAE@XZ   0044c1b0 f   ListOfSymbols.obj
 0001:0004b220       ?SaveItemXML@ListOfSymbols@@UAEXPAVCTinyCadDoc@@AAVCXMLWriter@@@Z 0044c220 f   ListOfSymbols.obj
 0001:0004b230       ??_GListOfSymbols@@UAEPAXI@Z 0044c230 f i ListOfSymbols.obj
 0001:0004b230       ??_EListOfSymbols@@UAEPAXI@Z 0044c230 f i ListOfSymbols.obj
 0001:0004b250       ??0ListOfSymbols@@QAE@PAVCDesignFileSymbol@@@Z 0044c250 f   ListOfSymbols.obj
 0001:0004b270       ?LoadItem@ListOfSymbols@@UAEXPAVCTinyCadDoc@@AAVCStream@@F@Z 0044c270 f   ListOfSymbols.obj
 0001:0004b330       ?Compare@ListOfSymbols@@UAEHPAVCDocResource@@@Z 0044c330 f   ListOfSymbols.obj
 0001:0004b380       ?LoadItemXML@ListOfSymbols@@UAEXPAVCTinyCadDoc@@AAVCXMLReader@@@Z 0044c380 f   ListOfSymbols.obj
 0001:0004b4c0       ?GetRuntimeClass@CMainFrame@@UBEPAUCRuntimeClass@@XZ 0044c4c0 f   MainFrm.obj
 0001:0004b4d0       ??1CMDIChildWnd@@UAE@XZ    0044c4d0 f i ChildFrm.obj
 0001:0004b4d0       ??1CMDIFrameWnd@@UAE@XZ    0044c4d0 f i MainFrm.obj
 0001:0004b4e0       ?ResetAllSymbols@CMainFrame@@QAEXXZ 0044c4e0 f   MainFrm.obj
 0001:0004b4f0       ?OnClose@CMainFrame@@IAEXXZ 0044c4f0 f   MainFrm.obj
 0001:0004b510       ?OnResize@CMainFrame@@IAEXXZ 0044c510 f   MainFrm.obj
 0001:0004b520       ?OnTimer@CMainFrame@@IAEXI@Z 0044c520 f   MainFrm.obj
 0001:0004b540       ?GetSelectSymbol@CMainFrame@@QAEPAVCLibraryStoreSymbol@@XZ 0044c540 f   MainFrm.obj
 0001:0004b560       ??_9CMainFrame@@$BBJM@AE   0044c560 f i MainFrm.obj
 0001:0004b570       ?OnCreate@CMainFrame@@IAEHPAUtagCREATESTRUCTW@@@Z 0044c570 f   MainFrm.obj
 0001:0004b9c0       ?OnSize@CMainFrame@@IAEXIHH@Z 0044c9c0 f   MainFrm.obj
 0001:0004bab0       ?OnMove@CMainFrame@@IAEXHH@Z 0044cab0 f   MainFrm.obj
 0001:0004bb60       ?OnViewAnnotationtoolbar@CMainFrame@@IAEXXZ 0044cb60 f   MainFrm.obj
 0001:0004bb90       ?OnUpdateViewAnnotationtoolbar@CMainFrame@@IAEXPAVCCmdUI@@@Z 0044cb90 f   MainFrm.obj
 0001:0004bbb0       ?OnViewBustoolbar@CMainFrame@@IAEXXZ 0044cbb0 f   MainFrm.obj
 0001:0004bbe0       ?OnUpdateViewBustoolbar@CMainFrame@@IAEXPAVCCmdUI@@@Z 0044cbe0 f   MainFrm.obj
 0001:0004bc00       ?OnViewEdittoolbar@CMainFrame@@IAEXXZ 0044cc00 f   MainFrm.obj
 0001:0004bc30       ?OnUpdateViewEdittoolbar@CMainFrame@@IAEXPAVCCmdUI@@@Z 0044cc30 f   MainFrm.obj
 0001:0004bc50       ?OnViewFiletoolbar@CMainFrame@@IAEXXZ 0044cc50 f   MainFrm.obj
 0001:0004bc80       ?OnUpdateViewFiletoolbar@CMainFrame@@IAEXPAVCCmdUI@@@Z 0044cc80 f   MainFrm.obj
 0001:0004bca0       ?OnViewGrouptoolbar@CMainFrame@@IAEXXZ 0044cca0 f   MainFrm.obj
 0001:0004bcd0       ?OnUpdateViewGrouptoolbar@CMainFrame@@IAEXPAVCCmdUI@@@Z 0044ccd0 f   MainFrm.obj
 0001:0004bcf0       ?OnViewshowpos@CMainFrame@@IAEXXZ 0044ccf0 f   MainFrm.obj
 0001:0004bd20       ?OnUpdateViewshowpos@CMainFrame@@IAEXPAVCCmdUI@@@Z 0044cd20 f   MainFrm.obj
 0001:0004bd40       ?OnOptionsToolbarsSymbol@CMainFrame@@IAEXXZ 0044cd40 f   MainFrm.obj
 0001:0004bd70       ?OnUpdateOptionsToolbarsSymbol@CMainFrame@@IAEXPAVCCmdUI@@@Z 0044cd70 f   MainFrm.obj
 0001:0004bd90       ?OnDDEExecute@CMainFrame@@UAEJIJ@Z 0044cd90 f   MainFrm.obj
 0001:0004be80       ?GetMessageMap@CMainFrame@@MBEPBUAFX_MSGMAP@@XZ 0044ce80 f   MainFrm.obj
 0001:0004be90       ?setPositionText@CMainFrame@@QAEXV?$CStringT@_WV?$StrTraitMFC@_WV?$ChTraitsCRT@_W@ATL@@@@@ATL@@@Z 0044ce90 f   MainFrm.obj
 0001:0004bf10       ??1CMainFrame@@UAE@XZ      0044cf10 f   MainFrm.obj
 0001:0004bff0       ??0CMainFrame@@QAE@XZ      0044cff0 f   MainFrm.obj
 0001:0004c0c0       ??_ECMainFrame@@UAEPAXI@Z  0044d0c0 f i MainFrm.obj
 0001:0004c0c0       ??_GCMainFrame@@UAEPAXI@Z  0044d0c0 f i MainFrm.obj
 0001:0004c0e0       ?OnFileDesign@CTinyCadView@@IAEXXZ 0044d0e0 f   Menu.obj
 0001:0004c180       ?OnFileImport@CTinyCadView@@IAEXXZ 0044d180 f   Menu.obj
 0001:0004c220       ?OnViewZoomIn@CTinyCadView@@IAEXXZ 0044d220 f   Menu.obj
 0001:0004c2a0       ?OnViewZoomOut@CTinyCadView@@IAEXXZ 0044d2a0 f   Menu.obj
 0001:0004c2f0       ?IsClipboardAvailable@CTinyCadView@@IAEHXZ 0044d2f0 f   Menu.obj
 0001:0004c300       ?OnEditCopyto@CTinyCadView@@IAEXXZ 0044d300 f   Menu.obj
 0001:0004c330       ?OnSelectArc@CTinyCadView@@IAEXXZ 0044d330 f   Menu.obj
 0001:0004c3d0       ?OnSelectPolygon@CTinyCadView@@IAEXXZ 0044d3d0 f   Menu.obj
 0001:0004c470       ?OnSelectHierachical@CTinyCadView@@IAEXXZ 0044d470 f   Menu.obj
 0001:0004c570       ?OnSelectJunction@CTinyCadView@@IAEXXZ 0044d570 f   Menu.obj
 0001:0004c620       ?OnFilePageSet@CTinyCadView@@IAEXXZ 0044d620 f   Menu.obj
 0001:0004c760       ?OnSelectGet@CTinyCadView@@IAEXXZ 0044d760 f   Menu.obj
 0001:0004c7a0       ?OnEditCopy@CTinyCadView@@IAEXXZ 0044d7a0 f   Menu.obj
 0001:0004c8e0       ?OnEditCut@CTinyCadView@@IAEXXZ 0044d8e0 f   Menu.obj
 0001:0004c940       ??1CDlgFindBox@@UAE@XZ     0044d940 f i Menu.obj
 0001:0004c940       ??1CDlgRenameSheet@@UAE@XZ 0044d940 f i DlgRenameSheet.obj
 0001:0004c970       ?GetString@CDlgFindBox@@QAE?AV?$CStringT@_WV?$StrTraitMFC@_WV?$ChTraitsCRT@_W@ATL@@@@@ATL@@XZ 0044d970 f i Menu.obj
 0001:0004c9a0       ??_ECDlgRenameSheet@@UAEPAXI@Z 0044d9a0 f i DlgRenameSheet.obj
 0001:0004c9a0       ??_ECDlgFindBox@@UAEPAXI@Z 0044d9a0 f i Menu.obj
 0001:0004c9a0       ??_GCDlgFindBox@@UAEPAXI@Z 0044d9a0 f i Menu.obj
 0001:0004c9a0       ??_GCDlgRenameSheet@@UAEPAXI@Z 0044d9a0 f i DlgRenameSheet.obj
 0001:0004ca30       ?OnEditPaste@CTinyCadView@@IAEXXZ 0044da30 f   Menu.obj
 0001:0004cd00       ?OnEditDuplicate@CTinyCadView@@IAEXXZ 0044dd00 f   Menu.obj
 0001:0004cd30       ?OnFindFind@CTinyCadView@@IAEXXZ 0044dd30 f   Menu.obj
 0001:0004d310       ?GetRuntimeClass@CMultiSheetDoc@@UBEPAUCRuntimeClass@@XZ 0044e310 f   MultiSheetDoc.obj
 0001:0004d320       ??0CMultiSheetDoc@@IAE@XZ  0044e320 f   MultiSheetDoc.obj
 0001:0004d340       ??1CMultiSheetDoc@@UAE@XZ  0044e340 f   MultiSheetDoc.obj
 0001:0004d350       ?NewOptions@CDrawingObject@@UAEXXZ 0044e350 f   DrawingObject.obj
 0001:0004d350       ?OnOK@CEditDlgDrawPolyEdit@@UAEXXZ 0044e350 f   EditDlgDrawPolyEdit.obj
 0001:0004d350       ??1CDSize@@QAE@XZ          0044e350 f   DSize.obj
 0001:0004d350       ?OnHelpEmailforsupport@CTinyCadApp@@QAEXXZ 0044e350 f   TinyCad.obj
 0001:0004d350       ?OnOK@CEditDlgDrawLineEdit@@UAEXXZ 0044e350 f   EditDlgDrawLineEdit.obj
 0001:0004d350       ?OnOK@CEditDlgTextEdit@@UAEXXZ 0044e350 f   EditDlgTextEdit.obj
 0001:0004d350       ?PostPaste@CTinyCadDoc@@UAEXXZ 0044e350 f   TinyCadDoc.obj
 0001:0004d350       ?OnIdle@CLibraryDb@@UAEXXZ 0044e350 f   LibraryDb.obj
 0001:0004d350       ?OnOK@CEditDlgPowerEdit@@UAEXXZ 0044e350 f   EditToolbar.obj
 0001:0004d350       ?OnFolderContextMenu@CFolderView@@UAEXXZ 0044e350 f   FolderFrame.obj
 0001:0004d350       ?AutoSave@CMultiSheetDoc@@UAEXXZ 0044e350 f   MultiSheetDoc.obj
 0001:0004d350       ?EndEdit@CDrawError@@UAEXXZ 0044e350 f   DrawError.obj
 0001:0004d350       ?OnOK@CEditDlgLabelEdit@@UAEXXZ 0044e350 f   EditDlgLabelEdit.obj
 0001:0004d350       ??3@YAXPAX0@Z              0044e350 f   BOMGenerator.obj
 0001:0004d350       ?Flush@CStreamClipboard@@UAEXXZ 0044e350 f   StreamClipboard.obj
 0001:0004d350       ?OnFolderContextMenu@CMultiSheetDoc@@UAEXXZ 0044e350 f   MultiSheetDoc.obj
 0001:0004d350       ?OnKillfocusList@CDlgUpdateBox@@IAEXXZ 0044e350 f   DlgUpdateBox.obj
 0001:0004d350       ?OnOK@CEditDlgPinEdit@@UAEXXZ 0044e350 f   EditDlgPinEdit.obj
 0001:0004d350       ?TagResources@CDrawingObject@@UAEXXZ 0044e350 f   DrawingObject.obj
 0001:0004d360       ?GetSheet@CMultiSheetDoc@@UAEPAVCTinyCadDoc@@H@Z 0044e360 f   MultiSheetDoc.obj
 0001:0004d370       ?GetActiveSheet@CTinyCadMultiSymbolDoc@@QAEPAVCTinyCadDoc@@XZ 0044e370 f   TinyCadMultiSymbolDoc.obj
 0001:0004d370       ?GetCurrentSheet@CMultiSheetDoc@@UAEPAVCTinyCadDoc@@XZ 0044e370 f   MultiSheetDoc.obj
 0001:0004d390       ?CreateObject@CMultiSheetDoc@@SGPAVCObject@@XZ 0044e390 f   MultiSheetDoc.obj
 0001:0004d3f0       ??_GCMultiSheetDoc@@UAEPAXI@Z 0044e3f0 f i MultiSheetDoc.obj
 0001:0004d3f0       ??_ECMultiSheetDoc@@UAEPAXI@Z 0044e3f0 f i MultiSheetDoc.obj
 0001:0004d420       ?GetMessageMap@CTextEditDoc@@MBEPBUAFX_MSGMAP@@XZ 0044e420 f   TextEditDoc.obj
 0001:0004d420       ?GetMessageMap@CMultiSheetDoc@@MBEPBUAFX_MSGMAP@@XZ 0044e420 f   MultiSheetDoc.obj
 0001:0004d420       ?GetThisMessageMap@CMultiSheetDoc@@KGPBUAFX_MSGMAP@@XZ 0044e420 f   MultiSheetDoc.obj
 0001:0004d430       ?SelectSheetView@CMultiSheetDoc@@UAEXH@Z 0044e430 f   MultiSheetDoc.obj
 0001:0004d4a0       ?GetSheetName@CMultiSheetDoc@@UAE?AV?$CStringT@_WV?$StrTraitMFC@_WV?$ChTraitsCRT@_W@ATL@@@@@ATL@@H@Z 0044e4a0 f   MultiSheetDoc.obj
 0001:0004d4d0       ?OnInitDialog@CDlgERCBox@@UAEHXZ 0044e4d0 f   Net.obj
 0001:0004d590       ?OnOK@CDlgERCBox@@UAEXXZ   0044e590 f   Net.obj
 0001:0004d6a0       ?_Min@?$_Tree@V?$_Tmap_traits@VCDPoint@@HU?$less@VCDPoint@@@std@@V?$allocator@U?$pair@$$CBVCDPoint@@H@std@@@3@$0A@@std@@@std@@KAPAU_Node@?$_Tree_nod@V?$_Tmap_traits@VCDPoint@@HU?$less@VCDPoint@@@std@@V?$allocator@U?$pair@$$CBVCDPoint@@H@std@@@3@$0A@@std@@@2@PAU342@@Z 0044e6a0 f i NetList.obj
 0001:0004d6a0       ?_Min@?$_Tree@V?$_Tmap_traits@HV?$vector@VCNetListNode@@V?$allocator@VCNetListNode@@@std@@@std@@U?$less@H@2@V?$allocator@U?$pair@$$CBHV?$vector@VCNetListNode@@V?$allocator@VCNetListNode@@@std@@@std@@@std@@@2@$0A@@std@@@std@@KAPAU_Node@?$_Tree_nod@V?$_Tmap_traits@HV?$vector@VCNetListNode@@V?$allocator@VCNetListNode@@@std@@@std@@U?$less@H@2@V?$allocator@U?$pair@$$CBHV?$vector@VCNetListNode@@V?$allocator@VCNetListNode@@@std@@@std@@@std@@@2@$0A@@std@@@2@PAU342@@Z 0044e6a0 f i Net.obj
 0001:0004d6c0       ??_GCDlgPartsInPackage@@UAEPAXI@Z 0044e6c0 f i DlgPartsInPackage.obj
 0001:0004d6c0       ??_GCEditDlgDrawLineEdit@@UAEPAXI@Z 0044e6c0 f i EditDlgDrawLineEdit.obj
 0001:0004d6c0       ??_ECDlgERCBox@@UAEPAXI@Z  0044e6c0 f i Net.obj
 0001:0004d6c0       ??_GCDlgAboutTurunga@@UAEPAXI@Z 0044e6c0 f i DlgAboutTurunga.obj
 0001:0004d6c0       ??_ECDlgAboutTurunga@@UAEPAXI@Z 0044e6c0 f i DlgAboutTurunga.obj
 0001:0004d6c0       ??_ECEditDlgRotateBox@@UAEPAXI@Z 0044e6c0 f i EditToolbar.obj
 0001:0004d6c0       ??_ECEditDlg@@UAEPAXI@Z    0044e6c0 f i EditDlg.obj
 0001:0004d6c0       ??_GCEditDlg@@UAEPAXI@Z    0044e6c0 f i EditDlg.obj
 0001:0004d6c0       ??_GCDlgERCBox@@UAEPAXI@Z  0044e6c0 f i Net.obj
 0001:0004d6c0       ??_GCDlgAbout@@UAEPAXI@Z   0044e6c0 f i DlgAbout.obj
 0001:0004d6c0       ??_ECDlgAbout@@UAEPAXI@Z   0044e6c0 f i DlgAbout.obj
 0001:0004d6c0       ??_GCDlgPageSizeBox@@UAEPAXI@Z 0044e6c0 f i Menu.obj
 0001:0004d6c0       ??_ECDlgPartsInPackage@@UAEPAXI@Z 0044e6c0 f i DlgPartsInPackage.obj
 0001:0004d6c0       ??_ECEditDlgLabelEdit@@UAEPAXI@Z 0044e6c0 f i EditDlgLabelEdit.obj
 0001:0004d6c0       ??_ECEditDlgDrawPolyEdit@@UAEPAXI@Z 0044e6c0 f i EditDlgDrawPolyEdit.obj
 0001:0004d6c0       ??_ECDlgLibraryBox@@UAEPAXI@Z 0044e6c0 f i DlgLibraryBox.obj
 0001:0004d6c0       ??_ECEditDlgPowerEdit@@UAEPAXI@Z 0044e6c0 f i EditToolbar.obj
 0001:0004d6c0       ??_ECEditDlgNoTool@@UAEPAXI@Z 0044e6c0 f i EditToolbar.obj
 0001:0004d6c0       ??_ECEditDlgDrawLineEdit@@UAEPAXI@Z 0044e6c0 f i EditDlgDrawLineEdit.obj
 0001:0004d6c0       ??_GCDlgLibraryBox@@UAEPAXI@Z 0044e6c0 f i DlgLibraryBox.obj
 0001:0004d6c0       ??_GCEditDlgLabelEdit@@UAEPAXI@Z 0044e6c0 f i EditDlgLabelEdit.obj
 0001:0004d6c0       ??_ECDlgERCListBox@@UAEPAXI@Z 0044e6c0 f i DlgERCListBox.obj
 0001:0004d6c0       ??_GCEditDlgTextEdit@@UAEPAXI@Z 0044e6c0 f i EditDlgTextEdit.obj
 0001:0004d6c0       ??_GCEditDlgNoTool@@UAEPAXI@Z 0044e6c0 f i EditToolbar.obj
 0001:0004d6c0       ??_GCEditDlgPowerEdit@@UAEPAXI@Z 0044e6c0 f i EditToolbar.obj
 0001:0004d6c0       ??_ECDlgPageSizeBox@@UAEPAXI@Z 0044e6c0 f i Menu.obj
 0001:0004d6c0       ??_GCEditDlgDrawPolyEdit@@UAEPAXI@Z 0044e6c0 f i EditDlgDrawPolyEdit.obj
 0001:0004d6c0       ??_GCEditDlgRotateBox@@UAEPAXI@Z 0044e6c0 f i EditToolbar.obj
 0001:0004d6c0       ??_ECEditDlgTextEdit@@UAEPAXI@Z 0044e6c0 f i EditDlgTextEdit.obj
 0001:0004d6c0       ??_GCDlgERCListBox@@UAEPAXI@Z 0044e6c0 f i DlgERCListBox.obj
 0001:0004d6e0       ??0_bstr_t@@QAE@PBD@Z      0044e6e0 f i Net.obj
 0001:0004d770       ??0_bstr_t@@QAE@PB_W@Z     0044e770 f i Net.obj
 0001:0004d820       ?OnSpecialTurungaIPSearch@CTinyCadView@@IAEXXZ 0044e820 f   Net.obj
 0001:0004d890       ??8const_iterator@?$_Tree@V?$_Tmap_traits@VCDesignFileSymbolFilter@@V?$list@PAVCDrawingObject@@V?$allocator@PAVCDrawingObject@@@std@@@std@@U?$less@VCDesignFileSymbolFilter@@@3@V?$allocator@U?$pair@$$CBVCDesignFileSymbolFilter@@V?$list@PAVCDrawingObject@@V?$allocator@PAVCDrawingObject@@@std@@@std@@@std@@@3@$0A@@std@@@std@@QBE_NABV012@@Z 0044e890 f i Symbol.obj
 0001:0004d890       ??8const_iterator@?$_Tree@V?$_Tmap_traits@V?$CStringT@_WV?$StrTraitMFC@_WV?$ChTraitsCRT@_W@ATL@@@@@ATL@@V12@U?$less@V?$CStringT@_WV?$StrTraitMFC@_WV?$ChTraitsCRT@_W@ATL@@@@@ATL@@@std@@V?$allocator@U?$pair@$$CBV?$CStringT@_WV?$StrTraitMFC@_WV?$ChTraitsCRT@_W@ATL@@@@@ATL@@V12@@std@@@4@$0A@@std@@@std@@QBE_NABV012@@Z 0044e890 f i xml_parse_tag.obj
 0001:0004d890       ??8const_iterator@?$_Tree@V?$_Tmap_traits@VsPen@CContext@@PAVCPen@@U?$less@VsPen@CContext@@@std@@V?$allocator@U?$pair@$$CBVsPen@CContext@@PAVCPen@@@std@@@5@$0A@@std@@@std@@QBE_NABV012@@Z 0044e890 f i Context.obj
 0001:0004d890       ??8const_iterator@?$_Tree@V?$_Tmap_traits@HHU?$less@H@std@@V?$allocator@U?$pair@$$CBHH@std@@@2@$0A@@std@@@std@@QBE_NABV012@@Z 0044e890 f i DlgColours.obj
 0001:0004d890       ??8const_iterator@?$_Tree@V?$_Tmap_traits@HV?$vector@VCNetListNode@@V?$allocator@VCNetListNode@@@std@@@std@@U?$less@H@2@V?$allocator@U?$pair@$$CBHV?$vector@VCNetListNode@@V?$allocator@VCNetListNode@@@std@@@std@@@std@@@2@$0A@@std@@@std@@QBE_NABV012@@Z 0044e890 f i Net.obj
 0001:0004d890       ??8const_iterator@?$_Tree@V?$_Tmap_traits@HKU?$less@H@std@@V?$allocator@U?$pair@$$CBHK@std@@@2@$0A@@std@@@std@@QBE_NABV012@@Z 0044e890 f i DlgColours.obj
 0001:0004d890       ??8const_iterator@?$_Tree@V?$_Tmap_traits@UtagLOGFONTW@@PAVsFont@CContext@@U?$less@UtagLOGFONTW@@@std@@V?$allocator@U?$pair@$$CBUtagLOGFONTW@@PAVsFont@CContext@@@std@@@5@$0A@@std@@@std@@QBE_NABV012@@Z 0044e890 f i Context.obj
 0001:0004d890       ??8const_iterator@?$_Tree@V?$_Tmap_traits@HVCLibraryStoreNameSet@@U?$less@H@std@@V?$allocator@U?$pair@$$CBHVCLibraryStoreNameSet@@@std@@@3@$0A@@std@@@std@@QBE_NABV012@@Z 0044e890 f i Library.obj
 0001:0004d890       ??8const_iterator@?$_Tree@V?$_Tmap_traits@W4ObjType@@FU?$less@W4ObjType@@@std@@V?$allocator@U?$pair@$$CBW4ObjType@@F@std@@@3@$0A@@std@@@std@@QBE_NABV012@@Z 0044e890 f i DrawLabel.obj
 0001:0004d890       ??8const_iterator@?$_Tree@V?$_Tmap_traits@V?$CStringT@_WV?$StrTraitMFC@_WV?$ChTraitsCRT@_W@ATL@@@@@ATL@@HU?$less@V?$CStringT@_WV?$StrTraitMFC@_WV?$ChTraitsCRT@_W@ATL@@@@@ATL@@@std@@V?$allocator@U?$pair@$$CBV?$CStringT@_WV?$StrTraitMFC@_WV?$ChTraitsCRT@_W@ATL@@@@@ATL@@H@std@@@4@$0A@@std@@@std@@QBE_NABV012@@Z 0044e890 f i Library.obj
 0001:0004d890       ??8const_iterator@?$_Tree@V?$_Tmap_traits@V?$CStringT@_WV?$StrTraitMFC@_WV?$ChTraitsCRT@_W@ATL@@@@@ATL@@VCNetListSymbol@@U?$less@V?$CStringT@_WV?$StrTraitMFC@_WV?$ChTraitsCRT@_W@ATL@@@@@ATL@@@std@@V?$allocator@U?$pair@$$CBV?$CStringT@_WV?$StrTraitMFC@_WV?$ChTraitsCRT@_W@ATL@@@@@ATL@@VCNetListSymbol@@@std@@@5@$0A@@std@@@std@@QBE_NABV012@@Z 0044e890 f i NetList.obj
 0001:0004d890       ??8const_iterator@?$_Tree@V?$_Tmap_traits@HV?$CStringT@_WV?$StrTraitMFC@_WV?$ChTraitsCRT@_W@ATL@@@@@ATL@@U?$less@H@std@@V?$allocator@U?$pair@$$CBHV?$CStringT@_WV?$StrTraitMFC@_WV?$ChTraitsCRT@_W@ATL@@@@@ATL@@@std@@@4@$0A@@std@@@std@@QBE_NABV012@@Z 0044e890 f i NetList.obj
 0001:0004d890       ??8const_iterator@?$_Tree@V?$_Tmap_traits@VCDPoint@@HU?$less@VCDPoint@@@std@@V?$allocator@U?$pair@$$CBVCDPoint@@H@std@@@3@$0A@@std@@@std@@QBE_NABV012@@Z 0044e890 f i NetList.obj
 0001:0004d890       ??8const_iterator@?$_Tree@V?$_Tmap_traits@VsBrush@CContext@@PAVCBrush@@U?$less@VsBrush@CContext@@@std@@V?$allocator@U?$pair@$$CBVsBrush@CContext@@PAVCBrush@@@std@@@5@$0A@@std@@@std@@QBE_NABV012@@Z 0044e890 f i Context.obj
 0001:0004d8c0       ?AllocSysString@?$CStringT@_WV?$StrTraitMFC@_WV?$ChTraitsCRT@_W@ATL@@@@@ATL@@QBEPA_WXZ 0044e8c0 f i Net.obj
 0001:0004d8e0       ?OnSpecialCreatespicefile@CTinyCadView@@IAEXXZ 0044e8e0 f   Net.obj
 0001:0004dad0       ?GetValue@CDrawPower@@QAE?AV?$CStringT@_WV?$StrTraitMFC@_WV?$ChTraitsCRT@_W@ATL@@@@@ATL@@XZ 0044ead0 f i Net.obj
 0001:0004db00       ??1_bstr_t@@QAE@XZ         0044eb00 f i Net.obj
 0001:0004db50       ?sendFromTinycad@IManagedInterface@@QAEJV_bstr_t@@0@Z 0044eb50 f i Net.obj
 0001:0004dc60       ?OnSpecialTurungaFetchSimilarIP@CTinyCadView@@IAEXXZ 0044ec60 f   Net.obj
 0001:0004dd40       ?OnSpecialNet@CTinyCadView@@IAEXXZ 0044ed40 f   Net.obj
 0001:0004df20       ?OnSpecialCheck@CTinyCadView@@IAEXXZ 0044ef20 f   Net.obj
 0001:0004eb50       ?memmove_s@Checked@ATL@@YAXPAXIPBXI@Z 0044fb50 f i NetList.obj
 0001:0004eb80       ??1CImportFile@@QAE@XZ     0044fb80 f   NetList.obj
 0001:0004eba0       ?_Max@?$_Tree@V?$_Tmap_traits@VCDPoint@@HU?$less@VCDPoint@@@std@@V?$allocator@U?$pair@$$CBVCDPoint@@H@std@@@3@$0A@@std@@@std@@KAPAU_Node@?$_Tree_nod@V?$_Tmap_traits@VCDPoint@@HU?$less@VCDPoint@@@std@@V?$allocator@U?$pair@$$CBVCDPoint@@H@std@@@3@$0A@@std@@@2@PAU342@@Z 0044fba0 f i NetList.obj
 0001:0004eba0       ?_Max@?$_Tree@V?$_Tmap_traits@HV?$vector@VCNetListNode@@V?$allocator@VCNetListNode@@@std@@@std@@U?$less@H@2@V?$allocator@U?$pair@$$CBHV?$vector@VCNetListNode@@V?$allocator@VCNetListNode@@@std@@@std@@@std@@@2@$0A@@std@@@std@@KAPAU_Node@?$_Tree_nod@V?$_Tmap_traits@HV?$vector@VCNetListNode@@V?$allocator@VCNetListNode@@@std@@@std@@U?$less@H@2@V?$allocator@U?$pair@$$CBHV?$vector@VCNetListNode@@V?$allocator@VCNetListNode@@@std@@@std@@@std@@@2@$0A@@std@@@2@PAU342@@Z 0044fba0 f i NetList.obj
 0001:0004ebc0       ?_Rrotate@?$_Tree@V?$_Tmap_traits@HV?$vector@VCNetListNode@@V?$allocator@VCNetListNode@@@std@@@std@@U?$less@H@2@V?$allocator@U?$pair@$$CBHV?$vector@VCNetListNode@@V?$allocator@VCNetListNode@@@std@@@std@@@std@@@2@$0A@@std@@@std@@IAEXPAU_Node@?$_Tree_nod@V?$_Tmap_traits@HV?$vector@VCNetListNode@@V?$allocator@VCNetListNode@@@std@@@std@@U?$less@H@2@V?$allocator@U?$pair@$$CBHV?$vector@VCNetListNode@@V?$allocator@VCNetListNode@@@std@@@std@@@std@@@2@$0A@@std@@@2@@Z 0044fbc0 f i NetList.obj
 0001:0004ebc0       ?_Rrotate@?$_Tree@V?$_Tmap_traits@VCDPoint@@HU?$less@VCDPoint@@@std@@V?$allocator@U?$pair@$$CBVCDPoint@@H@std@@@3@$0A@@std@@@std@@IAEXPAU_Node@?$_Tree_nod@V?$_Tmap_traits@VCDPoint@@HU?$less@VCDPoint@@@std@@V?$allocator@U?$pair@$$CBVCDPoint@@H@std@@@3@$0A@@std@@@2@@Z 0044fbc0 f i NetList.obj
 0001:0004ec20       ?_Min@?$_Tree@V?$_Tmap_traits@HVCLibraryStoreNameSet@@U?$less@H@std@@V?$allocator@U?$pair@$$CBHVCLibraryStoreNameSet@@@std@@@3@$0A@@std@@@std@@KAPAU_Node@?$_Tree_nod@V?$_Tmap_traits@HVCLibraryStoreNameSet@@U?$less@H@std@@V?$allocator@U?$pair@$$CBHVCLibraryStoreNameSet@@@std@@@3@$0A@@std@@@2@PAU342@@Z 0044fc20 f i Library.obj
 0001:0004ec20       ?_Min@?$_Tree@V?$_Tmap_traits@V?$CStringT@_WV?$StrTraitMFC@_WV?$ChTraitsCRT@_W@ATL@@@@@ATL@@VCNetListSymbol@@U?$less@V?$CStringT@_WV?$StrTraitMFC@_WV?$ChTraitsCRT@_W@ATL@@@@@ATL@@@std@@V?$allocator@U?$pair@$$CBV?$CStringT@_WV?$StrTraitMFC@_WV?$ChTraitsCRT@_W@ATL@@@@@ATL@@VCNetListSymbol@@@std@@@5@$0A@@std@@@std@@KAPAU_Node@?$_Tree_nod@V?$_Tmap_traits@V?$CStringT@_WV?$StrTraitMFC@_WV?$ChTraitsCRT@_W@ATL@@@@@ATL@@VCNetListSymbol@@U?$less@V?$CStringT@_WV?$StrTraitMFC@_WV?$ChTraitsCRT@_W@ATL@@@@@ATL@@@std@@V?$allocator@U?$pair@$$CBV?$CStringT@_WV?$StrTraitMFC@_WV?$ChTraitsCRT@_W@ATL@@@@@ATL@@VCNetListSymbol@@@std@@@5@$0A@@std@@@2@PAU342@@Z 0044fc20 f i NetList.obj
 0001:0004ec40       ?_Min@?$_Tree@V?$_Tmap_traits@V?$CStringT@_WV?$StrTraitMFC@_WV?$ChTraitsCRT@_W@ATL@@@@@ATL@@HU?$less@V?$CStringT@_WV?$StrTraitMFC@_WV?$ChTraitsCRT@_W@ATL@@@@@ATL@@@std@@V?$allocator@U?$pair@$$CBV?$CStringT@_WV?$StrTraitMFC@_WV?$ChTraitsCRT@_W@ATL@@@@@ATL@@H@std@@@4@$0A@@std@@@std@@KAPAU_Node@?$_Tree_nod@V?$_Tmap_traits@V?$CStringT@_WV?$StrTraitMFC@_WV?$ChTraitsCRT@_W@ATL@@@@@ATL@@HU?$less@V?$CStringT@_WV?$StrTraitMFC@_WV?$ChTraitsCRT@_W@ATL@@@@@ATL@@@std@@V?$allocator@U?$pair@$$CBV?$CStringT@_WV?$StrTraitMFC@_WV?$ChTraitsCRT@_W@ATL@@@@@ATL@@H@std@@@4@$0A@@std@@@2@PAU342@@Z 0044fc40 f i Library.obj
 0001:0004ec40       ?_Min@?$_Tree@V?$_Tmap_traits@HKU?$less@H@std@@V?$allocator@U?$pair@$$CBHK@std@@@2@$0A@@std@@@std@@KAPAU_Node@?$_Tree_nod@V?$_Tmap_traits@HKU?$less@H@std@@V?$allocator@U?$pair@$$CBHK@std@@@2@$0A@@std@@@2@PAU342@@Z 0044fc40 f i DlgColours.obj
 0001:0004ec40       ?_Min@?$_Tree@V?$_Tmap_traits@V?$CStringT@_WV?$StrTraitMFC@_WV?$ChTraitsCRT@_W@ATL@@@@@ATL@@HU?$less@V?$CStringT@_WV?$StrTraitMFC@_WV?$ChTraitsCRT@_W@ATL@@@@@ATL@@@std@@V?$allocator@U?$pair@$$CBV?$CStringT@_WV?$StrTraitMFC@_WV?$ChTraitsCRT@_W@ATL@@@@@ATL@@H@std@@@4@$00@std@@@std@@KAPAU_Node@?$_Tree_nod@V?$_Tmap_traits@V?$CStringT@_WV?$StrTraitMFC@_WV?$ChTraitsCRT@_W@ATL@@@@@ATL@@HU?$less@V?$CStringT@_WV?$StrTraitMFC@_WV?$ChTraitsCRT@_W@ATL@@@@@ATL@@@std@@V?$allocator@U?$pair@$$CBV?$CStringT@_WV?$StrTraitMFC@_WV?$ChTraitsCRT@_W@ATL@@@@@ATL@@H@std@@@4@$00@std@@@2@PAU342@@Z 0044fc40 f i LibraryDoc.obj
 0001:0004ec40       ?_Min@?$_Tree@V?$_Tmap_traits@V?$CStringT@_WV?$StrTraitMFC@_WV?$ChTraitsCRT@_W@ATL@@@@@ATL@@V12@U?$less@V?$CStringT@_WV?$StrTraitMFC@_WV?$ChTraitsCRT@_W@ATL@@@@@ATL@@@std@@V?$allocator@U?$pair@$$CBV?$CStringT@_WV?$StrTraitMFC@_WV?$ChTraitsCRT@_W@ATL@@@@@ATL@@V12@@std@@@4@$0A@@std@@@std@@KAPAU_Node@?$_Tree_nod@V?$_Tmap_traits@V?$CStringT@_WV?$StrTraitMFC@_WV?$ChTraitsCRT@_W@ATL@@@@@ATL@@V12@U?$less@V?$CStringT@_WV?$StrTraitMFC@_WV?$ChTraitsCRT@_W@ATL@@@@@ATL@@@std@@V?$allocator@U?$pair@$$CBV?$CStringT@_WV?$StrTraitMFC@_WV?$ChTraitsCRT@_W@ATL@@@@@ATL@@V12@@std@@@4@$0A@@std@@@2@PAU342@@Z 0044fc40 f i xml_parse_tag.obj
 0001:0004ec40       ?_Min@?$_Tree@V?$_Tmap_traits@HHU?$less@H@std@@V?$allocator@U?$pair@$$CBHH@std@@@2@$0A@@std@@@std@@KAPAU_Node@?$_Tree_nod@V?$_Tmap_traits@HHU?$less@H@std@@V?$allocator@U?$pair@$$CBHH@std@@@2@$0A@@std@@@2@PAU342@@Z 0044fc40 f i DlgColours.obj
 0001:0004ec40       ?_Min@?$_Tree@V?$_Tmap_traits@HV?$CStringT@_WV?$StrTraitMFC@_WV?$ChTraitsCRT@_W@ATL@@@@@ATL@@U?$less@H@std@@V?$allocator@U?$pair@$$CBHV?$CStringT@_WV?$StrTraitMFC@_WV?$ChTraitsCRT@_W@ATL@@@@@ATL@@@std@@@4@$0A@@std@@@std@@KAPAU_Node@?$_Tree_nod@V?$_Tmap_traits@HV?$CStringT@_WV?$StrTraitMFC@_WV?$ChTraitsCRT@_W@ATL@@@@@ATL@@U?$less@H@std@@V?$allocator@U?$pair@$$CBHV?$CStringT@_WV?$StrTraitMFC@_WV?$ChTraitsCRT@_W@ATL@@@@@ATL@@@std@@@4@$0A@@std@@@2@PAU342@@Z 0044fc40 f i NetList.obj
 0001:0004ec40       ?_Min@?$_Tree@V?$_Tmap_traits@W4ObjType@@FU?$less@W4ObjType@@@std@@V?$allocator@U?$pair@$$CBW4ObjType@@F@std@@@3@$0A@@std@@@std@@KAPAU_Node@?$_Tree_nod@V?$_Tmap_traits@W4ObjType@@FU?$less@W4ObjType@@@std@@V?$allocator@U?$pair@$$CBW4ObjType@@F@std@@@3@$0A@@std@@@2@PAU342@@Z 0044fc40 f i DrawLabel.obj
 0001:0004ec60       ?writeError@CNetList@@IAAXPB_WZZ 0044fc60 f   NetList.obj
 0001:0004ecd0       ?_Lrotate@?$_Tree@V?$_Tmap_traits@VCDPoint@@HU?$less@VCDPoint@@@std@@V?$allocator@U?$pair@$$CBVCDPoint@@H@std@@@3@$0A@@std@@@std@@IAEXPAU_Node@?$_Tree_nod@V?$_Tmap_traits@VCDPoint@@HU?$less@VCDPoint@@@std@@V?$allocator@U?$pair@$$CBVCDPoint@@H@std@@@3@$0A@@std@@@2@@Z 0044fcd0 f i NetList.obj
 0001:0004ecd0       ?_Lrotate@?$_Tree@V?$_Tmap_traits@HV?$vector@VCNetListNode@@V?$allocator@VCNetListNode@@@std@@@std@@U?$less@H@2@V?$allocator@U?$pair@$$CBHV?$vector@VCNetListNode@@V?$allocator@VCNetListNode@@@std@@@std@@@std@@@2@$0A@@std@@@std@@IAEXPAU_Node@?$_Tree_nod@V?$_Tmap_traits@HV?$vector@VCNetListNode@@V?$allocator@VCNetListNode@@@std@@@std@@U?$less@H@2@V?$allocator@U?$pair@$$CBHV?$vector@VCNetListNode@@V?$allocator@VCNetListNode@@@std@@@std@@@std@@@2@$0A@@std@@@2@@Z 0044fcd0 f i NetList.obj
 0001:0004ed20       ?_Lbound@?$_Tree@V?$_Tmap_traits@VCDPoint@@HU?$less@VCDPoint@@@std@@V?$allocator@U?$pair@$$CBVCDPoint@@H@std@@@3@$0A@@std@@@std@@IBEPAU_Node@?$_Tree_nod@V?$_Tmap_traits@VCDPoint@@HU?$less@VCDPoint@@@std@@V?$allocator@U?$pair@$$CBVCDPoint@@H@std@@@3@$0A@@std@@@2@ABVCDPoint@@@Z 0044fd20 f i NetList.obj
 0001:0004ed70       ?_Dec@const_iterator@?$_Tree@V?$_Tmap_traits@HV?$vector@VCNetListNode@@V?$allocator@VCNetListNode@@@std@@@std@@U?$less@H@2@V?$allocator@U?$pair@$$CBHV?$vector@VCNetListNode@@V?$allocator@VCNetListNode@@@std@@@std@@@std@@@2@$0A@@std@@@std@@QAEXXZ 0044fd70 f i NetList.obj
 0001:0004ed70       ?_Dec@const_iterator@?$_Tree@V?$_Tmap_traits@VCDPoint@@HU?$less@VCDPoint@@@std@@V?$allocator@U?$pair@$$CBVCDPoint@@H@std@@@3@$0A@@std@@@std@@QAEXXZ 0044fd70 f i NetList.obj
 0001:0004ee00       ?_Inc@const_iterator@?$_Tree@V?$_Tmap_traits@VCDPoint@@HU?$less@VCDPoint@@@std@@V?$allocator@U?$pair@$$CBVCDPoint@@H@std@@@3@$0A@@std@@@std@@QAEXXZ 0044fe00 f i NetList.obj
 0001:0004ee00       ?_Inc@const_iterator@?$_Tree@V?$_Tmap_traits@HV?$vector@VCNetListNode@@V?$allocator@VCNetListNode@@@std@@@std@@U?$less@H@2@V?$allocator@U?$pair@$$CBHV?$vector@VCNetListNode@@V?$allocator@VCNetListNode@@@std@@@std@@@std@@@2@$0A@@std@@@std@@QAEXXZ 0044fe00 f i Net.obj
 0001:0004ee70       ?_Lrotate@?$_Tree@V?$_Tmap_traits@HVCLibraryStoreNameSet@@U?$less@H@std@@V?$allocator@U?$pair@$$CBHVCLibraryStoreNameSet@@@std@@@3@$0A@@std@@@std@@IAEXPAU_Node@?$_Tree_nod@V?$_Tmap_traits@HVCLibraryStoreNameSet@@U?$less@H@std@@V?$allocator@U?$pair@$$CBHVCLibraryStoreNameSet@@@std@@@3@$0A@@std@@@2@@Z 0044fe70 f i Library.obj
 0001:0004ee70       ?_Lrotate@?$_Tree@V?$_Tmap_traits@V?$CStringT@_WV?$StrTraitMFC@_WV?$ChTraitsCRT@_W@ATL@@@@@ATL@@VCNetListSymbol@@U?$less@V?$CStringT@_WV?$StrTraitMFC@_WV?$ChTraitsCRT@_W@ATL@@@@@ATL@@@std@@V?$allocator@U?$pair@$$CBV?$CStringT@_WV?$StrTraitMFC@_WV?$ChTraitsCRT@_W@ATL@@@@@ATL@@VCNetListSymbol@@@std@@@5@$0A@@std@@@std@@IAEXPAU_Node@?$_Tree_nod@V?$_Tmap_traits@V?$CStringT@_WV?$StrTraitMFC@_WV?$ChTraitsCRT@_W@ATL@@@@@ATL@@VCNetListSymbol@@U?$less@V?$CStringT@_WV?$StrTraitMFC@_WV?$ChTraitsCRT@_W@ATL@@@@@ATL@@@std@@V?$allocator@U?$pair@$$CBV?$CStringT@_WV?$StrTraitMFC@_WV?$ChTraitsCRT@_W@ATL@@@@@ATL@@VCNetListSymbol@@@std@@@5@$0A@@std@@@2@@Z 0044fe70 f i NetList.obj
 0001:0004eec0       ?_Dec@const_iterator@?$_Tree@V?$_Tmap_traits@HVCLibraryStoreNameSet@@U?$less@H@std@@V?$allocator@U?$pair@$$CBHVCLibraryStoreNameSet@@@std@@@3@$0A@@std@@@std@@QAEXXZ 0044fec0 f i Library.obj
 0001:0004eec0       ?_Dec@const_iterator@?$_Tree@V?$_Tmap_traits@V?$CStringT@_WV?$StrTraitMFC@_WV?$ChTraitsCRT@_W@ATL@@@@@ATL@@VCNetListSymbol@@U?$less@V?$CStringT@_WV?$StrTraitMFC@_WV?$ChTraitsCRT@_W@ATL@@@@@ATL@@@std@@V?$allocator@U?$pair@$$CBV?$CStringT@_WV?$StrTraitMFC@_WV?$ChTraitsCRT@_W@ATL@@@@@ATL@@VCNetListSymbol@@@std@@@5@$0A@@std@@@std@@QAEXXZ 0044fec0 f i NetList.obj
 0001:0004ef50       ??Y?$_Vector_const_iterator@VCNetListNode@@V?$allocator@VCNetListNode@@@std@@@std@@QAEAAV01@H@Z 0044ff50 f i NetList.obj
 0001:0004efb0       ??Y?$_Vector_const_iterator@VCNetList@@V?$allocator@VCNetList@@@std@@@std@@QAEAAV01@H@Z 0044ffb0 f i NetList.obj
 0001:0004f010       ??$_Allocate@VCNetList@@@std@@YAPAVCNetList@@IPAV1@@Z 00450010 f i NetList.obj
 0001:0004f080       ??$_Allocate@V?$set@V?$CStringT@_WV?$StrTraitMFC@_WV?$ChTraitsCRT@_W@ATL@@@@@ATL@@U?$less@V?$CStringT@_WV?$StrTraitMFC@_WV?$ChTraitsCRT@_W@ATL@@@@@ATL@@@std@@V?$allocator@V?$CStringT@_WV?$StrTraitMFC@_WV?$ChTraitsCRT@_W@ATL@@@@@ATL@@@4@@std@@@std@@YAPAV?$set@V?$CStringT@_WV?$StrTraitMFC@_WV?$ChTraitsCRT@_W@ATL@@@@@ATL@@U?$less@V?$CStringT@_WV?$StrTraitMFC@_WV?$ChTraitsCRT@_W@ATL@@@@@ATL@@@std@@V?$allocator@V?$CStringT@_WV?$StrTraitMFC@_WV?$ChTraitsCRT@_W@ATL@@@@@ATL@@@4@@0@IPAV10@@Z 00450080 f i NetList.obj
 0001:0004f080       ??$_Allocate@UCField@CDrawMethod@@@std@@YAPAUCField@CDrawMethod@@IPAU12@@Z 00450080 f i DrawHierarchicalSymbol.obj
 0001:0004f080       ??$_Allocate@V?$map@HHU?$less@H@std@@V?$allocator@U?$pair@$$CBHH@std@@@2@@std@@@std@@YAPAV?$map@HHU?$less@H@std@@V?$allocator@U?$pair@$$CBHH@std@@@2@@0@IPAV10@@Z 00450080 f i NetList.obj
 0001:0004f0e0       ??$_Allocate@VCNetListNode@@@std@@YAPAVCNetListNode@@IPAV1@@Z 004500e0 f i NetList.obj
 0001:0004f150       ??9ATL@@YA_NABV?$CStringT@_WV?$StrTraitMFC@_WV?$ChTraitsCRT@_W@ATL@@@@@0@PB_W@Z 00450150 f i NetList.obj
 0001:0004f1b0       ??1?$_Vector_val@VCNetListNode@@V?$allocator@VCNetListNode@@@std@@@std@@QAE@XZ 004501b0 f i NetList.obj
 0001:0004f1b0       ??1?$_List_val@PAVCLibraryStore@@V?$allocator@PAVCLibraryStore@@@std@@@std@@QAE@XZ 004501b0 f i LibraryCollection.obj
 0001:0004f1b0       ??1?$_Tree_val@V?$_Tset_traits@VCDPoint@@U?$less@VCDPoint@@@std@@V?$allocator@VCDPoint@@@3@$0A@@std@@@std@@QAE@XZ 004501b0 f i JunctionUtils.obj
 0001:0004f1b0       ??1?$_Tree_val@V?$_Tmap_traits@W4ObjType@@FU?$less@W4ObjType@@@std@@V?$allocator@U?$pair@$$CBW4ObjType@@F@std@@@3@$0A@@std@@@std@@QAE@XZ 004501b0 f i Option.obj
 0001:0004f1b0       ??1?$_Vector_val@V?$map@HHU?$less@H@std@@V?$allocator@U?$pair@$$CBHH@std@@@2@@std@@V?$allocator@V?$map@HHU?$less@H@std@@V?$allocator@U?$pair@$$CBHH@std@@@2@@std@@@2@@std@@QAE@XZ 004501b0 f i NetList.obj
 0001:0004f1b0       ??1?$_Deque_val@V?$CStringT@_WV?$StrTraitMFC@_WV?$ChTraitsCRT@_W@ATL@@@@@ATL@@V?$allocator@V?$CStringT@_WV?$StrTraitMFC@_WV?$ChTraitsCRT@_W@ATL@@@@@ATL@@@std@@@std@@QAE@XZ 004501b0 f i XMLWriter.obj
 0001:0004f1b0       ??1?$_Vector_val@UCField@CDrawMethod@@V?$allocator@UCField@CDrawMethod@@@std@@@std@@QAE@XZ 004501b0 f i DrawHierarchicalSymbol.obj
 0001:0004f1b0       ??1?$_Tree_val@V?$_Tmap_traits@VCDPoint@@HU?$less@VCDPoint@@@std@@V?$allocator@U?$pair@$$CBVCDPoint@@H@std@@@3@$0A@@std@@@std@@QAE@XZ 004501b0 f i NetList.obj
 0001:0004f1b0       ??1?$_Tree_val@V?$_Tmap_traits@HV?$CStringT@_WV?$StrTraitMFC@_WV?$ChTraitsCRT@_W@ATL@@@@@ATL@@U?$less@H@std@@V?$allocator@U?$pair@$$CBHV?$CStringT@_WV?$StrTraitMFC@_WV?$ChTraitsCRT@_W@ATL@@@@@ATL@@@std@@@4@$0A@@std@@@std@@QAE@XZ 004501b0 f i NetList.obj
 0001:0004f1b0       ??1?$_Tree_val@V?$_Tmap_traits@VsPen@CContext@@PAVCPen@@U?$less@VsPen@CContext@@@std@@V?$allocator@U?$pair@$$CBVsPen@CContext@@PAVCPen@@@std@@@5@$0A@@std@@@std@@QAE@XZ 004501b0 f i Context.obj
 0001:0004f1b0       ??1?$_Vector_val@V?$CStringT@_WV?$StrTraitMFC@_WV?$ChTraitsCRT@_W@ATL@@@@@ATL@@V?$allocator@V?$CStringT@_WV?$StrTraitMFC@_WV?$ChTraitsCRT@_W@ATL@@@@@ATL@@@std@@@std@@QAE@XZ 004501b0 f i BOMGenerator.obj
 0001:0004f1b0       ??1?$_Vector_val@VCArcPoint@@V?$allocator@VCArcPoint@@@std@@@std@@QAE@XZ 004501b0 f i Polygon.obj
 0001:0004f1b0       ??1?$_Vector_val@VCSymbolField@@V?$allocator@VCSymbolField@@@std@@@std@@QAE@XZ 004501b0 f i DlgUpdateBox.obj
 0001:0004f1b0       ??1?$_Tree_val@V?$_Tset_traits@Utodo_point@CJunctionUtils@@U?$less@Utodo_point@CJunctionUtils@@@std@@V?$allocator@Utodo_point@CJunctionUtils@@@4@$0A@@std@@@std@@QAE@XZ 004501b0 f i JunctionUtils.obj
 0001:0004f1b0       ??1?$_Tree_val@V?$_Tmap_traits@V?$CStringT@_WV?$StrTraitMFC@_WV?$ChTraitsCRT@_W@ATL@@@@@ATL@@HU?$less@V?$CStringT@_WV?$StrTraitMFC@_WV?$ChTraitsCRT@_W@ATL@@@@@ATL@@@std@@V?$allocator@U?$pair@$$CBV?$CStringT@_WV?$StrTraitMFC@_WV?$ChTraitsCRT@_W@ATL@@@@@ATL@@H@std@@@4@$00@std@@@std@@QAE@XZ 004501b0 f i LibraryDoc.obj
 0001:0004f1b0       ??1?$_Tree_val@V?$_Tmap_traits@HKU?$less@H@std@@V?$allocator@U?$pair@$$CBHK@std@@@2@$0A@@std@@@std@@QAE@XZ 004501b0 f i DlgColours.obj
 0001:0004f1b0       ??1?$_Tree_val@V?$_Tset_traits@V?$CStringT@_WV?$StrTraitMFC@_WV?$ChTraitsCRT@_W@ATL@@@@@ATL@@U?$less@V?$CStringT@_WV?$StrTraitMFC@_WV?$ChTraitsCRT@_W@ATL@@@@@ATL@@@std@@V?$allocator@V?$CStringT@_WV?$StrTraitMFC@_WV?$ChTraitsCRT@_W@ATL@@@@@ATL@@@4@$0A@@std@@@std@@QAE@XZ 004501b0 f i DlgGetFindBox.obj
 0001:0004f1b0       ??1?$_Tree_val@V?$_Tset_traits@UBomObject@BomSort@CBOMGenerator@@V23@V?$allocator@UBomObject@BomSort@CBOMGenerator@@@std@@$0A@@std@@@std@@QAE@XZ 004501b0 f i BOMGenerator.obj
 0001:0004f1b0       ??1?$_Tree_val@V?$_Tmap_traits@V?$CStringT@_WV?$StrTraitMFC@_WV?$ChTraitsCRT@_W@ATL@@@@@ATL@@V12@U?$less@V?$CStringT@_WV?$StrTraitMFC@_WV?$ChTraitsCRT@_W@ATL@@@@@ATL@@@std@@V?$allocator@U?$pair@$$CBV?$CStringT@_WV?$StrTraitMFC@_WV?$ChTraitsCRT@_W@ATL@@@@@ATL@@V12@@std@@@4@$0A@@std@@@std@@QAE@XZ 004501b0 f i xml_parse_tag.obj
 0001:0004f1b0       ??1?$_Vector_val@PAVCTinyCadDoc@@V?$allocator@PAVCTinyCadDoc@@@std@@@std@@QAE@XZ 004501b0 f i TinyCadMultiDoc.obj
 0001:0004f1b0       ??1?$_Tree_val@V?$_Tmap_traits@VsBrush@CContext@@PAVCBrush@@U?$less@VsBrush@CContext@@@std@@V?$allocator@U?$pair@$$CBVsBrush@CContext@@PAVCBrush@@@std@@@5@$0A@@std@@@std@@QAE@XZ 004501b0 f i Context.obj
 0001:0004f1b0       ??1?$_Tree_val@V?$_Tset_traits@UdragWire@CDragUtils@@U?$less@UdragWire@CDragUtils@@@std@@V?$allocator@UdragWire@CDragUtils@@@4@$0A@@std@@@std@@QAE@XZ 004501b0 f i DragUtils.obj
 0001:0004f1b0       ??1?$_Tree_val@V?$_Tmap_traits@VCDesignFileSymbolFilter@@V?$list@PAVCDrawingObject@@V?$allocator@PAVCDrawingObject@@@std@@@std@@U?$less@VCDesignFileSymbolFilter@@@3@V?$allocator@U?$pair@$$CBVCDesignFileSymbolFilter@@V?$list@PAVCDrawingObject@@V?$allocator@PAVCDrawingObject@@@std@@@std@@@std@@@3@$0A@@std@@@std@@QAE@XZ 004501b0 f i Symbol.obj
 0001:0004f1b0       ??1?$_Vector_val@VCDocUndoSet@@V?$allocator@VCDocUndoSet@@@std@@@std@@QAE@XZ 004501b0 f i TinyCadDoc.obj
 0001:0004f1b0       ??1?$_Tree_val@V?$_Tmap_traits@HVCLibraryStoreNameSet@@U?$less@H@std@@V?$allocator@U?$pair@$$CBHVCLibraryStoreNameSet@@@std@@@3@$0A@@std@@@std@@QAE@XZ 004501b0 f i LibraryStore.obj
 0001:0004f1b0       ??1?$_Vector_val@PAVCTinyCadSymbolDoc@@V?$allocator@PAVCTinyCadSymbolDoc@@@std@@@std@@QAE@XZ 004501b0 f i TinyCadMultiSymbolDoc.obj
 0001:0004f1b0       ??1?$_List_val@PAVCDrawingObject@@V?$allocator@PAVCDrawingObject@@@std@@@std@@QAE@XZ 004501b0 f i DlgGetFindBox.obj
 0001:0004f1b0       ??1?$_Vector_val@PAVCImportFile@@V?$allocator@PAVCImportFile@@@std@@@std@@QAE@XZ 004501b0 f i BOMGenerator.obj
 0001:0004f1b0       ??1?$_Tree_val@V?$_Tmap_traits@V?$CStringT@_WV?$StrTraitMFC@_WV?$ChTraitsCRT@_W@ATL@@@@@ATL@@HU?$less@V?$CStringT@_WV?$StrTraitMFC@_WV?$ChTraitsCRT@_W@ATL@@@@@ATL@@@std@@V?$allocator@U?$pair@$$CBV?$CStringT@_WV?$StrTraitMFC@_WV?$ChTraitsCRT@_W@ATL@@@@@ATL@@H@std@@@4@$0A@@std@@@std@@QAE@XZ 004501b0 f i Library.obj
 0001:0004f1b0       ??1?$_Tree_val@V?$_Tset_traits@PAVCDrawingObject@@U?$less@PAVCDrawingObject@@@std@@V?$allocator@PAVCDrawingObject@@@3@$0A@@std@@@std@@QAE@XZ 004501b0 f i DragUtils.obj
 0001:0004f1b0       ??1?$_Vector_val@VCDPoint@@V?$allocator@VCDPoint@@@std@@@std@@QAE@XZ 004501b0 f i Polygon.obj
 0001:0004f1b0       ??1?$_Vector_val@V?$list@PAVCDrawingObject@@V?$allocator@PAVCDrawingObject@@@std@@@std@@V?$allocator@V?$list@PAVCDrawingObject@@V?$allocator@PAVCDrawingObject@@@std@@@std@@@2@@std@@QAE@XZ 004501b0 f i Symbol.obj
 0001:0004f1b0       ??1?$_Tree_val@V?$_Tmap_traits@HV?$vector@VCNetListNode@@V?$allocator@VCNetListNode@@@std@@@std@@U?$less@H@2@V?$allocator@U?$pair@$$CBHV?$vector@VCNetListNode@@V?$allocator@VCNetListNode@@@std@@@std@@@std@@@2@$0A@@std@@@std@@QAE@XZ 004501b0 f i NetList.obj
 0001:0004f1b0       ??1?$_Tree_val@V?$_Tmap_traits@UtagLOGFONTW@@PAVsFont@CContext@@U?$less@UtagLOGFONTW@@@std@@V?$allocator@U?$pair@$$CBUtagLOGFONTW@@PAVsFont@CContext@@@std@@@5@$0A@@std@@@std@@QAE@XZ 004501b0 f i Context.obj
 0001:0004f1b0       ??1?$_Vector_val@VCNetList@@V?$allocator@VCNetList@@@std@@@std@@QAE@XZ 004501b0 f i NetList.obj
 0001:0004f1b0       ??1?$_Vector_val@V?$set@V?$CStringT@_WV?$StrTraitMFC@_WV?$ChTraitsCRT@_W@ATL@@@@@ATL@@U?$less@V?$CStringT@_WV?$StrTraitMFC@_WV?$ChTraitsCRT@_W@ATL@@@@@ATL@@@std@@V?$allocator@V?$CStringT@_WV?$StrTraitMFC@_WV?$ChTraitsCRT@_W@ATL@@@@@ATL@@@4@@std@@V?$allocator@V?$set@V?$CStringT@_WV?$StrTraitMFC@_WV?$ChTraitsCRT@_W@ATL@@@@@ATL@@U?$less@V?$CStringT@_WV?$StrTraitMFC@_WV?$ChTraitsCRT@_W@ATL@@@@@ATL@@@std@@V?$allocator@V?$CStringT@_WV?$StrTraitMFC@_WV?$ChTraitsCRT@_W@ATL@@@@@ATL@@@4@@std@@@2@@std@@QAE@XZ 004501b0 f i NetList.obj
 0001:0004f1b0       ??1?$_List_val@VCDocUndoAction@CDocUndoSet@@V?$allocator@VCDocUndoAction@CDocUndoSet@@@std@@@std@@QAE@XZ 004501b0 f i TinyCadDoc.obj
 0001:0004f1b0       ??1?$_Vector_val@VCLibraryStoreSymbol@@V?$allocator@VCLibraryStoreSymbol@@@std@@@std@@QAE@XZ 004501b0 f i DlgUpdateBox.obj
 0001:0004f1b0       ??1?$_Tree_val@V?$_Tmap_traits@HHU?$less@H@std@@V?$allocator@U?$pair@$$CBHH@std@@@2@$0A@@std@@@std@@QAE@XZ 004501b0 f i DlgColours.obj
 0001:0004f1b0       ??1?$_Tree_val@V?$_Tmap_traits@V?$CStringT@_WV?$StrTraitMFC@_WV?$ChTraitsCRT@_W@ATL@@@@@ATL@@VCNetListSymbol@@U?$less@V?$CStringT@_WV?$StrTraitMFC@_WV?$ChTraitsCRT@_W@ATL@@@@@ATL@@@std@@V?$allocator@U?$pair@$$CBV?$CStringT@_WV?$StrTraitMFC@_WV?$ChTraitsCRT@_W@ATL@@@@@ATL@@VCNetListSymbol@@@std@@@5@$0A@@std@@@std@@QAE@XZ 004501b0 f i NetList.obj
 0001:0004f1c0       ?_Erase@?$_Tree@V?$_Tmap_traits@VCDPoint@@HU?$less@VCDPoint@@@std@@V?$allocator@U?$pair@$$CBVCDPoint@@H@std@@@3@$0A@@std@@@std@@IAEXPAU_Node@?$_Tree_nod@V?$_Tmap_traits@VCDPoint@@HU?$less@VCDPoint@@@std@@V?$allocator@U?$pair@$$CBVCDPoint@@H@std@@@3@$0A@@std@@@2@@Z 004501c0 f i NetList.obj
 0001:0004f200       ?_Lbound@?$_Tree@V?$_Tmap_traits@V?$CStringT@_WV?$StrTraitMFC@_WV?$ChTraitsCRT@_W@ATL@@@@@ATL@@VCNetListSymbol@@U?$less@V?$CStringT@_WV?$StrTraitMFC@_WV?$ChTraitsCRT@_W@ATL@@@@@ATL@@@std@@V?$allocator@U?$pair@$$CBV?$CStringT@_WV?$StrTraitMFC@_WV?$ChTraitsCRT@_W@ATL@@@@@ATL@@VCNetListSymbol@@@std@@@5@$0A@@std@@@std@@IBEPAU_Node@?$_Tree_nod@V?$_Tmap_traits@V?$CStringT@_WV?$StrTraitMFC@_WV?$ChTraitsCRT@_W@ATL@@@@@ATL@@VCNetListSymbol@@U?$less@V?$CStringT@_WV?$StrTraitMFC@_WV?$ChTraitsCRT@_W@ATL@@@@@ATL@@@std@@V?$allocator@U?$pair@$$CBV?$CStringT@_WV?$StrTraitMFC@_WV?$ChTraitsCRT@_W@ATL@@@@@ATL@@VCNetListSymbol@@@std@@@5@$0A@@std@@@2@ABV?$CStringT@_WV?$StrTraitMFC@_WV?$ChTraitsCRT@_W@ATL@@@@@ATL@@@Z 00450200 f i NetList.obj
 0001:0004f270       ??0CNetListNode@@QAE@HHPAVCDrawingObject@@VCDPoint@@@Z 00450270 f i NetList.obj
 0001:0004f330       ??1CNetListNode@@QAE@XZ    00450330 f i NetList.obj
 0001:0004f3a0       ??1?$pair@$$CBHV?$CStringT@_WV?$StrTraitMFC@_WV?$ChTraitsCRT@_W@ATL@@@@@ATL@@@std@@QAE@XZ 004503a0 f i NetList.obj
 0001:0004f3c0       ??H?$_Vector_iterator@V?$set@V?$CStringT@_WV?$StrTraitMFC@_WV?$ChTraitsCRT@_W@ATL@@@@@ATL@@U?$less@V?$CStringT@_WV?$StrTraitMFC@_WV?$ChTraitsCRT@_W@ATL@@@@@ATL@@@std@@V?$allocator@V?$CStringT@_WV?$StrTraitMFC@_WV?$ChTraitsCRT@_W@ATL@@@@@ATL@@@4@@std@@V?$allocator@V?$set@V?$CStringT@_WV?$StrTraitMFC@_WV?$ChTraitsCRT@_W@ATL@@@@@ATL@@U?$less@V?$CStringT@_WV?$StrTraitMFC@_WV?$ChTraitsCRT@_W@ATL@@@@@ATL@@@std@@V?$allocator@V?$CStringT@_WV?$StrTraitMFC@_WV?$ChTraitsCRT@_W@ATL@@@@@ATL@@@4@@std@@@2@@std@@QBE?AV01@H@Z 004503c0 f i NetList.obj
 0001:0004f3c0       ??H?$_Vector_iterator@UCField@CDrawMethod@@V?$allocator@UCField@CDrawMethod@@@std@@@std@@QBE?AV01@H@Z 004503c0 f i DrawHierarchicalSymbol.obj
 0001:0004f3c0       ??H?$_Vector_iterator@V?$map@HHU?$less@H@std@@V?$allocator@U?$pair@$$CBHH@std@@@2@@std@@V?$allocator@V?$map@HHU?$less@H@std@@V?$allocator@U?$pair@$$CBHH@std@@@2@@std@@@2@@std@@QBE?AV01@H@Z 004503c0 f i NetList.obj
 0001:0004f410       ?_Buynode@?$_Tree@V?$_Tmap_traits@VCDPoint@@HU?$less@VCDPoint@@@std@@V?$allocator@U?$pair@$$CBVCDPoint@@H@std@@@3@$0A@@std@@@std@@IAEPAU_Node@?$_Tree_nod@V?$_Tmap_traits@VCDPoint@@HU?$less@VCDPoint@@@std@@V?$allocator@U?$pair@$$CBVCDPoint@@H@std@@@3@$0A@@std@@@2@XZ 00450410 f i NetList.obj
 0001:0004f450       ?_Buynode@?$_Tree@V?$_Tmap_traits@VCDPoint@@HU?$less@VCDPoint@@@std@@V?$allocator@U?$pair@$$CBVCDPoint@@H@std@@@3@$0A@@std@@@std@@IAEPAU_Node@?$_Tree_nod@V?$_Tmap_traits@VCDPoint@@HU?$less@VCDPoint@@@std@@V?$allocator@U?$pair@$$CBVCDPoint@@H@std@@@3@$0A@@std@@@2@PAU342@00ABU?$pair@$$CBVCDPoint@@H@2@D@Z 00450450 f i NetList.obj
 0001:0004f4b0       ?_Buynode@?$_Tree@V?$_Tmap_traits@HV?$vector@VCNetListNode@@V?$allocator@VCNetListNode@@@std@@@std@@U?$less@H@2@V?$allocator@U?$pair@$$CBHV?$vector@VCNetListNode@@V?$allocator@VCNetListNode@@@std@@@std@@@std@@@2@$0A@@std@@@std@@IAEPAU_Node@?$_Tree_nod@V?$_Tmap_traits@HV?$vector@VCNetListNode@@V?$allocator@VCNetListNode@@@std@@@std@@U?$less@H@2@V?$allocator@U?$pair@$$CBHV?$vector@VCNetListNode@@V?$allocator@VCNetListNode@@@std@@@std@@@std@@@2@$0A@@std@@@2@XZ 004504b0 f i NetList.obj
 0001:0004f4f0       ?_Copy@?$_Tree@V?$_Tmap_traits@VCDPoint@@HU?$less@VCDPoint@@@std@@V?$allocator@U?$pair@$$CBVCDPoint@@H@std@@@3@$0A@@std@@@std@@IAEPAU_Node@?$_Tree_nod@V?$_Tmap_traits@VCDPoint@@HU?$less@VCDPoint@@@std@@V?$allocator@U?$pair@$$CBVCDPoint@@H@std@@@3@$0A@@std@@@2@PAU342@0@Z 004504f0 f i NetList.obj
 0001:0004f5b0       ?_Copy@?$_Tree@V?$_Tmap_traits@HKU?$less@H@std@@V?$allocator@U?$pair@$$CBHK@std@@@2@$0A@@std@@@std@@IAEPAU_Node@?$_Tree_nod@V?$_Tmap_traits@HKU?$less@H@std@@V?$allocator@U?$pair@$$CBHK@std@@@2@$0A@@std@@@2@PAU342@0@Z 004505b0 f i DlgColours.obj
 0001:0004f5b0       ?_Copy@?$_Tree@V?$_Tmap_traits@HHU?$less@H@std@@V?$allocator@U?$pair@$$CBHH@std@@@2@$0A@@std@@@std@@IAEPAU_Node@?$_Tree_nod@V?$_Tmap_traits@HHU?$less@H@std@@V?$allocator@U?$pair@$$CBHH@std@@@2@$0A@@std@@@2@PAU342@0@Z 004505b0 f i NetList.obj
 0001:0004f670       ?AppendChar@?$CSimpleStringT@_W$0A@@ATL@@QAEX_W@Z 00450670 f i NetList.obj
 0001:0004f6d0       ?GetNumber@CDrawPin@@QAE?AV?$CStringT@_WV?$StrTraitMFC@_WV?$ChTraitsCRT@_W@ATL@@@@@ATL@@XZ 004506d0 f i NetList.obj
 0001:0004f700       ?GetPinName@CDrawPin@@QAE?AV?$CStringT@_WV?$StrTraitMFC@_WV?$ChTraitsCRT@_W@ATL@@@@@ATL@@XZ 00450700 f i NetList.obj
 0001:0004f730       ?TrimLeft@?$CStringT@_WV?$StrTraitMFC@_WV?$ChTraitsCRT@_W@ATL@@@@@ATL@@QAEAAV12@XZ 00450730 f i NetList.obj
 0001:0004f7d0       ??Y?$CSimpleStringT@_W$0A@@ATL@@QAEAAV01@D@Z 004507d0 f i NetList.obj
 0001:0004f7f0       ?Truncate@?$CSimpleStringT@_W$0A@@ATL@@QAEXH@Z 004507f0 f i NetList.obj
 0001:0004f840       ?_Eqrange@?$_Tree@V?$_Tmap_traits@HHU?$less@H@std@@V?$allocator@U?$pair@$$CBHH@std@@@2@$0A@@std@@@std@@IAE?AU?$pair@Viterator@?$_Tree@V?$_Tmap_traits@HHU?$less@H@std@@V?$allocator@U?$pair@$$CBHH@std@@@2@$0A@@std@@@std@@V123@@2@ABH@Z 00450840 f i NetList.obj
 0001:0004f8d0       ?_Destroy@?$vector@VCNetList@@V?$allocator@VCNetList@@@std@@@std@@IAEXPAVCNetList@@0@Z 004508d0 f i NetList.obj
 0001:0004f900       ??0CNetListNode@@QAE@ABV0@@Z 00450900 f i NetList.obj
 0001:0004f9c0       ?_Copy@?$_Tree@V?$_Tmap_traits@VCDPoint@@HU?$less@VCDPoint@@@std@@V?$allocator@U?$pair@$$CBVCDPoint@@H@std@@@3@$0A@@std@@@std@@IAEXABV12@@Z 004509c0 f i NetList.obj
 0001:0004fa40       ?_Copy@?$_Tree@V?$_Tmap_traits@HKU?$less@H@std@@V?$allocator@U?$pair@$$CBHK@std@@@2@$0A@@std@@@std@@IAEXABV12@@Z 00450a40 f i DlgColours.obj
 0001:0004fa40       ?_Copy@?$_Tree@V?$_Tmap_traits@HHU?$less@H@std@@V?$allocator@U?$pair@$$CBHH@std@@@2@$0A@@std@@@std@@IAEXABV12@@Z 00450a40 f i NetList.obj
 0001:0004fac0       ?TrimRight@?$CStringT@_WV?$StrTraitMFC@_WV?$ChTraitsCRT@_W@ATL@@@@@ATL@@QAEAAV12@XZ 00450ac0 f i NetList.obj
 0001:0004fb10       ?_Tidy@?$vector@VCNetList@@V?$allocator@VCNetList@@@std@@@std@@IAEXXZ 00450b10 f i NetList.obj
 0001:0004fb60       ??$_Uninit_copy@PAVCNetListNode@@PAV1@V?$allocator@VCNetListNode@@@std@@@std@@YAPAVCNetListNode@@PAV1@00AAV?$allocator@VCNetListNode@@@0@U_Nonscalar_ptr_iterator_tag@0@U_Range_checked_iterator_tag@0@@Z 00450b60 f i NetList.obj
 0001:0004fb60       ??$_Uninit_copy@PBVCNetListNode@@PAV1@V?$allocator@VCNetListNode@@@std@@@std@@YAPAVCNetListNode@@PBV1@0PAV1@AAV?$allocator@VCNetListNode@@@0@U_Nonscalar_ptr_iterator_tag@0@U_Range_checked_iterator_tag@0@@Z 00450b60 f i NetList.obj
 0001:0004fc00       ??Y?$CStringT@_WV?$StrTraitMFC@_WV?$ChTraitsCRT@_W@ATL@@@@@ATL@@QAEAAV01@_W@Z 00450c00 f i NetList.obj
 0001:0004fc20       ?getLabel@CNetListNode@@QAE?BV?$CStringT@_WV?$StrTraitMFC@_WV?$ChTraitsCRT@_W@ATL@@@@@ATL@@XZ 00450c20 f i NetList.obj
 0001:0004fd40       ?WriteWires@CNetList@@QAEXXZ 00450d40 f   NetList.obj
 0001:0004fe80       ?get_attr@CNetList@@IAE_NHHAAVCNetListSymbol@@V?$CStringT@_WV?$StrTraitMFC@_WV?$ChTraitsCRT@_W@ATL@@@@@ATL@@AAV34@@Z 00450e80 f   NetList.obj
 0001:00050110       ?find@?$_Tree@V?$_Tmap_traits@HV?$vector@VCNetListNode@@V?$allocator@VCNetListNode@@@std@@@std@@U?$less@H@2@V?$allocator@U?$pair@$$CBHV?$vector@VCNetListNode@@V?$allocator@VCNetListNode@@@std@@@std@@@std@@@2@$0A@@std@@@std@@QAE?AViterator@12@ABH@Z 00451110 f i NetList.obj
 0001:000501a0       ?find@?$_Tree@V?$_Tmap_traits@HHU?$less@H@std@@V?$allocator@U?$pair@$$CBHH@std@@@2@$0A@@std@@@std@@QAE?AViterator@12@ABH@Z 004511a0 f i NetList.obj
 0001:000501a0       ?find@?$_Tree@V?$_Tmap_traits@HV?$CStringT@_WV?$StrTraitMFC@_WV?$ChTraitsCRT@_W@ATL@@@@@ATL@@U?$less@H@std@@V?$allocator@U?$pair@$$CBHV?$CStringT@_WV?$StrTraitMFC@_WV?$ChTraitsCRT@_W@ATL@@@@@ATL@@@std@@@4@$0A@@std@@@std@@QAE?AViterator@12@ABH@Z 004511a0 f i NetList.obj
 0001:00050230       ??1?$vector@VCNetList@@V?$allocator@VCNetList@@@std@@@std@@QAE@XZ 00451230 f i NetList.obj
 0001:00050290       ?_Buynode@?$_Tree@V?$_Tmap_traits@HV?$CStringT@_WV?$StrTraitMFC@_WV?$ChTraitsCRT@_W@ATL@@@@@ATL@@U?$less@H@std@@V?$allocator@U?$pair@$$CBHV?$CStringT@_WV?$StrTraitMFC@_WV?$ChTraitsCRT@_W@ATL@@@@@ATL@@@std@@@4@$0A@@std@@@std@@IAEPAU_Node@?$_Tree_nod@V?$_Tmap_traits@HV?$CStringT@_WV?$StrTraitMFC@_WV?$ChTraitsCRT@_W@ATL@@@@@ATL@@U?$less@H@std@@V?$allocator@U?$pair@$$CBHV?$CStringT@_WV?$StrTraitMFC@_WV?$ChTraitsCRT@_W@ATL@@@@@ATL@@@std@@@4@$0A@@std@@@2@PAU342@00ABU?$pair@$$CBHV?$CStringT@_WV?$StrTraitMFC@_WV?$ChTraitsCRT@_W@ATL@@@@@ATL@@@2@D@Z 00451290 f i NetList.obj
 0001:00050340       ??$_Uninit_fill_n@PAVCNetListNode@@IV1@V?$allocator@VCNetListNode@@@std@@@std@@YAXPAVCNetListNode@@IABV1@AAV?$allocator@VCNetListNode@@@0@U_Nonscalar_ptr_iterator_tag@0@U_Range_checked_iterator_tag@0@@Z 00451340 f i NetList.obj
 0001:000503e0       ??$_Destroy_range@V?$allocator@VCNetListNode@@@std@@@std@@YAXPAVCNetListNode@@0AAV?$allocator@VCNetListNode@@@0@U_Nonscalar_ptr_iterator_tag@0@@Z 004513e0 f i NetList.obj
 0001:000504a0       ??$_Copy_backward_opt@PAVCNetListNode@@PAV1@Uforward_iterator_tag@std@@@std@@YAPAVCNetListNode@@PAV1@00Uforward_iterator_tag@0@U_Nonscalar_ptr_iterator_tag@0@U_Range_checked_iterator_tag@0@@Z 004514a0 f i NetList.obj
 0001:00050530       ?clear@CNetList@@IAEXXZ    00451530 f   NetList.obj
 0001:00050640       ?Load@CImportFile@@QAEHPB_W@Z 00451640 f   NetList.obj
 0001:000507d0       ??0?$_Tree@V?$_Tmap_traits@VCDPoint@@HU?$less@VCDPoint@@@std@@V?$allocator@U?$pair@$$CBVCDPoint@@H@std@@@3@$0A@@std@@@std@@QAE@ABU?$less@VCDPoint@@@1@ABV?$allocator@U?$pair@$$CBVCDPoint@@H@std@@@1@@Z 004517d0 f i NetList.obj
 0001:00050860       ?erase@?$_Tree@V?$_Tmap_traits@VCDPoint@@HU?$less@VCDPoint@@@std@@V?$allocator@U?$pair@$$CBVCDPoint@@H@std@@@3@$0A@@std@@@std@@QAE?AViterator@12@Vconst_iterator@12@@Z 00451860 f i NetList.obj
 0001:00050b30       ??0?$_Tree@V?$_Tmap_traits@HV?$vector@VCNetListNode@@V?$allocator@VCNetListNode@@@std@@@std@@U?$less@H@2@V?$allocator@U?$pair@$$CBHV?$vector@VCNetListNode@@V?$allocator@VCNetListNode@@@std@@@std@@@std@@@2@$0A@@std@@@std@@QAE@ABU?$less@H@1@ABV?$allocator@U?$pair@$$CBHV?$vector@VCNetListNode@@V?$allocator@VCNetListNode@@@std@@@std@@@std@@@1@@Z 00451b30 f i NetList.obj
 0001:00050bc0       ??0?$_Tree@V?$_Tmap_traits@HV?$CStringT@_WV?$StrTraitMFC@_WV?$ChTraitsCRT@_W@ATL@@@@@ATL@@U?$less@H@std@@V?$allocator@U?$pair@$$CBHV?$CStringT@_WV?$StrTraitMFC@_WV?$ChTraitsCRT@_W@ATL@@@@@ATL@@@std@@@4@$0A@@std@@@std@@QAE@ABU?$less@H@1@ABV?$allocator@U?$pair@$$CBHV?$CStringT@_WV?$StrTraitMFC@_WV?$ChTraitsCRT@_W@ATL@@@@@ATL@@@std@@@1@@Z 00451bc0 f i NetList.obj
 0001:00050bc0       ??0?$_Tree@V?$_Tmap_traits@V?$CStringT@_WV?$StrTraitMFC@_WV?$ChTraitsCRT@_W@ATL@@@@@ATL@@V12@U?$less@V?$CStringT@_WV?$StrTraitMFC@_WV?$ChTraitsCRT@_W@ATL@@@@@ATL@@@std@@V?$allocator@U?$pair@$$CBV?$CStringT@_WV?$StrTraitMFC@_WV?$ChTraitsCRT@_W@ATL@@@@@ATL@@V12@@std@@@4@$0A@@std@@@std@@QAE@ABU?$less@V?$CStringT@_WV?$StrTraitMFC@_WV?$ChTraitsCRT@_W@ATL@@@@@ATL@@@1@ABV?$allocator@U?$pair@$$CBV?$CStringT@_WV?$StrTraitMFC@_WV?$ChTraitsCRT@_W@ATL@@@@@ATL@@V12@@std@@@1@@Z 00451bc0 f i xml_parse_tag.obj
 0001:00050bc0       ??0?$_Tree@V?$_Tmap_traits@V?$CStringT@_WV?$StrTraitMFC@_WV?$ChTraitsCRT@_W@ATL@@@@@ATL@@HU?$less@V?$CStringT@_WV?$StrTraitMFC@_WV?$ChTraitsCRT@_W@ATL@@@@@ATL@@@std@@V?$allocator@U?$pair@$$CBV?$CStringT@_WV?$StrTraitMFC@_WV?$ChTraitsCRT@_W@ATL@@@@@ATL@@H@std@@@4@$00@std@@@std@@QAE@ABU?$less@V?$CStringT@_WV?$StrTraitMFC@_WV?$ChTraitsCRT@_W@ATL@@@@@ATL@@@1@ABV?$allocator@U?$pair@$$CBV?$CStringT@_WV?$StrTraitMFC@_WV?$ChTraitsCRT@_W@ATL@@@@@ATL@@H@std@@@1@@Z 00451bc0 f i LibraryDoc.obj
 0001:00050bc0       ??0?$_Tree@V?$_Tmap_traits@V?$CStringT@_WV?$StrTraitMFC@_WV?$ChTraitsCRT@_W@ATL@@@@@ATL@@HU?$less@V?$CStringT@_WV?$StrTraitMFC@_WV?$ChTraitsCRT@_W@ATL@@@@@ATL@@@std@@V?$allocator@U?$pair@$$CBV?$CStringT@_WV?$StrTraitMFC@_WV?$ChTraitsCRT@_W@ATL@@@@@ATL@@H@std@@@4@$0A@@std@@@std@@QAE@ABU?$less@V?$CStringT@_WV?$StrTraitMFC@_WV?$ChTraitsCRT@_W@ATL@@@@@ATL@@@1@ABV?$allocator@U?$pair@$$CBV?$CStringT@_WV?$StrTraitMFC@_WV?$ChTraitsCRT@_W@ATL@@@@@ATL@@H@std@@@1@@Z 00451bc0 f i Library.obj
 0001:00050bc0       ??0?$_Tree@V?$_Tmap_traits@W4ObjType@@FU?$less@W4ObjType@@@std@@V?$allocator@U?$pair@$$CBW4ObjType@@F@std@@@3@$0A@@std@@@std@@QAE@ABU?$less@W4ObjType@@@1@ABV?$allocator@U?$pair@$$CBW4ObjType@@F@std@@@1@@Z 00451bc0 f i Option.obj
 0001:00050bc0       ??0?$_Tree@V?$_Tmap_traits@HHU?$less@H@std@@V?$allocator@U?$pair@$$CBHH@std@@@2@$0A@@std@@@std@@QAE@ABU?$less@H@1@ABV?$allocator@U?$pair@$$CBHH@std@@@1@@Z 00451bc0 f i DlgColours.obj
 0001:00050bc0       ??0?$_Tree@V?$_Tmap_traits@HKU?$less@H@std@@V?$allocator@U?$pair@$$CBHK@std@@@2@$0A@@std@@@std@@QAE@ABU?$less@H@1@ABV?$allocator@U?$pair@$$CBHK@std@@@1@@Z 00451bc0 f i UserColor.obj
 0001:00050c50       ?_Insert@?$_Tree@V?$_Tmap_traits@VCDPoint@@HU?$less@VCDPoint@@@std@@V?$allocator@U?$pair@$$CBVCDPoint@@H@std@@@3@$0A@@std@@@std@@IAE?AViterator@12@_NPAU_Node@?$_Tree_nod@V?$_Tmap_traits@VCDPoint@@HU?$less@VCDPoint@@@std@@V?$allocator@U?$pair@$$CBVCDPoint@@H@std@@@3@$0A@@std@@@2@ABU?$pair@$$CBVCDPoint@@H@2@@Z 00451c50 f i NetList.obj
 0001:00050e50       ?_Insert@?$_Tree@V?$_Tmap_traits@HV?$CStringT@_WV?$StrTraitMFC@_WV?$ChTraitsCRT@_W@ATL@@@@@ATL@@U?$less@H@std@@V?$allocator@U?$pair@$$CBHV?$CStringT@_WV?$StrTraitMFC@_WV?$ChTraitsCRT@_W@ATL@@@@@ATL@@@std@@@4@$0A@@std@@@std@@IAE?AViterator@12@_NPAU_Node@?$_Tree_nod@V?$_Tmap_traits@HV?$CStringT@_WV?$StrTraitMFC@_WV?$ChTraitsCRT@_W@ATL@@@@@ATL@@U?$less@H@std@@V?$allocator@U?$pair@$$CBHV?$CStringT@_WV?$StrTraitMFC@_WV?$ChTraitsCRT@_W@ATL@@@@@ATL@@@std@@@4@$0A@@std@@@2@ABU?$pair@$$CBHV?$CStringT@_WV?$StrTraitMFC@_WV?$ChTraitsCRT@_W@ATL@@@@@ATL@@@2@@Z 00451e50 f i NetList.obj
 0001:00051050       ?erase@?$_Tree@V?$_Tmap_traits@HV?$CStringT@_WV?$StrTraitMFC@_WV?$ChTraitsCRT@_W@ATL@@@@@ATL@@U?$less@H@std@@V?$allocator@U?$pair@$$CBHV?$CStringT@_WV?$StrTraitMFC@_WV?$ChTraitsCRT@_W@ATL@@@@@ATL@@@std@@@4@$0A@@std@@@std@@QAE?AViterator@12@Vconst_iterator@12@@Z 00452050 f i NetList.obj
 0001:00051340       ?_Erase@?$_Tree@V?$_Tmap_traits@HV?$CStringT@_WV?$StrTraitMFC@_WV?$ChTraitsCRT@_W@ATL@@@@@ATL@@U?$less@H@std@@V?$allocator@U?$pair@$$CBHV?$CStringT@_WV?$StrTraitMFC@_WV?$ChTraitsCRT@_W@ATL@@@@@ATL@@@std@@@4@$0A@@std@@@std@@IAEXPAU_Node@?$_Tree_nod@V?$_Tmap_traits@HV?$CStringT@_WV?$StrTraitMFC@_WV?$ChTraitsCRT@_W@ATL@@@@@ATL@@U?$less@H@std@@V?$allocator@U?$pair@$$CBHV?$CStringT@_WV?$StrTraitMFC@_WV?$ChTraitsCRT@_W@ATL@@@@@ATL@@@std@@@4@$0A@@std@@@2@@Z 00452340 f i NetList.obj
 0001:000513a0       ?_Copy@?$_Tree@V?$_Tset_traits@V?$CStringT@_WV?$StrTraitMFC@_WV?$ChTraitsCRT@_W@ATL@@@@@ATL@@U?$less@V?$CStringT@_WV?$StrTraitMFC@_WV?$ChTraitsCRT@_W@ATL@@@@@ATL@@@std@@V?$allocator@V?$CStringT@_WV?$StrTraitMFC@_WV?$ChTraitsCRT@_W@ATL@@@@@ATL@@@4@$0A@@std@@@std@@IAEPAU_Node@?$_Tree_nod@V?$_Tset_traits@V?$CStringT@_WV?$StrTraitMFC@_WV?$ChTraitsCRT@_W@ATL@@@@@ATL@@U?$less@V?$CStringT@_WV?$StrTraitMFC@_WV?$ChTraitsCRT@_W@ATL@@@@@ATL@@@std@@V?$allocator@V?$CStringT@_WV?$StrTraitMFC@_WV?$ChTraitsCRT@_W@ATL@@@@@ATL@@@4@$0A@@std@@@2@PAU342@0@Z 004523a0 f i NetList.obj
 0001:00051460       ??$_Fill@PAVCNetListNode@@V1@@std@@YAXPAVCNetListNode@@0ABV1@@Z 00452460 f i NetList.obj
 0001:000514e0       ??$_Copy_backward_opt@PAVCNetListNode@@PAV1@@std@@YAPAVCNetListNode@@PAV1@00Urandom_access_iterator_tag@0@U_Nonscalar_ptr_iterator_tag@0@U_Range_checked_iterator_tag@0@@Z 004524e0 f i NetList.obj
 0001:00051550       ?createErrorFile@CNetList@@IAEXPB_W@Z 00452550 f   NetList.obj
 0001:00051660       ?erase@?$_Tree@V?$_Tmap_traits@VCDPoint@@HU?$less@VCDPoint@@@std@@V?$allocator@U?$pair@$$CBVCDPoint@@H@std@@@3@$0A@@std@@@std@@QAE?AViterator@12@Vconst_iterator@12@0@Z 00452660 f i NetList.obj
 0001:00051740       ?_Tidy@?$_Tree@V?$_Tmap_traits@VCDPoint@@HU?$less@VCDPoint@@@std@@V?$allocator@U?$pair@$$CBVCDPoint@@H@std@@@3@$0A@@std@@@std@@IAEXXZ 00452740 f i NetList.obj
 0001:00051780       ?_Ufill@?$vector@VCNetListNode@@V?$allocator@VCNetListNode@@@std@@@std@@IAEPAVCNetListNode@@PAV3@IABV3@@Z 00452780 f i NetList.obj
 0001:000517c0       ?insert@?$_Tree@V?$_Tmap_traits@VCDPoint@@HU?$less@VCDPoint@@@std@@V?$allocator@U?$pair@$$CBVCDPoint@@H@std@@@3@$0A@@std@@@std@@QAE?AU?$pair@Viterator@?$_Tree@V?$_Tmap_traits@VCDPoint@@HU?$less@VCDPoint@@@std@@V?$allocator@U?$pair@$$CBVCDPoint@@H@std@@@3@$0A@@std@@@std@@_N@2@ABU?$pair@$$CBVCDPoint@@H@2@@Z 004527c0 f i NetList.obj
 0001:000518e0       ?insert@?$_Tree@V?$_Tmap_traits@HV?$CStringT@_WV?$StrTraitMFC@_WV?$ChTraitsCRT@_W@ATL@@@@@ATL@@U?$less@H@std@@V?$allocator@U?$pair@$$CBHV?$CStringT@_WV?$StrTraitMFC@_WV?$ChTraitsCRT@_W@ATL@@@@@ATL@@@std@@@4@$0A@@std@@@std@@QAE?AU?$pair@Viterator@?$_Tree@V?$_Tmap_traits@HV?$CStringT@_WV?$StrTraitMFC@_WV?$ChTraitsCRT@_W@ATL@@@@@ATL@@U?$less@H@std@@V?$allocator@U?$pair@$$CBHV?$CStringT@_WV?$StrTraitMFC@_WV?$ChTraitsCRT@_W@ATL@@@@@ATL@@@std@@@4@$0A@@std@@@std@@_N@2@ABU?$pair@$$CBHV?$CStringT@_WV?$StrTraitMFC@_WV?$ChTraitsCRT@_W@ATL@@@@@ATL@@@2@@Z 004528e0 f i NetList.obj
 0001:000519d0       ?_Buy@?$vector@VCNetListNode@@V?$allocator@VCNetListNode@@@std@@@std@@IAE_NI@Z 004529d0 f i NetList.obj
 0001:00051a30       ??0?$_Tree@V?$_Tmap_traits@VCDPoint@@HU?$less@VCDPoint@@@std@@V?$allocator@U?$pair@$$CBVCDPoint@@H@std@@@3@$0A@@std@@@std@@QAE@ABV01@@Z 00452a30 f i NetList.obj
 0001:00051ae0       ??0?$vector@PAVCImportFile@@V?$allocator@PAVCImportFile@@@std@@@std@@QAE@ABV01@@Z 00452ae0 f i NetList.obj
 0001:00051bc0       ?_Destroy@?$vector@VCNetListNode@@V?$allocator@VCNetListNode@@@std@@@std@@IAEXPAVCNetListNode@@0@Z 00452bc0 f i NetList.obj
 0001:00051be0       ??0?$_Tree@V?$_Tmap_traits@HHU?$less@H@std@@V?$allocator@U?$pair@$$CBHH@std@@@2@$0A@@std@@@std@@QAE@ABV01@@Z 00452be0 f i NetList.obj
 0001:00051c90       ?_Copy@?$_Tree@V?$_Tmap_traits@V?$CStringT@_WV?$StrTraitMFC@_WV?$ChTraitsCRT@_W@ATL@@@@@ATL@@HU?$less@V?$CStringT@_WV?$StrTraitMFC@_WV?$ChTraitsCRT@_W@ATL@@@@@ATL@@@std@@V?$allocator@U?$pair@$$CBV?$CStringT@_WV?$StrTraitMFC@_WV?$ChTraitsCRT@_W@ATL@@@@@ATL@@H@std@@@4@$0A@@std@@@std@@IAEPAU_Node@?$_Tree_nod@V?$_Tmap_traits@V?$CStringT@_WV?$StrTraitMFC@_WV?$ChTraitsCRT@_W@ATL@@@@@ATL@@HU?$less@V?$CStringT@_WV?$StrTraitMFC@_WV?$ChTraitsCRT@_W@ATL@@@@@ATL@@@std@@V?$allocator@U?$pair@$$CBV?$CStringT@_WV?$StrTraitMFC@_WV?$ChTraitsCRT@_W@ATL@@@@@ATL@@H@std@@@4@$0A@@std@@@2@PAU342@0@Z 00452c90 f i NetList.obj
 0001:00051d50       ?_Copy@?$_Tree@V?$_Tset_traits@V?$CStringT@_WV?$StrTraitMFC@_WV?$ChTraitsCRT@_W@ATL@@@@@ATL@@U?$less@V?$CStringT@_WV?$StrTraitMFC@_WV?$ChTraitsCRT@_W@ATL@@@@@ATL@@@std@@V?$allocator@V?$CStringT@_WV?$StrTraitMFC@_WV?$ChTraitsCRT@_W@ATL@@@@@ATL@@@4@$0A@@std@@@std@@IAEXABV12@@Z 00452d50 f i NetList.obj
 0001:00051dd0       ??4?$vector@PAVCImportFile@@V?$allocator@PAVCImportFile@@@std@@@std@@QAEAAV01@ABV01@@Z 00452dd0 f i NetList.obj
 0001:00051ec0       ??1?$_Tree@V?$_Tmap_traits@VCDPoint@@HU?$less@VCDPoint@@@std@@V?$allocator@U?$pair@$$CBVCDPoint@@H@std@@@3@$0A@@std@@@std@@QAE@XZ 00452ec0 f i NetList.obj
 0001:00051f40       ?insert@?$_Tree@V?$_Tmap_traits@VCDPoint@@HU?$less@VCDPoint@@@std@@V?$allocator@U?$pair@$$CBVCDPoint@@H@std@@@3@$0A@@std@@@std@@QAE?AViterator@12@Vconst_iterator@12@ABU?$pair@$$CBVCDPoint@@H@2@@Z 00452f40 f i NetList.obj
 0001:00052160       ?insert@?$_Tree@V?$_Tmap_traits@HV?$CStringT@_WV?$StrTraitMFC@_WV?$ChTraitsCRT@_W@ATL@@@@@ATL@@U?$less@H@std@@V?$allocator@U?$pair@$$CBHV?$CStringT@_WV?$StrTraitMFC@_WV?$ChTraitsCRT@_W@ATL@@@@@ATL@@@std@@@4@$0A@@std@@@std@@QAE?AViterator@12@Vconst_iterator@12@ABU?$pair@$$CBHV?$CStringT@_WV?$StrTraitMFC@_WV?$ChTraitsCRT@_W@ATL@@@@@ATL@@@2@@Z 00453160 f i NetList.obj
 0001:00052330       ?erase@?$_Tree@V?$_Tmap_traits@HV?$CStringT@_WV?$StrTraitMFC@_WV?$ChTraitsCRT@_W@ATL@@@@@ATL@@U?$less@H@std@@V?$allocator@U?$pair@$$CBHV?$CStringT@_WV?$StrTraitMFC@_WV?$ChTraitsCRT@_W@ATL@@@@@ATL@@@std@@@4@$0A@@std@@@std@@QAE?AViterator@12@Vconst_iterator@12@0@Z 00453330 f i NetList.obj
 0001:00052410       ?_Tidy@?$vector@VCNetListNode@@V?$allocator@VCNetListNode@@@std@@@std@@IAEXXZ 00453410 f i NetList.obj
 0001:00052460       ?_Copy@?$_Tree@V?$_Tmap_traits@V?$CStringT@_WV?$StrTraitMFC@_WV?$ChTraitsCRT@_W@ATL@@@@@ATL@@HU?$less@V?$CStringT@_WV?$StrTraitMFC@_WV?$ChTraitsCRT@_W@ATL@@@@@ATL@@@std@@V?$allocator@U?$pair@$$CBV?$CStringT@_WV?$StrTraitMFC@_WV?$ChTraitsCRT@_W@ATL@@@@@ATL@@H@std@@@4@$0A@@std@@@std@@IAEXABV12@@Z 00453460 f i NetList.obj
 0001:000524e0       ??$_Umove@PAVCNetListNode@@@?$vector@VCNetListNode@@V?$allocator@VCNetListNode@@@std@@@std@@IAEPAVCNetListNode@@PAV2@00@Z 004534e0 f i NetList.obj
 0001:00052510       ??$_Unchecked_move_backward@PAVCNetListNode@@PAV1@@stdext@@YAPAVCNetListNode@@PAV1@00@Z 00453510 f i NetList.obj
 0001:00052540       ??$_Copy_opt@PAV?$map@HHU?$less@H@std@@V?$allocator@U?$pair@$$CBHH@std@@@2@@std@@PAV12@Uforward_iterator_tag@2@@std@@YAPAV?$map@HHU?$less@H@std@@V?$allocator@U?$pair@$$CBHH@std@@@2@@0@PAV10@00Uforward_iterator_tag@0@U_Nonscalar_ptr_iterator_tag@0@U_Range_checked_iterator_tag@0@@Z 00453540 f i NetList.obj
 0001:000525a0       ??1?$map@VCDPoint@@HU?$less@VCDPoint@@@std@@V?$allocator@U?$pair@$$CBVCDPoint@@H@std@@@3@@std@@QAE@XZ 004535a0 f i NetList.obj
 0001:000525b0       ??A?$map@VCDPoint@@HU?$less@VCDPoint@@@std@@V?$allocator@U?$pair@$$CBVCDPoint@@H@std@@@3@@std@@QAEAAHABVCDPoint@@@Z 004535b0 f i NetList.obj
 0001:00052680       ??A?$map@HV?$CStringT@_WV?$StrTraitMFC@_WV?$ChTraitsCRT@_W@ATL@@@@@ATL@@U?$less@H@std@@V?$allocator@U?$pair@$$CBHV?$CStringT@_WV?$StrTraitMFC@_WV?$ChTraitsCRT@_W@ATL@@@@@ATL@@@std@@@4@@std@@QAEAAV?$CStringT@_WV?$StrTraitMFC@_WV?$ChTraitsCRT@_W@ATL@@@@@ATL@@ABH@Z 00453680 f i NetList.obj
 0001:000527e0       ??1?$vector@VCNetListNode@@V?$allocator@VCNetListNode@@@std@@@std@@QAE@XZ 004537e0 f i NetList.obj
 0001:00052860       ??0?$_Tree@V?$_Tmap_traits@V?$CStringT@_WV?$StrTraitMFC@_WV?$ChTraitsCRT@_W@ATL@@@@@ATL@@HU?$less@V?$CStringT@_WV?$StrTraitMFC@_WV?$ChTraitsCRT@_W@ATL@@@@@ATL@@@std@@V?$allocator@U?$pair@$$CBV?$CStringT@_WV?$StrTraitMFC@_WV?$ChTraitsCRT@_W@ATL@@@@@ATL@@H@std@@@4@$0A@@std@@@std@@QAE@ABV01@@Z 00453860 f i NetList.obj
 0001:00052910       ??0?$vector@VCNetListNode@@V?$allocator@VCNetListNode@@@std@@@std@@QAE@ABV01@@Z 00453910 f i NetList.obj
 0001:00052a00       ?_Insert_n@?$vector@VCNetListNode@@V?$allocator@VCNetListNode@@@std@@@std@@IAEXV?$_Vector_const_iterator@VCNetListNode@@V?$allocator@VCNetListNode@@@std@@@2@IABVCNetListNode@@@Z 00453a00 f i NetList.obj
 0001:00052d20       ??0?$_Tree@V?$_Tset_traits@V?$CStringT@_WV?$StrTraitMFC@_WV?$ChTraitsCRT@_W@ATL@@@@@ATL@@U?$less@V?$CStringT@_WV?$StrTraitMFC@_WV?$ChTraitsCRT@_W@ATL@@@@@ATL@@@std@@V?$allocator@V?$CStringT@_WV?$StrTraitMFC@_WV?$ChTraitsCRT@_W@ATL@@@@@ATL@@@4@$0A@@std@@@std@@QAE@ABV01@@Z 00453d20 f i NetList.obj
 0001:00052dd0       ??$_Fill@PAV?$map@HHU?$less@H@std@@V?$allocator@U?$pair@$$CBHH@std@@@2@@std@@V12@@std@@YAXPAV?$map@HHU?$less@H@std@@V?$allocator@U?$pair@$$CBHH@std@@@2@@0@0ABV10@@Z 00453dd0 f i NetList.obj
 0001:00052e20       ??$_Copy_opt@PAV?$set@V?$CStringT@_WV?$StrTraitMFC@_WV?$ChTraitsCRT@_W@ATL@@@@@ATL@@U?$less@V?$CStringT@_WV?$StrTraitMFC@_WV?$ChTraitsCRT@_W@ATL@@@@@ATL@@@std@@V?$allocator@V?$CStringT@_WV?$StrTraitMFC@_WV?$ChTraitsCRT@_W@ATL@@@@@ATL@@@4@@std@@PAV12@Uforward_iterator_tag@2@@std@@YAPAV?$set@V?$CStringT@_WV?$StrTraitMFC@_WV?$ChTraitsCRT@_W@ATL@@@@@ATL@@U?$less@V?$CStringT@_WV?$StrTraitMFC@_WV?$ChTraitsCRT@_W@ATL@@@@@ATL@@@std@@V?$allocator@V?$CStringT@_WV?$StrTraitMFC@_WV?$ChTraitsCRT@_W@ATL@@@@@ATL@@@4@@0@PAV10@00Uforward_iterator_tag@0@U_Nonscalar_ptr_iterator_tag@0@U_Range_checked_iterator_tag@0@@Z 00453e20 f i NetList.obj
 0001:00052e80       ??1?$_Tree@V?$_Tmap_traits@HV?$CStringT@_WV?$StrTraitMFC@_WV?$ChTraitsCRT@_W@ATL@@@@@ATL@@U?$less@H@std@@V?$allocator@U?$pair@$$CBHV?$CStringT@_WV?$StrTraitMFC@_WV?$ChTraitsCRT@_W@ATL@@@@@ATL@@@std@@@4@$0A@@std@@@std@@QAE@XZ 00453e80 f i NetList.obj
 0001:00052f00       ??1?$pair@$$CBHV?$vector@VCNetListNode@@V?$allocator@VCNetListNode@@@std@@@std@@@std@@QAE@XZ 00453f00 f i NetList.obj
 0001:00052f10       ?insert@?$vector@VCNetListNode@@V?$allocator@VCNetListNode@@@std@@@std@@QAE?AV?$_Vector_iterator@VCNetListNode@@V?$allocator@VCNetListNode@@@std@@@2@V?$_Vector_const_iterator@VCNetListNode@@V?$allocator@VCNetListNode@@@std@@@2@ABVCNetListNode@@@Z 00453f10 f i NetList.obj
 0001:00052fd0       ??$unchecked_copy@PAV?$map@HHU?$less@H@std@@V?$allocator@U?$pair@$$CBHH@std@@@2@@std@@PAV12@@stdext@@YAPAV?$map@HHU?$less@H@std@@V?$allocator@U?$pair@$$CBHH@std@@@2@@std@@PAV12@00@Z 00453fd0 f i NetList.obj
 0001:00053020       ??$_Fill@PAV?$set@V?$CStringT@_WV?$StrTraitMFC@_WV?$ChTraitsCRT@_W@ATL@@@@@ATL@@U?$less@V?$CStringT@_WV?$StrTraitMFC@_WV?$ChTraitsCRT@_W@ATL@@@@@ATL@@@std@@V?$allocator@V?$CStringT@_WV?$StrTraitMFC@_WV?$ChTraitsCRT@_W@ATL@@@@@ATL@@@4@@std@@V12@@std@@YAXPAV?$set@V?$CStringT@_WV?$StrTraitMFC@_WV?$ChTraitsCRT@_W@ATL@@@@@ATL@@U?$less@V?$CStringT@_WV?$StrTraitMFC@_WV?$ChTraitsCRT@_W@ATL@@@@@ATL@@@std@@V?$allocator@V?$CStringT@_WV?$StrTraitMFC@_WV?$ChTraitsCRT@_W@ATL@@@@@ATL@@@4@@0@0ABV10@@Z 00454020 f i NetList.obj
 0001:00053070       ??1?$map@HV?$CStringT@_WV?$StrTraitMFC@_WV?$ChTraitsCRT@_W@ATL@@@@@ATL@@U?$less@H@std@@V?$allocator@U?$pair@$$CBHV?$CStringT@_WV?$StrTraitMFC@_WV?$ChTraitsCRT@_W@ATL@@@@@ATL@@@std@@@4@@std@@QAE@XZ 00454070 f i NetList.obj
 0001:00053080       ??1CNetListSymbol@@QAE@XZ  00454080 f i NetList.obj
 0001:00053090       ?push_back@?$vector@VCNetListNode@@V?$allocator@VCNetListNode@@@std@@@std@@QAEXABVCNetListNode@@@Z 00454090 f i NetList.obj
 0001:00053140       ??1?$pair@$$CBV?$CStringT@_WV?$StrTraitMFC@_WV?$ChTraitsCRT@_W@ATL@@@@@ATL@@VCNetListSymbol@@@std@@QAE@XZ 00454140 f i NetList.obj
 0001:000531b0       ?_Buynode@?$_Tree@V?$_Tmap_traits@HV?$vector@VCNetListNode@@V?$allocator@VCNetListNode@@@std@@@std@@U?$less@H@2@V?$allocator@U?$pair@$$CBHV?$vector@VCNetListNode@@V?$allocator@VCNetListNode@@@std@@@std@@@std@@@2@$0A@@std@@@std@@IAEPAU_Node@?$_Tree_nod@V?$_Tmap_traits@HV?$vector@VCNetListNode@@V?$allocator@VCNetListNode@@@std@@@std@@U?$less@H@2@V?$allocator@U?$pair@$$CBHV?$vector@VCNetListNode@@V?$allocator@VCNetListNode@@@std@@@std@@@std@@@2@$0A@@std@@@2@PAU342@00ABU?$pair@$$CBHV?$vector@VCNetListNode@@V?$allocator@VCNetListNode@@@std@@@std@@@2@D@Z 004541b0 f i NetList.obj
 0001:00053260       ??0?$pair@$$CBV?$CStringT@_WV?$StrTraitMFC@_WV?$ChTraitsCRT@_W@ATL@@@@@ATL@@VCNetListSymbol@@@std@@QAE@ABU01@@Z 00454260 f i NetList.obj
 0001:000532e0       ??$unchecked_copy@PAV?$set@V?$CStringT@_WV?$StrTraitMFC@_WV?$ChTraitsCRT@_W@ATL@@@@@ATL@@U?$less@V?$CStringT@_WV?$StrTraitMFC@_WV?$ChTraitsCRT@_W@ATL@@@@@ATL@@@std@@V?$allocator@V?$CStringT@_WV?$StrTraitMFC@_WV?$ChTraitsCRT@_W@ATL@@@@@ATL@@@4@@std@@PAV12@@stdext@@YAPAV?$set@V?$CStringT@_WV?$StrTraitMFC@_WV?$ChTraitsCRT@_W@ATL@@@@@ATL@@U?$less@V?$CStringT@_WV?$StrTraitMFC@_WV?$ChTraitsCRT@_W@ATL@@@@@ATL@@@std@@V?$allocator@V?$CStringT@_WV?$StrTraitMFC@_WV?$ChTraitsCRT@_W@ATL@@@@@ATL@@@4@@std@@PAV12@00@Z 004542e0 f i NetList.obj
 0001:00053330       ??$_Uninit_move@PAV?$map@HHU?$less@H@std@@V?$allocator@U?$pair@$$CBHH@std@@@2@@std@@PAV12@V?$allocator@V?$map@HHU?$less@H@std@@V?$allocator@U?$pair@$$CBHH@std@@@2@@std@@@2@@std@@YAPAV?$map@HHU?$less@H@std@@V?$allocator@U?$pair@$$CBHH@std@@@2@@0@PAV10@00AAV?$allocator@V?$map@HHU?$less@H@std@@V?$allocator@U?$pair@$$CBHH@std@@@2@@std@@@0@U_Swap_move_tag@0@U_Range_checked_iterator_tag@0@@Z 00454330 f i NetList.obj
 0001:00053430       ??0?$pair@$$CBV?$CStringT@_WV?$StrTraitMFC@_WV?$ChTraitsCRT@_W@ATL@@@@@ATL@@VCNetListSymbol@@@std@@QAE@ABV?$CStringT@_WV?$StrTraitMFC@_WV?$ChTraitsCRT@_W@ATL@@@@@ATL@@ABVCNetListSymbol@@@Z 00454430 f i NetList.obj
 0001:000534b0       ?_Insert@?$_Tree@V?$_Tmap_traits@HV?$vector@VCNetListNode@@V?$allocator@VCNetListNode@@@std@@@std@@U?$less@H@2@V?$allocator@U?$pair@$$CBHV?$vector@VCNetListNode@@V?$allocator@VCNetListNode@@@std@@@std@@@std@@@2@$0A@@std@@@std@@IAE?AViterator@12@_NPAU_Node@?$_Tree_nod@V?$_Tmap_traits@HV?$vector@VCNetListNode@@V?$allocator@VCNetListNode@@@std@@@std@@U?$less@H@2@V?$allocator@U?$pair@$$CBHV?$vector@VCNetListNode@@V?$allocator@VCNetListNode@@@std@@@std@@@std@@@2@$0A@@std@@@2@ABU?$pair@$$CBHV?$vector@VCNetListNode@@V?$allocator@VCNetListNode@@@std@@@std@@@2@@Z 004544b0 f i NetList.obj
 0001:000536b0       ??$_Unchecked_move_backward@PAV?$set@V?$CStringT@_WV?$StrTraitMFC@_WV?$ChTraitsCRT@_W@ATL@@@@@ATL@@U?$less@V?$CStringT@_WV?$StrTraitMFC@_WV?$ChTraitsCRT@_W@ATL@@@@@ATL@@@std@@V?$allocator@V?$CStringT@_WV?$StrTraitMFC@_WV?$ChTraitsCRT@_W@ATL@@@@@ATL@@@4@@std@@PAV12@@stdext@@YAPAV?$set@V?$CStringT@_WV?$StrTraitMFC@_WV?$ChTraitsCRT@_W@ATL@@@@@ATL@@U?$less@V?$CStringT@_WV?$StrTraitMFC@_WV?$ChTraitsCRT@_W@ATL@@@@@ATL@@@std@@V?$allocator@V?$CStringT@_WV?$StrTraitMFC@_WV?$ChTraitsCRT@_W@ATL@@@@@ATL@@@4@@std@@PAV12@00@Z 004546b0 f i NetList.obj
 0001:000536b0       ??$_Unchecked_move_backward@PAV?$map@HHU?$less@H@std@@V?$allocator@U?$pair@$$CBHH@std@@@2@@std@@PAV12@@stdext@@YAPAV?$map@HHU?$less@H@std@@V?$allocator@U?$pair@$$CBHH@std@@@2@@std@@PAV12@00@Z 004546b0 f i NetList.obj
 0001:000536f0       ??$_Copy_opt@PAVCNetListNode@@V?$back_insert_iterator@V?$vector@VCNetListNode@@V?$allocator@VCNetListNode@@@std@@@std@@@std@@Uforward_iterator_tag@3@@std@@YA?AV?$back_insert_iterator@V?$vector@VCNetListNode@@V?$allocator@VCNetListNode@@@std@@@std@@@0@PAVCNetListNode@@0V10@Uforward_iterator_tag@0@U_Nonscalar_ptr_iterator_tag@0@U_Range_checked_iterator_tag@0@@Z 004546f0 f i NetList.obj
 0001:00053730       ??$_Uninit_fill_n@PAV?$map@HHU?$less@H@std@@V?$allocator@U?$pair@$$CBHH@std@@@2@@std@@IV12@V?$allocator@V?$map@HHU?$less@H@std@@V?$allocator@U?$pair@$$CBHH@std@@@2@@std@@@2@@std@@YAXPAV?$map@HHU?$less@H@std@@V?$allocator@U?$pair@$$CBHH@std@@@2@@0@IABV10@AAV?$allocator@V?$map@HHU?$less@H@std@@V?$allocator@U?$pair@$$CBHH@std@@@2@@std@@@0@U_Nonscalar_ptr_iterator_tag@0@U_Range_checked_iterator_tag@0@@Z 00454730 f i NetList.obj
 0001:000537d0       ??$_Move_backward_opt@PAV?$map@HHU?$less@H@std@@V?$allocator@U?$pair@$$CBHH@std@@@2@@std@@PAV12@Uforward_iterator_tag@2@@std@@YAPAV?$map@HHU?$less@H@std@@V?$allocator@U?$pair@$$CBHH@std@@@2@@0@PAV10@00Uforward_iterator_tag@0@U_Swap_move_tag@0@U_Range_checked_iterator_tag@0@@Z 004547d0 f i NetList.obj
 0001:000537d0       ??$_Move_backward_opt@PAV?$set@V?$CStringT@_WV?$StrTraitMFC@_WV?$ChTraitsCRT@_W@ATL@@@@@ATL@@U?$less@V?$CStringT@_WV?$StrTraitMFC@_WV?$ChTraitsCRT@_W@ATL@@@@@ATL@@@std@@V?$allocator@V?$CStringT@_WV?$StrTraitMFC@_WV?$ChTraitsCRT@_W@ATL@@@@@ATL@@@4@@std@@PAV12@Uforward_iterator_tag@2@@std@@YAPAV?$set@V?$CStringT@_WV?$StrTraitMFC@_WV?$ChTraitsCRT@_W@ATL@@@@@ATL@@U?$less@V?$CStringT@_WV?$StrTraitMFC@_WV?$ChTraitsCRT@_W@ATL@@@@@ATL@@@std@@V?$allocator@V?$CStringT@_WV?$StrTraitMFC@_WV?$ChTraitsCRT@_W@ATL@@@@@ATL@@@4@@0@PAV10@00Uforward_iterator_tag@0@U_Swap_move_tag@0@U_Range_checked_iterator_tag@0@@Z 004547d0 f i NetList.obj
 0001:00053850       ?insert@?$_Tree@V?$_Tmap_traits@HV?$vector@VCNetListNode@@V?$allocator@VCNetListNode@@@std@@@std@@U?$less@H@2@V?$allocator@U?$pair@$$CBHV?$vector@VCNetListNode@@V?$allocator@VCNetListNode@@@std@@@std@@@std@@@2@$0A@@std@@@std@@QAE?AU?$pair@Viterator@?$_Tree@V?$_Tmap_traits@HV?$vector@VCNetListNode@@V?$allocator@VCNetListNode@@@std@@@std@@U?$less@H@2@V?$allocator@U?$pair@$$CBHV?$vector@VCNetListNode@@V?$allocator@VCNetListNode@@@std@@@std@@@std@@@2@$0A@@std@@@std@@_N@2@ABU?$pair@$$CBHV?$vector@VCNetListNode@@V?$allocator@VCNetListNode@@@std@@@std@@@2@@Z 00454850 f i NetList.obj
 0001:00053940       ?_Erase@?$_Tree@V?$_Tmap_traits@HV?$vector@VCNetListNode@@V?$allocator@VCNetListNode@@@std@@@std@@U?$less@H@2@V?$allocator@U?$pair@$$CBHV?$vector@VCNetListNode@@V?$allocator@VCNetListNode@@@std@@@std@@@std@@@2@$0A@@std@@@std@@IAEXPAU_Node@?$_Tree_nod@V?$_Tmap_traits@HV?$vector@VCNetListNode@@V?$allocator@VCNetListNode@@@std@@@std@@U?$less@H@2@V?$allocator@U?$pair@$$CBHV?$vector@VCNetListNode@@V?$allocator@VCNetListNode@@@std@@@std@@@std@@@2@$0A@@std@@@2@@Z 00454940 f i NetList.obj
 0001:00053980       ?_Buynode@?$_Tree@V?$_Tmap_traits@V?$CStringT@_WV?$StrTraitMFC@_WV?$ChTraitsCRT@_W@ATL@@@@@ATL@@VCNetListSymbol@@U?$less@V?$CStringT@_WV?$StrTraitMFC@_WV?$ChTraitsCRT@_W@ATL@@@@@ATL@@@std@@V?$allocator@U?$pair@$$CBV?$CStringT@_WV?$StrTraitMFC@_WV?$ChTraitsCRT@_W@ATL@@@@@ATL@@VCNetListSymbol@@@std@@@5@$0A@@std@@@std@@IAEPAU_Node@?$_Tree_nod@V?$_Tmap_traits@V?$CStringT@_WV?$StrTraitMFC@_WV?$ChTraitsCRT@_W@ATL@@@@@ATL@@VCNetListSymbol@@U?$less@V?$CStringT@_WV?$StrTraitMFC@_WV?$ChTraitsCRT@_W@ATL@@@@@ATL@@@std@@V?$allocator@U?$pair@$$CBV?$CStringT@_WV?$StrTraitMFC@_WV?$ChTraitsCRT@_W@ATL@@@@@ATL@@VCNetListSymbol@@@std@@@5@$0A@@std@@@2@PAU342@00ABU?$pair@$$CBV?$CStringT@_WV?$StrTraitMFC@_WV?$ChTraitsCRT@_W@ATL@@@@@ATL@@VCNetListSymbol@@@2@D@Z 00454980 f i NetList.obj
 0001:00053a20       ?_Copy@?$_Tree@V?$_Tmap_traits@HV?$vector@VCNetListNode@@V?$allocator@VCNetListNode@@@std@@@std@@U?$less@H@2@V?$allocator@U?$pair@$$CBHV?$vector@VCNetListNode@@V?$allocator@VCNetListNode@@@std@@@std@@@std@@@2@$0A@@std@@@std@@IAEPAU_Node@?$_Tree_nod@V?$_Tmap_traits@HV?$vector@VCNetListNode@@V?$allocator@VCNetListNode@@@std@@@std@@U?$less@H@2@V?$allocator@U?$pair@$$CBHV?$vector@VCNetListNode@@V?$allocator@VCNetListNode@@@std@@@std@@@std@@@2@$0A@@std@@@2@PAU342@0@Z 00454a20 f i NetList.obj
 0001:00053ae0       ??$copy@V?$_Vector_iterator@VCNetListNode@@V?$allocator@VCNetListNode@@@std@@@std@@V?$back_insert_iterator@V?$vector@VCNetListNode@@V?$allocator@VCNetListNode@@@std@@@std@@@2@@std@@YA?AV?$back_insert_iterator@V?$vector@VCNetListNode@@V?$allocator@VCNetListNode@@@std@@@std@@@0@V?$_Vector_iterator@VCNetListNode@@V?$allocator@VCNetListNode@@@std@@@0@0V10@@Z 00454ae0 f i NetList.obj
 0001:00053b20       ??$_Umove@PAV?$map@HHU?$less@H@std@@V?$allocator@U?$pair@$$CBHH@std@@@2@@std@@@?$vector@V?$map@HHU?$less@H@std@@V?$allocator@U?$pair@$$CBHH@std@@@2@@std@@V?$allocator@V?$map@HHU?$less@H@std@@V?$allocator@U?$pair@$$CBHH@std@@@2@@std@@@2@@std@@IAEPAV?$map@HHU?$less@H@std@@V?$allocator@U?$pair@$$CBHH@std@@@2@@1@PAV21@00@Z 00454b20 f i NetList.obj
 0001:00053b50       ??$_Uninit_move@PAV?$set@V?$CStringT@_WV?$StrTraitMFC@_WV?$ChTraitsCRT@_W@ATL@@@@@ATL@@U?$less@V?$CStringT@_WV?$StrTraitMFC@_WV?$ChTraitsCRT@_W@ATL@@@@@ATL@@@std@@V?$allocator@V?$CStringT@_WV?$StrTraitMFC@_WV?$ChTraitsCRT@_W@ATL@@@@@ATL@@@4@@std@@PAV12@V?$allocator@V?$set@V?$CStringT@_WV?$StrTraitMFC@_WV?$ChTraitsCRT@_W@ATL@@@@@ATL@@U?$less@V?$CStringT@_WV?$StrTraitMFC@_WV?$ChTraitsCRT@_W@ATL@@@@@ATL@@@std@@V?$allocator@V?$CStringT@_WV?$StrTraitMFC@_WV?$ChTraitsCRT@_W@ATL@@@@@ATL@@@4@@std@@@2@@std@@YAPAV?$set@V?$CStringT@_WV?$StrTraitMFC@_WV?$ChTraitsCRT@_W@ATL@@@@@ATL@@U?$less@V?$CStringT@_WV?$StrTraitMFC@_WV?$ChTraitsCRT@_W@ATL@@@@@ATL@@@std@@V?$allocator@V?$CStringT@_WV?$StrTraitMFC@_WV?$ChTraitsCRT@_W@ATL@@@@@ATL@@@4@@0@PAV10@00AAV?$allocator@V?$set@V?$CStringT@_WV?$StrTraitMFC@_WV?$ChTraitsCRT@_W@ATL@@@@@ATL@@U?$less@V?$CStringT@_WV?$StrTraitMFC@_WV?$ChTraitsCRT@_W@ATL@@@@@ATL@@@std@@V?$allocator@V?$CStringT@_WV?$StrTraitMFC@_WV?$ChTraitsCRT@_W@ATL@@@@@ATL@@@4@@std@@@0@U_Swap_move_tag@0@U_Range_checked_iterator_tag@0@@Z 00454b50 f i NetList.obj
 0001:00053c50       ?erase@?$_Tree@V?$_Tmap_traits@HV?$vector@VCNetListNode@@V?$allocator@VCNetListNode@@@std@@@std@@U?$less@H@2@V?$allocator@U?$pair@$$CBHV?$vector@VCNetListNode@@V?$allocator@VCNetListNode@@@std@@@std@@@std@@@2@$0A@@std@@@std@@QAE?AViterator@12@Vconst_iterator@12@@Z 00454c50 f i NetList.obj
 0001:00053f30       ?insert@?$_Tree@V?$_Tmap_traits@HV?$vector@VCNetListNode@@V?$allocator@VCNetListNode@@@std@@@std@@U?$less@H@2@V?$allocator@U?$pair@$$CBHV?$vector@VCNetListNode@@V?$allocator@VCNetListNode@@@std@@@std@@@std@@@2@$0A@@std@@@std@@QAE?AViterator@12@Vconst_iterator@12@ABU?$pair@$$CBHV?$vector@VCNetListNode@@V?$allocator@VCNetListNode@@@std@@@std@@@2@@Z 00454f30 f i NetList.obj
 0001:00054100       ?_Destroy@?$vector@V?$map@HHU?$less@H@std@@V?$allocator@U?$pair@$$CBHH@std@@@2@@std@@V?$allocator@V?$map@HHU?$less@H@std@@V?$allocator@U?$pair@$$CBHH@std@@@2@@std@@@2@@std@@IAEXPAV?$map@HHU?$less@H@std@@V?$allocator@U?$pair@$$CBHH@std@@@2@@2@0@Z 00455100 f i NetList.obj
 0001:00054130       ?_Insert@?$_Tree@V?$_Tmap_traits@V?$CStringT@_WV?$StrTraitMFC@_WV?$ChTraitsCRT@_W@ATL@@@@@ATL@@VCNetListSymbol@@U?$less@V?$CStringT@_WV?$StrTraitMFC@_WV?$ChTraitsCRT@_W@ATL@@@@@ATL@@@std@@V?$allocator@U?$pair@$$CBV?$CStringT@_WV?$StrTraitMFC@_WV?$ChTraitsCRT@_W@ATL@@@@@ATL@@VCNetListSymbol@@@std@@@5@$0A@@std@@@std@@IAE?AViterator@12@_NPAU_Node@?$_Tree_nod@V?$_Tmap_traits@V?$CStringT@_WV?$StrTraitMFC@_WV?$ChTraitsCRT@_W@ATL@@@@@ATL@@VCNetListSymbol@@U?$less@V?$CStringT@_WV?$StrTraitMFC@_WV?$ChTraitsCRT@_W@ATL@@@@@ATL@@@std@@V?$allocator@U?$pair@$$CBV?$CStringT@_WV?$StrTraitMFC@_WV?$ChTraitsCRT@_W@ATL@@@@@ATL@@VCNetListSymbol@@@std@@@5@$0A@@std@@@2@ABU?$pair@$$CBV?$CStringT@_WV?$StrTraitMFC@_WV?$ChTraitsCRT@_W@ATL@@@@@ATL@@VCNetListSymbol@@@2@@Z 00455130 f i NetList.obj
 0001:00054330       ?_Ufill@?$vector@V?$map@HHU?$less@H@std@@V?$allocator@U?$pair@$$CBHH@std@@@2@@std@@V?$allocator@V?$map@HHU?$less@H@std@@V?$allocator@U?$pair@$$CBHH@std@@@2@@std@@@2@@std@@IAEPAV?$map@HHU?$less@H@std@@V?$allocator@U?$pair@$$CBHH@std@@@2@@2@PAV32@IABV32@@Z 00455330 f i NetList.obj
 0001:00054370       ?_Copy@?$_Tree@V?$_Tmap_traits@HV?$vector@VCNetListNode@@V?$allocator@VCNetListNode@@@std@@@std@@U?$less@H@2@V?$allocator@U?$pair@$$CBHV?$vector@VCNetListNode@@V?$allocator@VCNetListNode@@@std@@@std@@@std@@@2@$0A@@std@@@std@@IAEXABV12@@Z 00455370 f i NetList.obj
 0001:000543f0       ??$_Uninit_fill_n@PAV?$set@V?$CStringT@_WV?$StrTraitMFC@_WV?$ChTraitsCRT@_W@ATL@@@@@ATL@@U?$less@V?$CStringT@_WV?$StrTraitMFC@_WV?$ChTraitsCRT@_W@ATL@@@@@ATL@@@std@@V?$allocator@V?$CStringT@_WV?$StrTraitMFC@_WV?$ChTraitsCRT@_W@ATL@@@@@ATL@@@4@@std@@IV12@V?$allocator@V?$set@V?$CStringT@_WV?$StrTraitMFC@_WV?$ChTraitsCRT@_W@ATL@@@@@ATL@@U?$less@V?$CStringT@_WV?$StrTraitMFC@_WV?$ChTraitsCRT@_W@ATL@@@@@ATL@@@std@@V?$allocator@V?$CStringT@_WV?$StrTraitMFC@_WV?$ChTraitsCRT@_W@ATL@@@@@ATL@@@4@@std@@@2@@std@@YAXPAV?$set@V?$CStringT@_WV?$StrTraitMFC@_WV?$ChTraitsCRT@_W@ATL@@@@@ATL@@U?$less@V?$CStringT@_WV?$StrTraitMFC@_WV?$ChTraitsCRT@_W@ATL@@@@@ATL@@@std@@V?$allocator@V?$CStringT@_WV?$StrTraitMFC@_WV?$ChTraitsCRT@_W@ATL@@@@@ATL@@@4@@0@IABV10@AAV?$allocator@V?$set@V?$CStringT@_WV?$StrTraitMFC@_WV?$ChTraitsCRT@_W@ATL@@@@@ATL@@U?$less@V?$CStringT@_WV?$StrTraitMFC@_WV?$ChTraitsCRT@_W@ATL@@@@@ATL@@@std@@V?$allocator@V?$CStringT@_WV?$StrTraitMFC@_WV?$ChTraitsCRT@_W@ATL@@@@@ATL@@@4@@std@@@0@U_Nonscalar_ptr_iterator_tag@0@U_Range_checked_iterator_tag@0@@Z 004553f0 f i NetList.obj
 0001:00054490       ??A?$map@HV?$vector@VCNetListNode@@V?$allocator@VCNetListNode@@@std@@@std@@U?$less@H@2@V?$allocator@U?$pair@$$CBHV?$vector@VCNetListNode@@V?$allocator@VCNetListNode@@@std@@@std@@@std@@@2@@std@@QAEAAV?$vector@VCNetListNode@@V?$allocator@VCNetListNode@@@std@@@1@ABH@Z 00455490 f i NetList.obj
 0001:000545a0       ?erase@?$_Tree@V?$_Tmap_traits@HV?$vector@VCNetListNode@@V?$allocator@VCNetListNode@@@std@@@std@@U?$less@H@2@V?$allocator@U?$pair@$$CBHV?$vector@VCNetListNode@@V?$allocator@VCNetListNode@@@std@@@std@@@std@@@2@$0A@@std@@@std@@QAE?AViterator@12@Vconst_iterator@12@0@Z 004555a0 f i NetList.obj
 0001:00054680       ?_Tidy@?$_Tree@V?$_Tmap_traits@HV?$vector@VCNetListNode@@V?$allocator@VCNetListNode@@@std@@@std@@U?$less@H@2@V?$allocator@U?$pair@$$CBHV?$vector@VCNetListNode@@V?$allocator@VCNetListNode@@@std@@@std@@@std@@@2@$0A@@std@@@std@@IAEXXZ 00455680 f i NetList.obj
 0001:000546c0       ?_Tidy@?$vector@V?$map@HHU?$less@H@std@@V?$allocator@U?$pair@$$CBHH@std@@@2@@std@@V?$allocator@V?$map@HHU?$less@H@std@@V?$allocator@U?$pair@$$CBHH@std@@@2@@std@@@2@@std@@IAEXXZ 004556c0 f i NetList.obj
 0001:00054710       ?erase@?$vector@V?$map@HHU?$less@H@std@@V?$allocator@U?$pair@$$CBHH@std@@@2@@std@@V?$allocator@V?$map@HHU?$less@H@std@@V?$allocator@U?$pair@$$CBHH@std@@@2@@std@@@2@@std@@QAE?AV?$_Vector_iterator@V?$map@HHU?$less@H@std@@V?$allocator@U?$pair@$$CBHH@std@@@2@@std@@V?$allocator@V?$map@HHU?$less@H@std@@V?$allocator@U?$pair@$$CBHH@std@@@2@@std@@@2@@2@V?$_Vector_const_iterator@V?$map@HHU?$less@H@std@@V?$allocator@U?$pair@$$CBHH@std@@@2@@std@@V?$allocator@V?$map@HHU?$less@H@std@@V?$allocator@U?$pair@$$CBHH@std@@@2@@std@@@2@@2@0@Z 00455710 f i NetList.obj
 0001:000547c0       ?_Insert_n@?$vector@V?$map@HHU?$less@H@std@@V?$allocator@U?$pair@$$CBHH@std@@@2@@std@@V?$allocator@V?$map@HHU?$less@H@std@@V?$allocator@U?$pair@$$CBHH@std@@@2@@std@@@2@@std@@IAEXV?$_Vector_const_iterator@V?$map@HHU?$less@H@std@@V?$allocator@U?$pair@$$CBHH@std@@@2@@std@@V?$allocator@V?$map@HHU?$less@H@std@@V?$allocator@U?$pair@$$CBHH@std@@@2@@std@@@2@@2@IABV?$map@HHU?$less@H@std@@V?$allocator@U?$pair@$$CBHH@std@@@2@@2@@Z 004557c0 f i NetList.obj
 0001:00054a50       ?insert@?$_Tree@V?$_Tmap_traits@V?$CStringT@_WV?$StrTraitMFC@_WV?$ChTraitsCRT@_W@ATL@@@@@ATL@@VCNetListSymbol@@U?$less@V?$CStringT@_WV?$StrTraitMFC@_WV?$ChTraitsCRT@_W@ATL@@@@@ATL@@@std@@V?$allocator@U?$pair@$$CBV?$CStringT@_WV?$StrTraitMFC@_WV?$ChTraitsCRT@_W@ATL@@@@@ATL@@VCNetListSymbol@@@std@@@5@$0A@@std@@@std@@QAE?AU?$pair@Viterator@?$_Tree@V?$_Tmap_traits@V?$CStringT@_WV?$StrTraitMFC@_WV?$ChTraitsCRT@_W@ATL@@@@@ATL@@VCNetListSymbol@@U?$less@V?$CStringT@_WV?$StrTraitMFC@_WV?$ChTraitsCRT@_W@ATL@@@@@ATL@@@std@@V?$allocator@U?$pair@$$CBV?$CStringT@_WV?$StrTraitMFC@_WV?$ChTraitsCRT@_W@ATL@@@@@ATL@@VCNetListSymbol@@@std@@@5@$0A@@std@@@std@@_N@2@ABU?$pair@$$CBV?$CStringT@_WV?$StrTraitMFC@_WV?$ChTraitsCRT@_W@ATL@@@@@ATL@@VCNetListSymbol@@@2@@Z 00455a50 f i NetList.obj
 0001:00054ba0       ??0?$_Tree@V?$_Tmap_traits@HV?$vector@VCNetListNode@@V?$allocator@VCNetListNode@@@std@@@std@@U?$less@H@2@V?$allocator@U?$pair@$$CBHV?$vector@VCNetListNode@@V?$allocator@VCNetListNode@@@std@@@std@@@std@@@2@$0A@@std@@@std@@QAE@ABV01@@Z 00455ba0 f i NetList.obj
 0001:00054c50       ?erase@?$_Tree@V?$_Tmap_traits@V?$CStringT@_WV?$StrTraitMFC@_WV?$ChTraitsCRT@_W@ATL@@@@@ATL@@VCNetListSymbol@@U?$less@V?$CStringT@_WV?$StrTraitMFC@_WV?$ChTraitsCRT@_W@ATL@@@@@ATL@@@std@@V?$allocator@U?$pair@$$CBV?$CStringT@_WV?$StrTraitMFC@_WV?$ChTraitsCRT@_W@ATL@@@@@ATL@@VCNetListSymbol@@@std@@@5@$0A@@std@@@std@@QAE?AViterator@12@Vconst_iterator@12@@Z 00455c50 f i NetList.obj
 0001:00054f30       ?_Erase@?$_Tree@V?$_Tmap_traits@V?$CStringT@_WV?$StrTraitMFC@_WV?$ChTraitsCRT@_W@ATL@@@@@ATL@@VCNetListSymbol@@U?$less@V?$CStringT@_WV?$StrTraitMFC@_WV?$ChTraitsCRT@_W@ATL@@@@@ATL@@@std@@V?$allocator@U?$pair@$$CBV?$CStringT@_WV?$StrTraitMFC@_WV?$ChTraitsCRT@_W@ATL@@@@@ATL@@VCNetListSymbol@@@std@@@5@$0A@@std@@@std@@IAEXPAU_Node@?$_Tree_nod@V?$_Tmap_traits@V?$CStringT@_WV?$StrTraitMFC@_WV?$ChTraitsCRT@_W@ATL@@@@@ATL@@VCNetListSymbol@@U?$less@V?$CStringT@_WV?$StrTraitMFC@_WV?$ChTraitsCRT@_W@ATL@@@@@ATL@@@std@@V?$allocator@U?$pair@$$CBV?$CStringT@_WV?$StrTraitMFC@_WV?$ChTraitsCRT@_W@ATL@@@@@ATL@@VCNetListSymbol@@@std@@@5@$0A@@std@@@2@@Z 00455f30 f i NetList.obj
 0001:00054f70       ??$_Umove@PAV?$set@V?$CStringT@_WV?$StrTraitMFC@_WV?$ChTraitsCRT@_W@ATL@@@@@ATL@@U?$less@V?$CStringT@_WV?$StrTraitMFC@_WV?$ChTraitsCRT@_W@ATL@@@@@ATL@@@std@@V?$allocator@V?$CStringT@_WV?$StrTraitMFC@_WV?$ChTraitsCRT@_W@ATL@@@@@ATL@@@4@@std@@@?$vector@V?$set@V?$CStringT@_WV?$StrTraitMFC@_WV?$ChTraitsCRT@_W@ATL@@@@@ATL@@U?$less@V?$CStringT@_WV?$StrTraitMFC@_WV?$ChTraitsCRT@_W@ATL@@@@@ATL@@@std@@V?$allocator@V?$CStringT@_WV?$StrTraitMFC@_WV?$ChTraitsCRT@_W@ATL@@@@@ATL@@@4@@std@@V?$allocator@V?$set@V?$CStringT@_WV?$StrTraitMFC@_WV?$ChTraitsCRT@_W@ATL@@@@@ATL@@U?$less@V?$CStringT@_WV?$StrTraitMFC@_WV?$ChTraitsCRT@_W@ATL@@@@@ATL@@@std@@V?$allocator@V?$CStringT@_WV?$StrTraitMFC@_WV?$ChTraitsCRT@_W@ATL@@@@@ATL@@@4@@std@@@2@@std@@IAEPAV?$set@V?$CStringT@_WV?$StrTraitMFC@_WV?$ChTraitsCRT@_W@ATL@@@@@ATL@@U?$less@V?$CStringT@_WV?$StrTraitMFC@_WV?$ChTraitsCRT@_W@ATL@@@@@ATL@@@std@@V?$allocator@V?$CStringT@_WV?$StrTraitMFC@_WV?$ChTraitsCRT@_W@ATL@@@@@ATL@@@4@@1@PAV21@00@Z 00455f70 f i NetList.obj
 0001:00054fa0       ?Add@CNetList@@IAEHAAVCNetListNode@@@Z 00455fa0 f   NetList.obj
 0001:000551d0       ?MakeNetForSheet@CNetList@@IAEXAAV?$vector@PAVCImportFile@@V?$allocator@PAVCImportFile@@@std@@@std@@HAAHHPAVCTinyCadDoc@@@Z 004561d0 f   NetList.obj
 0001:00056a00       ?get_pin@CNetList@@IAE_NAAVCNetListSymbol@@AAV?$map@HV?$CStringT@_WV?$StrTraitMFC@_WV?$ChTraitsCRT@_W@ATL@@@@@ATL@@U?$less@H@std@@V?$allocator@U?$pair@$$CBHV?$CStringT@_WV?$StrTraitMFC@_WV?$ChTraitsCRT@_W@ATL@@@@@ATL@@@std@@@4@@std@@V?$CStringT@_WV?$StrTraitMFC@_WV?$ChTraitsCRT@_W@ATL@@@@@ATL@@AAHAAV56@3@Z 00457a00 f   NetList.obj
 0001:00056d40       ??1?$_Tree@V?$_Tmap_traits@HV?$vector@VCNetListNode@@V?$allocator@VCNetListNode@@@std@@@std@@U?$less@H@2@V?$allocator@U?$pair@$$CBHV?$vector@VCNetListNode@@V?$allocator@VCNetListNode@@@std@@@std@@@std@@@2@$0A@@std@@@std@@QAE@XZ 00457d40 f i NetList.obj
 0001:00056dc0       ??1?$vector@V?$map@HHU?$less@H@std@@V?$allocator@U?$pair@$$CBHH@std@@@2@@std@@V?$allocator@V?$map@HHU?$less@H@std@@V?$allocator@U?$pair@$$CBHH@std@@@2@@std@@@2@@std@@QAE@XZ 00457dc0 f i NetList.obj
 0001:00056e20       ?resize@?$vector@V?$map@HHU?$less@H@std@@V?$allocator@U?$pair@$$CBHH@std@@@2@@std@@V?$allocator@V?$map@HHU?$less@H@std@@V?$allocator@U?$pair@$$CBHH@std@@@2@@std@@@2@@std@@QAEXIV?$map@HHU?$less@H@std@@V?$allocator@U?$pair@$$CBHH@std@@@2@@2@@Z 00457e20 f i NetList.obj
 0001:00056f10       ?insert@?$_Tree@V?$_Tmap_traits@V?$CStringT@_WV?$StrTraitMFC@_WV?$ChTraitsCRT@_W@ATL@@@@@ATL@@VCNetListSymbol@@U?$less@V?$CStringT@_WV?$StrTraitMFC@_WV?$ChTraitsCRT@_W@ATL@@@@@ATL@@@std@@V?$allocator@U?$pair@$$CBV?$CStringT@_WV?$StrTraitMFC@_WV?$ChTraitsCRT@_W@ATL@@@@@ATL@@VCNetListSymbol@@@std@@@5@$0A@@std@@@std@@QAE?AViterator@12@Vconst_iterator@12@ABU?$pair@$$CBV?$CStringT@_WV?$StrTraitMFC@_WV?$ChTraitsCRT@_W@ATL@@@@@ATL@@VCNetListSymbol@@@2@@Z 00457f10 f i NetList.obj
 0001:00057140       ?_Destroy@?$vector@V?$set@V?$CStringT@_WV?$StrTraitMFC@_WV?$ChTraitsCRT@_W@ATL@@@@@ATL@@U?$less@V?$CStringT@_WV?$StrTraitMFC@_WV?$ChTraitsCRT@_W@ATL@@@@@ATL@@@std@@V?$allocator@V?$CStringT@_WV?$StrTraitMFC@_WV?$ChTraitsCRT@_W@ATL@@@@@ATL@@@4@@std@@V?$allocator@V?$set@V?$CStringT@_WV?$StrTraitMFC@_WV?$ChTraitsCRT@_W@ATL@@@@@ATL@@U?$less@V?$CStringT@_WV?$StrTraitMFC@_WV?$ChTraitsCRT@_W@ATL@@@@@ATL@@@std@@V?$allocator@V?$CStringT@_WV?$StrTraitMFC@_WV?$ChTraitsCRT@_W@ATL@@@@@ATL@@@4@@std@@@2@@std@@IAEXPAV?$set@V?$CStringT@_WV?$StrTraitMFC@_WV?$ChTraitsCRT@_W@ATL@@@@@ATL@@U?$less@V?$CStringT@_WV?$StrTraitMFC@_WV?$ChTraitsCRT@_W@ATL@@@@@ATL@@@std@@V?$allocator@V?$CStringT@_WV?$StrTraitMFC@_WV?$ChTraitsCRT@_W@ATL@@@@@ATL@@@4@@2@0@Z 00458140 f i NetList.obj
 0001:00057170       ?_Ufill@?$vector@V?$set@V?$CStringT@_WV?$StrTraitMFC@_WV?$ChTraitsCRT@_W@ATL@@@@@ATL@@U?$less@V?$CStringT@_WV?$StrTraitMFC@_WV?$ChTraitsCRT@_W@ATL@@@@@ATL@@@std@@V?$allocator@V?$CStringT@_WV?$StrTraitMFC@_WV?$ChTraitsCRT@_W@ATL@@@@@ATL@@@4@@std@@V?$allocator@V?$set@V?$CStringT@_WV?$StrTraitMFC@_WV?$ChTraitsCRT@_W@ATL@@@@@ATL@@U?$less@V?$CStringT@_WV?$StrTraitMFC@_WV?$ChTraitsCRT@_W@ATL@@@@@ATL@@@std@@V?$allocator@V?$CStringT@_WV?$StrTraitMFC@_WV?$ChTraitsCRT@_W@ATL@@@@@ATL@@@4@@std@@@2@@std@@IAEPAV?$set@V?$CStringT@_WV?$StrTraitMFC@_WV?$ChTraitsCRT@_W@ATL@@@@@ATL@@U?$less@V?$CStringT@_WV?$StrTraitMFC@_WV?$ChTraitsCRT@_W@ATL@@@@@ATL@@@std@@V?$allocator@V?$CStringT@_WV?$StrTraitMFC@_WV?$ChTraitsCRT@_W@ATL@@@@@ATL@@@4@@2@PAV32@IABV32@@Z 00458170 f i NetList.obj
 0001:000571b0       ??1?$map@HV?$vector@VCNetListNode@@V?$allocator@VCNetListNode@@@std@@@std@@U?$less@H@2@V?$allocator@U?$pair@$$CBHV?$vector@VCNetListNode@@V?$allocator@VCNetListNode@@@std@@@std@@@std@@@2@@std@@QAE@XZ 004581b0 f i NetList.obj
 0001:000571c0       ??1CNetList@@UAE@XZ        004581c0 f   NetList.obj
 0001:00057280       ?eval_spice_macro@CNetList@@IAE_NHHAAVCNetListSymbol@@AAV?$map@HV?$CStringT@_WV?$StrTraitMFC@_WV?$ChTraitsCRT@_W@ATL@@@@@ATL@@U?$less@H@std@@V?$allocator@U?$pair@$$CBHV?$CStringT@_WV?$StrTraitMFC@_WV?$ChTraitsCRT@_W@ATL@@@@@ATL@@@std@@@4@@std@@AAV?$CStringT@_WV?$StrTraitMFC@_WV?$ChTraitsCRT@_W@ATL@@@@@ATL@@V56@@Z 00458280 f   NetList.obj
 0001:000579d0       ??A?$map@V?$CStringT@_WV?$StrTraitMFC@_WV?$ChTraitsCRT@_W@ATL@@@@@ATL@@VCNetListSymbol@@U?$less@V?$CStringT@_WV?$StrTraitMFC@_WV?$ChTraitsCRT@_W@ATL@@@@@ATL@@@std@@V?$allocator@U?$pair@$$CBV?$CStringT@_WV?$StrTraitMFC@_WV?$ChTraitsCRT@_W@ATL@@@@@ATL@@VCNetListSymbol@@@std@@@5@@std@@QAEAAVCNetListSymbol@@ABV?$CStringT@_WV?$StrTraitMFC@_WV?$ChTraitsCRT@_W@ATL@@@@@ATL@@@Z 004589d0 f i NetList.obj
 0001:00057b00       ?_Tidy@?$vector@V?$set@V?$CStringT@_WV?$StrTraitMFC@_WV?$ChTraitsCRT@_W@ATL@@@@@ATL@@U?$less@V?$CStringT@_WV?$StrTraitMFC@_WV?$ChTraitsCRT@_W@ATL@@@@@ATL@@@std@@V?$allocator@V?$CStringT@_WV?$StrTraitMFC@_WV?$ChTraitsCRT@_W@ATL@@@@@ATL@@@4@@std@@V?$allocator@V?$set@V?$CStringT@_WV?$StrTraitMFC@_WV?$ChTraitsCRT@_W@ATL@@@@@ATL@@U?$less@V?$CStringT@_WV?$StrTraitMFC@_WV?$ChTraitsCRT@_W@ATL@@@@@ATL@@@std@@V?$allocator@V?$CStringT@_WV?$StrTraitMFC@_WV?$ChTraitsCRT@_W@ATL@@@@@ATL@@@4@@std@@@2@@std@@IAEXXZ 00458b00 f i NetList.obj
 0001:00057b50       ?erase@?$_Tree@V?$_Tmap_traits@V?$CStringT@_WV?$StrTraitMFC@_WV?$ChTraitsCRT@_W@ATL@@@@@ATL@@VCNetListSymbol@@U?$less@V?$CStringT@_WV?$StrTraitMFC@_WV?$ChTraitsCRT@_W@ATL@@@@@ATL@@@std@@V?$allocator@U?$pair@$$CBV?$CStringT@_WV?$StrTraitMFC@_WV?$ChTraitsCRT@_W@ATL@@@@@ATL@@VCNetListSymbol@@@std@@@5@$0A@@std@@@std@@QAE?AViterator@12@Vconst_iterator@12@0@Z 00458b50 f i NetList.obj
 0001:00057c30       ?erase@?$vector@V?$set@V?$CStringT@_WV?$StrTraitMFC@_WV?$ChTraitsCRT@_W@ATL@@@@@ATL@@U?$less@V?$CStringT@_WV?$StrTraitMFC@_WV?$ChTraitsCRT@_W@ATL@@@@@ATL@@@std@@V?$allocator@V?$CStringT@_WV?$StrTraitMFC@_WV?$ChTraitsCRT@_W@ATL@@@@@ATL@@@4@@std@@V?$allocator@V?$set@V?$CStringT@_WV?$StrTraitMFC@_WV?$ChTraitsCRT@_W@ATL@@@@@ATL@@U?$less@V?$CStringT@_WV?$StrTraitMFC@_WV?$ChTraitsCRT@_W@ATL@@@@@ATL@@@std@@V?$allocator@V?$CStringT@_WV?$StrTraitMFC@_WV?$ChTraitsCRT@_W@ATL@@@@@ATL@@@4@@std@@@2@@std@@QAE?AV?$_Vector_iterator@V?$set@V?$CStringT@_WV?$StrTraitMFC@_WV?$ChTraitsCRT@_W@ATL@@@@@ATL@@U?$less@V?$CStringT@_WV?$StrTraitMFC@_WV?$ChTraitsCRT@_W@ATL@@@@@ATL@@@std@@V?$allocator@V?$CStringT@_WV?$StrTraitMFC@_WV?$ChTraitsCRT@_W@ATL@@@@@ATL@@@4@@std@@V?$allocator@V?$set@V?$CStringT@_WV?$StrTraitMFC@_WV?$ChTraitsCRT@_W@ATL@@@@@ATL@@U?$less@V?$CStringT@_WV?$StrTraitMFC@_WV?$ChTraitsCRT@_W@ATL@@@@@ATL@@@std@@V?$allocator@V?$CStringT@_WV?$StrTraitMFC@_WV?$ChTraitsCRT@_W@ATL@@@@@ATL@@@4@@std@@@2@@2@V?$_Vector_const_iterator@V?$set@V?$CStringT@_WV?$StrTraitMFC@_WV?$ChTraitsCRT@_W@ATL@@@@@ATL@@U?$less@V?$CStringT@_WV?$StrTraitMFC@_WV?$ChTraitsCRT@_W@ATL@@@@@ATL@@@std@@V?$allocator@V?$CStringT@_WV?$StrTraitMFC@_WV?$ChTraitsCRT@_W@ATL@@@@@ATL@@@4@@std@@V?$allocator@V?$set@V?$CStringT@_WV?$StrTraitMFC@_WV?$ChTraitsCRT@_W@ATL@@@@@ATL@@U?$less@V?$CStringT@_WV?$StrTraitMFC@_WV?$ChTraitsCRT@_W@ATL@@@@@ATL@@@std@@V?$allocator@V?$CStringT@_WV?$StrTraitMFC@_WV?$ChTraitsCRT@_W@ATL@@@@@ATL@@@4@@std@@@2@@2@0@Z 00458c30 f i NetList.obj
 0001:00057ce0       ?_Insert_n@?$vector@V?$set@V?$CStringT@_WV?$StrTraitMFC@_WV?$ChTraitsCRT@_W@ATL@@@@@ATL@@U?$less@V?$CStringT@_WV?$StrTraitMFC@_WV?$ChTraitsCRT@_W@ATL@@@@@ATL@@@std@@V?$allocator@V?$CStringT@_WV?$StrTraitMFC@_WV?$ChTraitsCRT@_W@ATL@@@@@ATL@@@4@@std@@V?$allocator@V?$set@V?$CStringT@_WV?$StrTraitMFC@_WV?$ChTraitsCRT@_W@ATL@@@@@ATL@@U?$less@V?$CStringT@_WV?$StrTraitMFC@_WV?$ChTraitsCRT@_W@ATL@@@@@ATL@@@std@@V?$allocator@V?$CStringT@_WV?$StrTraitMFC@_WV?$ChTraitsCRT@_W@ATL@@@@@ATL@@@4@@std@@@2@@std@@IAEXV?$_Vector_const_iterator@V?$set@V?$CStringT@_WV?$StrTraitMFC@_WV?$ChTraitsCRT@_W@ATL@@@@@ATL@@U?$less@V?$CStringT@_WV?$StrTraitMFC@_WV?$ChTraitsCRT@_W@ATL@@@@@ATL@@@std@@V?$allocator@V?$CStringT@_WV?$StrTraitMFC@_WV?$ChTraitsCRT@_W@ATL@@@@@ATL@@@4@@std@@V?$allocator@V?$set@V?$CStringT@_WV?$StrTraitMFC@_WV?$ChTraitsCRT@_W@ATL@@@@@ATL@@U?$less@V?$CStringT@_WV?$StrTraitMFC@_WV?$ChTraitsCRT@_W@ATL@@@@@ATL@@@std@@V?$allocator@V?$CStringT@_WV?$StrTraitMFC@_WV?$ChTraitsCRT@_W@ATL@@@@@ATL@@@4@@std@@@2@@2@IABV?$set@V?$CStringT@_WV?$StrTraitMFC@_WV?$ChTraitsCRT@_W@ATL@@@@@ATL@@U?$less@V?$CStringT@_WV?$StrTraitMFC@_WV?$ChTraitsCRT@_W@ATL@@@@@ATL@@@std@@V?$allocator@V?$CStringT@_WV?$StrTraitMFC@_WV?$ChTraitsCRT@_W@ATL@@@@@ATL@@@4@@2@@Z 00458ce0 f i NetList.obj
 0001:00057f70       ??0CNetList@@QAE@ABV0@@Z   00458f70 f i NetList.obj
 0001:00058030       ??4CNetList@@QAEAAV0@ABV0@@Z 00459030 f i NetList.obj
 0001:000580e0       ??0CNetList@@QAE@XZ        004590e0 f   NetList.obj
 0001:000581b0       ??_GCNetList@@UAEPAXI@Z    004591b0 f i NetList.obj
 0001:000581b0       ??_ECNetList@@UAEPAXI@Z    004591b0 f i NetList.obj
 0001:000581d0       ?Link@CNetList@@QAEXAAV?$vector@VCNetList@@V?$allocator@VCNetList@@@std@@@std@@@Z 004591d0 f   NetList.obj
 0001:00058b30       ?expand_spice@CNetList@@IAE?AV?$CStringT@_WV?$StrTraitMFC@_WV?$ChTraitsCRT@_W@ATL@@@@@ATL@@HHAAVCNetListSymbol@@AAV?$map@HV?$CStringT@_WV?$StrTraitMFC@_WV?$ChTraitsCRT@_W@ATL@@@@@ATL@@U?$less@H@std@@V?$allocator@U?$pair@$$CBHV?$CStringT@_WV?$StrTraitMFC@_WV?$ChTraitsCRT@_W@ATL@@@@@ATL@@@std@@@4@@std@@V23@@Z 00459b30 f   NetList.obj
 0001:00059380       ??1?$vector@V?$set@V?$CStringT@_WV?$StrTraitMFC@_WV?$ChTraitsCRT@_W@ATL@@@@@ATL@@U?$less@V?$CStringT@_WV?$StrTraitMFC@_WV?$ChTraitsCRT@_W@ATL@@@@@ATL@@@std@@V?$allocator@V?$CStringT@_WV?$StrTraitMFC@_WV?$ChTraitsCRT@_W@ATL@@@@@ATL@@@4@@std@@V?$allocator@V?$set@V?$CStringT@_WV?$StrTraitMFC@_WV?$ChTraitsCRT@_W@ATL@@@@@ATL@@U?$less@V?$CStringT@_WV?$StrTraitMFC@_WV?$ChTraitsCRT@_W@ATL@@@@@ATL@@@std@@V?$allocator@V?$CStringT@_WV?$StrTraitMFC@_WV?$ChTraitsCRT@_W@ATL@@@@@ATL@@@4@@std@@@2@@std@@QAE@XZ 0045a380 f i NetList.obj
 0001:000593e0       ?resize@?$vector@V?$set@V?$CStringT@_WV?$StrTraitMFC@_WV?$ChTraitsCRT@_W@ATL@@@@@ATL@@U?$less@V?$CStringT@_WV?$StrTraitMFC@_WV?$ChTraitsCRT@_W@ATL@@@@@ATL@@@std@@V?$allocator@V?$CStringT@_WV?$StrTraitMFC@_WV?$ChTraitsCRT@_W@ATL@@@@@ATL@@@4@@std@@V?$allocator@V?$set@V?$CStringT@_WV?$StrTraitMFC@_WV?$ChTraitsCRT@_W@ATL@@@@@ATL@@U?$less@V?$CStringT@_WV?$StrTraitMFC@_WV?$ChTraitsCRT@_W@ATL@@@@@ATL@@@std@@V?$allocator@V?$CStringT@_WV?$StrTraitMFC@_WV?$ChTraitsCRT@_W@ATL@@@@@ATL@@@4@@std@@@2@@std@@QAEXIV?$set@V?$CStringT@_WV?$StrTraitMFC@_WV?$ChTraitsCRT@_W@ATL@@@@@ATL@@U?$less@V?$CStringT@_WV?$StrTraitMFC@_WV?$ChTraitsCRT@_W@ATL@@@@@ATL@@@std@@V?$allocator@V?$CStringT@_WV?$StrTraitMFC@_WV?$ChTraitsCRT@_W@ATL@@@@@ATL@@@4@@2@@Z 0045a3e0 f i NetList.obj
 0001:000594d0       ??$_Copy_opt@PAVCNetList@@PAV1@@std@@YAPAVCNetList@@PAV1@00Urandom_access_iterator_tag@0@U_Nonscalar_ptr_iterator_tag@0@U_Range_checked_iterator_tag@0@@Z 0045a4d0 f i NetList.obj
 0001:00059520       ??$_Copy_backward_opt@PAVCNetList@@PAV1@@std@@YAPAVCNetList@@PAV1@00Urandom_access_iterator_tag@0@U_Nonscalar_ptr_iterator_tag@0@U_Range_checked_iterator_tag@0@@Z 0045a520 f i NetList.obj
 0001:00059580       ??$_Uninit_copy@PAVCNetList@@PAV1@V?$allocator@VCNetList@@@std@@@std@@YAPAVCNetList@@PAV1@00AAV?$allocator@VCNetList@@@0@U_Nonscalar_ptr_iterator_tag@0@U_Range_checked_iterator_tag@0@@Z 0045a580 f i NetList.obj
 0001:00059630       ??1?$_Tree@V?$_Tmap_traits@V?$CStringT@_WV?$StrTraitMFC@_WV?$ChTraitsCRT@_W@ATL@@@@@ATL@@VCNetListSymbol@@U?$less@V?$CStringT@_WV?$StrTraitMFC@_WV?$ChTraitsCRT@_W@ATL@@@@@ATL@@@std@@V?$allocator@U?$pair@$$CBV?$CStringT@_WV?$StrTraitMFC@_WV?$ChTraitsCRT@_W@ATL@@@@@ATL@@VCNetListSymbol@@@std@@@5@$0A@@std@@@std@@QAE@XZ 0045a630 f i NetList.obj
 0001:000596b0       ??$fill@PAVCNetList@@V1@@std@@YAXPAVCNetList@@0ABV1@@Z 0045a6b0 f i NetList.obj
 0001:000596e0       ??$_Uninit_fill_n@PAVCNetList@@IV1@V?$allocator@VCNetList@@@std@@@std@@YAXPAVCNetList@@IABV1@AAV?$allocator@VCNetList@@@0@U_Nonscalar_ptr_iterator_tag@0@U_Range_checked_iterator_tag@0@@Z 0045a6e0 f i NetList.obj
 0001:00059780       ??1?$map@V?$CStringT@_WV?$StrTraitMFC@_WV?$ChTraitsCRT@_W@ATL@@@@@ATL@@VCNetListSymbol@@U?$less@V?$CStringT@_WV?$StrTraitMFC@_WV?$ChTraitsCRT@_W@ATL@@@@@ATL@@@std@@V?$allocator@U?$pair@$$CBV?$CStringT@_WV?$StrTraitMFC@_WV?$ChTraitsCRT@_W@ATL@@@@@ATL@@VCNetListSymbol@@@std@@@5@@std@@QAE@XZ 0045a780 f i NetList.obj
 0001:00059790       ?erase@?$vector@VCNetList@@V?$allocator@VCNetList@@@std@@@std@@QAE?AV?$_Vector_iterator@VCNetList@@V?$allocator@VCNetList@@@std@@@2@V?$_Vector_const_iterator@VCNetList@@V?$allocator@VCNetList@@@std@@@2@0@Z 0045a790 f i NetList.obj
 0001:00059850       ??$_Unchecked_move_backward@PAVCNetList@@PAV1@@stdext@@YAPAVCNetList@@PAV1@00@Z 0045a850 f i NetList.obj
 0001:00059880       ?_Ufill@?$vector@VCNetList@@V?$allocator@VCNetList@@@std@@@std@@IAEPAVCNetList@@PAV3@IABV3@@Z 0045a880 f i NetList.obj
 0001:000598c0       ??$_Umove@PAVCNetList@@@?$vector@VCNetList@@V?$allocator@VCNetList@@@std@@@std@@IAEPAVCNetList@@PAV2@00@Z 0045a8c0 f i NetList.obj
 0001:000598f0       ?_Insert_n@?$vector@VCNetList@@V?$allocator@VCNetList@@@std@@@std@@IAEXV?$_Vector_const_iterator@VCNetList@@V?$allocator@VCNetList@@@std@@@2@IABVCNetList@@@Z 0045a8f0 f i NetList.obj
 0001:00059c10       ?resize@?$vector@VCNetList@@V?$allocator@VCNetList@@@std@@@std@@QAEXIVCNetList@@@Z 0045ac10 f i NetList.obj
 0001:00059d20       ?MakeNet@CNetList@@QAEXPAVCTinyCadMultiDoc@@@Z 0045ad20 f   NetList.obj
 0001:0005a130       ?WriteNetListFileProtel@CNetList@@IAEXPAVCTinyCadMultiDoc@@PB_W@Z 0045b130 f   NetList.obj
 0001:0005ac60       ?WriteNetListFilePADS@CNetList@@IAEXPAVCTinyCadMultiDoc@@PB_W@Z 0045bc60 f   NetList.obj
 0001:0005b820       ?WriteNetListFileTinyCAD@CNetList@@IAEXPAVCTinyCadMultiDoc@@PB_W@Z 0045c820 f   NetList.obj
 0001:0005c350       ?WriteNetListFileEagle@CNetList@@IAEXPAVCTinyCadMultiDoc@@PB_W@Z 0045d350 f   NetList.obj
 0001:0005cd80       ?WriteSpiceFile@CNetList@@QAEXPAVCTinyCadMultiDoc@@PB_W@Z 0045dd80 f   NetList.obj
 0001:0005e040       ?WriteNetListFile@CNetList@@QAEXHPAVCTinyCadMultiDoc@@PB_W@Z 0045f040 f   NetList.obj
 0001:0005e090       ?GetUserColor@COption@@QAEAAVCUserColor@@XZ 0045f090 f   Option.obj
 0001:0005e0a0       ?UnTag@COption@@QAEXXZ     0045f0a0 f   Option.obj
 0001:0005e0e0       ?ResetMerge@COption@@QAEXXZ 0045f0e0 f   Option.obj
 0001:0005e120       ?AddFont@COption@@QAEFPAUtagLOGFONTW@@F@Z 0045f120 f   Option.obj
 0001:0005e1b0       ?ReadNative@COption@@QAEXAAVCStream@@@Z 0045f1b0 f   Option.obj
 0001:0005e220       ?ChangeFontSize@COption@@QAEFFNN@Z 0045f220 f   Option.obj
 0001:0005e2b0       ?_Buynode@?$_Tree@V?$_Tmap_traits@HKU?$less@H@std@@V?$allocator@U?$pair@$$CBHK@std@@@2@$0A@@std@@@std@@IAEPAU_Node@?$_Tree_nod@V?$_Tmap_traits@HKU?$less@H@std@@V?$allocator@U?$pair@$$CBHK@std@@@2@$0A@@std@@@2@XZ 0045f2b0 f i UserColor.obj
 0001:0005e2b0       ?_Buynode@?$_Tree@V?$_Tmap_traits@W4ObjType@@FU?$less@W4ObjType@@@std@@V?$allocator@U?$pair@$$CBW4ObjType@@F@std@@@3@$0A@@std@@@std@@IAEPAU_Node@?$_Tree_nod@V?$_Tmap_traits@W4ObjType@@FU?$less@W4ObjType@@@std@@V?$allocator@U?$pair@$$CBW4ObjType@@F@std@@@3@$0A@@std@@@2@XZ 0045f2b0 f i Option.obj
 0001:0005e2b0       ?_Buynode@?$_Tree@V?$_Tmap_traits@V?$CStringT@_WV?$StrTraitMFC@_WV?$ChTraitsCRT@_W@ATL@@@@@ATL@@HU?$less@V?$CStringT@_WV?$StrTraitMFC@_WV?$ChTraitsCRT@_W@ATL@@@@@ATL@@@std@@V?$allocator@U?$pair@$$CBV?$CStringT@_WV?$StrTraitMFC@_WV?$ChTraitsCRT@_W@ATL@@@@@ATL@@H@std@@@4@$0A@@std@@@std@@IAEPAU_Node@?$_Tree_nod@V?$_Tmap_traits@V?$CStringT@_WV?$StrTraitMFC@_WV?$ChTraitsCRT@_W@ATL@@@@@ATL@@HU?$less@V?$CStringT@_WV?$StrTraitMFC@_WV?$ChTraitsCRT@_W@ATL@@@@@ATL@@@std@@V?$allocator@U?$pair@$$CBV?$CStringT@_WV?$StrTraitMFC@_WV?$ChTraitsCRT@_W@ATL@@@@@ATL@@H@std@@@4@$0A@@std@@@2@XZ 0045f2b0 f i Library.obj
 0001:0005e2b0       ?_Buynode@?$_Tree@V?$_Tmap_traits@HHU?$less@H@std@@V?$allocator@U?$pair@$$CBHH@std@@@2@$0A@@std@@@std@@IAEPAU_Node@?$_Tree_nod@V?$_Tmap_traits@HHU?$less@H@std@@V?$allocator@U?$pair@$$CBHH@std@@@2@$0A@@std@@@2@XZ 0045f2b0 f i DlgColours.obj
 0001:0005e2b0       ?_Buynode@?$_Tree@V?$_Tmap_traits@V?$CStringT@_WV?$StrTraitMFC@_WV?$ChTraitsCRT@_W@ATL@@@@@ATL@@V12@U?$less@V?$CStringT@_WV?$StrTraitMFC@_WV?$ChTraitsCRT@_W@ATL@@@@@ATL@@@std@@V?$allocator@U?$pair@$$CBV?$CStringT@_WV?$StrTraitMFC@_WV?$ChTraitsCRT@_W@ATL@@@@@ATL@@V12@@std@@@4@$0A@@std@@@std@@IAEPAU_Node@?$_Tree_nod@V?$_Tmap_traits@V?$CStringT@_WV?$StrTraitMFC@_WV?$ChTraitsCRT@_W@ATL@@@@@ATL@@V12@U?$less@V?$CStringT@_WV?$StrTraitMFC@_WV?$ChTraitsCRT@_W@ATL@@@@@ATL@@@std@@V?$allocator@U?$pair@$$CBV?$CStringT@_WV?$StrTraitMFC@_WV?$ChTraitsCRT@_W@ATL@@@@@ATL@@V12@@std@@@4@$0A@@std@@@2@XZ 0045f2b0 f i xml_parse_tag.obj
 0001:0005e2b0       ?_Buynode@?$_Tree@V?$_Tmap_traits@HV?$CStringT@_WV?$StrTraitMFC@_WV?$ChTraitsCRT@_W@ATL@@@@@ATL@@U?$less@H@std@@V?$allocator@U?$pair@$$CBHV?$CStringT@_WV?$StrTraitMFC@_WV?$ChTraitsCRT@_W@ATL@@@@@ATL@@@std@@@4@$0A@@std@@@std@@IAEPAU_Node@?$_Tree_nod@V?$_Tmap_traits@HV?$CStringT@_WV?$StrTraitMFC@_WV?$ChTraitsCRT@_W@ATL@@@@@ATL@@U?$less@H@std@@V?$allocator@U?$pair@$$CBHV?$CStringT@_WV?$StrTraitMFC@_WV?$ChTraitsCRT@_W@ATL@@@@@ATL@@@std@@@4@$0A@@std@@@2@XZ 0045f2b0 f i NetList.obj
 0001:0005e2b0       ?_Buynode@?$_Tree@V?$_Tmap_traits@V?$CStringT@_WV?$StrTraitMFC@_WV?$ChTraitsCRT@_W@ATL@@@@@ATL@@HU?$less@V?$CStringT@_WV?$StrTraitMFC@_WV?$ChTraitsCRT@_W@ATL@@@@@ATL@@@std@@V?$allocator@U?$pair@$$CBV?$CStringT@_WV?$StrTraitMFC@_WV?$ChTraitsCRT@_W@ATL@@@@@ATL@@H@std@@@4@$00@std@@@std@@IAEPAU_Node@?$_Tree_nod@V?$_Tmap_traits@V?$CStringT@_WV?$StrTraitMFC@_WV?$ChTraitsCRT@_W@ATL@@@@@ATL@@HU?$less@V?$CStringT@_WV?$StrTraitMFC@_WV?$ChTraitsCRT@_W@ATL@@@@@ATL@@@std@@V?$allocator@U?$pair@$$CBV?$CStringT@_WV?$StrTraitMFC@_WV?$ChTraitsCRT@_W@ATL@@@@@ATL@@H@std@@@4@$00@std@@@2@XZ 0045f2b0 f i LibraryDoc.obj
 0001:0005e2f0       ?WriteXML@COption@@QAEXAAVCXMLWriter@@@Z 0045f2f0 f   Option.obj
 0001:0005e340       ?PointToDisplay@COption@@QAE?AV?$CStringT@_WV?$StrTraitMFC@_WV?$ChTraitsCRT@_W@ATL@@@@@ATL@@VCDPoint@@H@Z 0045f340 f   Option.obj
 0001:0005e430       ?PointToUnit@COption@@QAE?AV?$CStringT@_WV?$StrTraitMFC@_WV?$ChTraitsCRT@_W@ATL@@@@@ATL@@VCDPoint@@@Z 0045f430 f   Option.obj
 0001:0005e510       ?Init@COption@@QAEXPAVCTinyCadDoc@@@Z 0045f510 f   Option.obj
 0001:0005e8c0       ?SetPinLength@COption@@QAEXH@Z 0045f8c0 f   Option.obj
 0001:0005e8f0       ?SetPinNumberPos@COption@@QAEXH@Z 0045f8f0 f   Option.obj
 0001:0005e920       ?GetFontWidth@COption@@QAEHF@Z 0045f920 f   Option.obj
 0001:0005ea30       ?ReadXML@COption@@QAEXAAVCXMLReader@@@Z 0045fa30 f   Option.obj
 0001:0005ecf0       ??1COption@@QAE@XZ         0045fcf0 f   Option.obj
 0001:0005edc0       ?GetCurrentFont@COption@@QAEFW4ObjType@@@Z 0045fdc0 f   Option.obj
 0001:0005ede0       ??0COption@@QAE@XZ         0045fde0 f   Option.obj
 0001:0005eed0       ?ChooseFontW@COption@@QAEXW4ObjType@@AAVCDC@@PAUHWND__@@@Z 0045fed0 f   Option.obj
 0001:0005eff0       ?GetRuntimeClass@COptionsPropertySheet@@UBEPAUCRuntimeClass@@XZ 0045fff0 f   OptionsPropertySheet.obj
 0001:0005f000       ??1COptionsAutoSave@@UAE@XZ 00460000 f i OptionsPropertySheet.obj
 0001:0005f010       ??1COptionsPropertySheet@@UAE@XZ 00460010 f   OptionsPropertySheet.obj
 0001:0005f0a0       ??0COptionsPropertySheet@@QAE@PAVCWnd@@@Z 004600a0 f   OptionsPropertySheet.obj
 0001:0005f150       ??_ECOptionsPropertySheet@@UAEPAXI@Z 00460150 f i OptionsPropertySheet.obj
 0001:0005f150       ??_GCOptionsPropertySheet@@UAEPAXI@Z 00460150 f i OptionsPropertySheet.obj
 0001:0005f170       ?GetMessageMap@COptionsPropertySheet@@MBEPBUAFX_MSGMAP@@XZ 00460170 f   OptionsPropertySheet.obj
 0001:0005f170       ?GetMessageMap@CDetailsPropertySheet@@MBEPBUAFX_MSGMAP@@XZ 00460170 f   DetailsPropertySheet.obj
 0001:0005f180       ?GetRuntimeClass@COptionsGrid@@UBEPAUCRuntimeClass@@XZ 00460180 f   OptionsSheets.obj
 0001:0005f190       ?GetRuntimeClass@COptionsAutosnap@@UBEPAUCRuntimeClass@@XZ 00460190 f   OptionsSheets.obj
 0001:0005f1a0       ?GetRuntimeClass@COptionsAutoSave@@UBEPAUCRuntimeClass@@XZ 004601a0 f   OptionsSheets.obj
 0001:0005f1b0       ??0COptionsGrid@@QAE@XZ    004601b0 f   OptionsSheets.obj
 0001:0005f1d0       ??1COptionsGrid@@UAE@XZ    004601d0 f   OptionsSheets.obj
 0001:0005f1e0       ?OnAutosnapEnable@COptionsAutosnap@@IAEXXZ 004601e0 f   OptionsSheets.obj
 0001:0005f200       ??0COptionsAutoSave@@QAE@XZ 00460200 f   OptionsSheets.obj
 0001:0005f220       ?CreateObject@COptionsGrid@@SGPAVCObject@@XZ 00460220 f   OptionsSheets.obj
 0001:0005f290       ?CreateObject@COptionsAutoSave@@SGPAVCObject@@XZ 00460290 f   OptionsSheets.obj
 0001:0005f300       ??_GCOptionsGrid@@UAEPAXI@Z 00460300 f i OptionsSheets.obj
 0001:0005f300       ??_ECOptionsGrid@@UAEPAXI@Z 00460300 f i OptionsSheets.obj
 0001:0005f330       ?DoDataExchange@COptionsAutosnap@@MAEXPAVCDataExchange@@@Z 00460330 f   OptionsSheets.obj
 0001:0005f3b0       ??_GCOptionsAutoSave@@UAEPAXI@Z 004603b0 f i OptionsSheets.obj
 0001:0005f3b0       ??_ECOptionsAutoSave@@UAEPAXI@Z 004603b0 f i OptionsSheets.obj
 0001:0005f3d0       ?OnChange@COptionsAutoSave@@AAEXXZ 004603d0 f   OptionsSheets.obj
 0001:0005f440       ?OnApply@COptionsAutoSave@@UAEHXZ 00460440 f   OptionsSheets.obj
 0001:0005f480       ?GetMessageMap@COptionsAutosnap@@MBEPBUAFX_MSGMAP@@XZ 00460480 f   OptionsSheets.obj
 0001:0005f490       ?OnInitDialog@COptionsAutoSave@@MAEHXZ 00460490 f   OptionsSheets.obj
 0001:0005f570       ??1COptionsAutosnap@@UAE@XZ 00460570 f   OptionsSheets.obj
 0001:0005f600       ?GetMessageMap@COptionsAutoSave@@MBEPBUAFX_MSGMAP@@XZ 00460600 f   OptionsSheets.obj
 0001:0005f610       ??0COptionsAutosnap@@QAE@XZ 00460610 f   OptionsSheets.obj
 0001:0005f6e0       ??_ECOptionsAutosnap@@UAEPAXI@Z 004606e0 f i OptionsSheets.obj
 0001:0005f6e0       ??_GCOptionsAutosnap@@UAEPAXI@Z 004606e0 f i OptionsSheets.obj
 0001:0005f700       ?OnInitDialog@COptionsAutosnap@@MAEHXZ 00460700 f   OptionsSheets.obj
 0001:0005f860       ?OnSetActive@COptionsAutosnap@@UAEHXZ 00460860 f   OptionsSheets.obj
 0001:0005f930       ?CreateObject@COptionsAutosnap@@SGPAVCObject@@XZ 00460930 f   OptionsSheets.obj
 0001:0005f9a0       ?OnChange@COptionsGrid@@QAEXXZ 004609a0 f   OptionsSheets.obj
 0001:0005fad0       ?OnInitDialog@COptionsGrid@@MAEHXZ 00460ad0 f   OptionsSheets.obj
 0001:0005fc00       ?OnMm@COptionsGrid@@IAEXXZ 00460c00 f   OptionsSheets.obj
 0001:0005fc00       ?OnInches@COptionsGrid@@IAEXXZ 00460c00 f   OptionsSheets.obj
 0001:0005fc10       ?OnApply@COptionsGrid@@UAEHXZ 00460c10 f   OptionsSheets.obj
 0001:0005fe90       ?OnApply@COptionsAutosnap@@UAEHXZ 00460e90 f   OptionsSheets.obj
 0001:00060010       ?GetMessageMap@COptionsGrid@@MBEPBUAFX_MSGMAP@@XZ 00461010 f   OptionsSheets.obj
 0001:00060020       ?GetTransform@CTinyCadView@@QAEAAVTransform@@XZ 00461020 f   Paint.obj
 0001:00060040       ?SetPixel@CContext@@QAEXVCDPoint@@H@Z 00461040 f i Paint.obj
 0001:000600a0       ?CreateBitmap@CTinyCadView@@IAE_NAAVCDC@@HH@Z 004610a0 f   Paint.obj
 0001:000601e0       ?SetScroll@CTinyCadView@@QAEXNN_N@Z 004611e0 f   Paint.obj
 0001:00060710       ?SetScrollCentre@CTinyCadView@@IAEXVCDPoint@@@Z 00461710 f   Paint.obj
 0001:00060810       ?OnHScroll@CTinyCadView@@IAEXIIPAVCScrollBar@@@Z 00461810 f   Paint.obj
 0001:00060a20       ?OnVScroll@CTinyCadView@@IAEXIIPAVCScrollBar@@@Z 00461a20 f   Paint.obj
 0001:00060bc0       ?SetZoomFactor@CTinyCadView@@QAEXN@Z 00461bc0 f   Paint.obj
 0001:00060c80       ?OnSize@CTinyCadView@@IAEXIHH@Z 00461c80 f   Paint.obj
 0001:00060dc0       ?OnDraw@CTinyCadView@@UAEXPAVCDC@@@Z 00461dc0 f   Paint.obj
 0001:00061970       ?TagResources@CDrawPolygon@@UAEXXZ 00462970 f   Polygon.obj
 0001:000619b0       ?GetXMLTag@CDrawPolygon@@SAPB_WXZ 004629b0 f   Polygon.obj
 0001:000619c0       ?GetContextMenu@CDrawPolygon@@UAEHXZ 004629c0 f   Polygon.obj
 0001:000619d0       ?DblLButtonDown@CDrawPolygon@@UAEXVCDPoint@@0@Z 004629d0 f   Polygon.obj
 0001:00061a00       ?getMenuID@CDrawPolygon@@UAEHXZ 00462a00 f   Polygon.obj
 0001:00061a10       ?GetType@CDrawPolygon@@UAE?AW4ObjType@@XZ 00462a10 f   Polygon.obj
 0001:00061a20       ?EndEdit@CDrawPolygon@@UAEXXZ 00462a20 f   Polygon.obj
 0001:00061a50       ??A?$vector@VCArcPoint@@V?$allocator@VCArcPoint@@@std@@@std@@QAEAAVCArcPoint@@I@Z 00462a50 f i Polygon.obj
 0001:00061a90       ?ReadPoint@CArcPoint@@QAEXAAVCStream@@@Z 00462a90 f i Polygon.obj
 0001:00061af0       ?RButtonDown@CDrawPolygon@@UAEHVCDPoint@@0@Z 00462af0 f   Polygon.obj
 0001:00061bd0       ??$_Allocate@VCDPoint@@@std@@YAPAVCDPoint@@IPAV1@@Z 00462bd0 f i Polygon.obj
 0001:00061c30       ??$_Allocate@VCArcPoint@@@std@@YAPAVCArcPoint@@IPAV1@@Z 00462c30 f i Polygon.obj
 0001:00061c90       ??$_Copy_opt@PAVCArcPoint@@PAV1@@std@@YAPAVCArcPoint@@PAV1@00Urandom_access_iterator_tag@0@U_Nonscalar_ptr_iterator_tag@0@U_Range_checked_iterator_tag@0@@Z 00462c90 f i Polygon.obj
 0001:00061ce0       ??$_Copy_opt@PAVCDPoint@@PAV1@@std@@YAPAVCDPoint@@PAV1@00Urandom_access_iterator_tag@0@U_Nonscalar_ptr_iterator_tag@0@U_Range_checked_iterator_tag@0@@Z 00462ce0 f i Polygon.obj
 0001:00061d30       ??$_Uninit_copy@PAVCArcPoint@@PAV1@V?$allocator@VCArcPoint@@@std@@@std@@YAPAVCArcPoint@@PAV1@00AAV?$allocator@VCArcPoint@@@0@U_Nonscalar_ptr_iterator_tag@0@U_Range_checked_iterator_tag@0@@Z 00462d30 f i Polygon.obj
 0001:00061d80       ??$_Uninit_copy@PAVCDPoint@@PAV1@V?$allocator@VCDPoint@@@std@@@std@@YAPAVCDPoint@@PAV1@00AAV?$allocator@VCDPoint@@@0@U_Nonscalar_ptr_iterator_tag@0@U_Range_checked_iterator_tag@0@@Z 00462d80 f i Polygon.obj
 0001:00061dc0       ??$_Copy_backward_opt@PAVCArcPoint@@PAV1@@std@@YAPAVCArcPoint@@PAV1@00Urandom_access_iterator_tag@0@U_Nonscalar_ptr_iterator_tag@0@U_Range_checked_iterator_tag@0@@Z 00462dc0 f i Polygon.obj
 0001:00061e20       ??$_Copy_backward_opt@PAVCDPoint@@PAV1@@std@@YAPAVCDPoint@@PAV1@00Urandom_access_iterator_tag@0@U_Nonscalar_ptr_iterator_tag@0@U_Range_checked_iterator_tag@0@@Z 00462e20 f i Polygon.obj
 0001:00061e70       ??$unchecked_copy@PAVCArcPoint@@PAV1@@stdext@@YAPAVCArcPoint@@PAV1@00@Z 00462e70 f i Polygon.obj
 0001:00061ea0       ??$unchecked_copy@PAVCDPoint@@PAV1@@stdext@@YAPAVCDPoint@@PAV1@00@Z 00462ea0 f i Polygon.obj
 0001:00061ed0       ??$fill@PAVCArcPoint@@V1@@std@@YAXPAVCArcPoint@@0ABV1@@Z 00462ed0 f i Polygon.obj
 0001:00061f00       ??$fill@PAVCDPoint@@V1@@std@@YAXPAVCDPoint@@0ABV1@@Z 00462f00 f i Polygon.obj
 0001:00061f30       ??$_Uninit_fill_n@PAVCArcPoint@@IV1@V?$allocator@VCArcPoint@@@std@@@std@@YAXPAVCArcPoint@@IABV1@AAV?$allocator@VCArcPoint@@@0@U_Nonscalar_ptr_iterator_tag@0@U_Range_checked_iterator_tag@0@@Z 00462f30 f i Polygon.obj
 0001:00061f80       ??$_Uninit_fill_n@PAVCDPoint@@IV1@V?$allocator@VCDPoint@@@std@@@std@@YAXPAVCDPoint@@IABV1@AAV?$allocator@VCDPoint@@@0@U_Nonscalar_ptr_iterator_tag@0@U_Range_checked_iterator_tag@0@@Z 00462f80 f i Polygon.obj
 0001:00061fc0       ??H?$_Vector_iterator@VCArcPoint@@V?$allocator@VCArcPoint@@@std@@@std@@QBE?AV01@H@Z 00462fc0 f i Polygon.obj
 0001:00062010       ??$addAttribute@W4arc_type@CArcPoint@@@CXMLWriter@@QAEXPB_WW4arc_type@CArcPoint@@@Z 00463010 f i Polygon.obj
 0001:00062010       ??$addAttribute@W4label_style@CDrawLabel@@@CXMLWriter@@QAEXPB_WW4label_style@CDrawLabel@@@Z 00463010 f i DrawLabel.obj
 0001:00062010       ??$addAttribute@W4SymbolFieldType@@@CXMLWriter@@QAEXPB_WW4SymbolFieldType@@@Z 00463010 f i Symbol.obj
 0001:00062010       ??$addAttribute@H@CXMLWriter@@QAEXPB_WH@Z 00463010 f i Details.obj
 0001:00062010       ??$addAttribute@J@CXMLWriter@@QAEXPB_WJ@Z 00463010 f i Details.obj
 0001:000620a0       ??$_Ucopy@PAVCDPoint@@@?$vector@VCDPoint@@V?$allocator@VCDPoint@@@std@@@std@@IAEPAVCDPoint@@PAV2@00@Z 004630a0 f i Polygon.obj
 0001:000620a0       ??$_Umove@PAVCDPoint@@@?$vector@VCDPoint@@V?$allocator@VCDPoint@@@std@@@std@@IAEPAVCDPoint@@PAV2@00@Z 004630a0 f i Polygon.obj
 0001:000620d0       ??$_Unchecked_move_backward@PAVCArcPoint@@PAV1@@stdext@@YAPAVCArcPoint@@PAV1@00@Z 004630d0 f i Polygon.obj
 0001:00062100       ??$_Unchecked_move_backward@PAVCDPoint@@PAV1@@stdext@@YAPAVCDPoint@@PAV1@00@Z 00463100 f i Polygon.obj
 0001:00062130       ?_Ufill@?$vector@VCArcPoint@@V?$allocator@VCArcPoint@@@std@@@std@@IAEPAVCArcPoint@@PAV3@IABV3@@Z 00463130 f i Polygon.obj
 0001:00062170       ?_Ufill@?$vector@VCDPoint@@V?$allocator@VCDPoint@@@std@@@std@@IAEPAVCDPoint@@PAV3@IABV3@@Z 00463170 f i Polygon.obj
 0001:000621b0       ??$_Ucopy@PAVCArcPoint@@@?$vector@VCArcPoint@@V?$allocator@VCArcPoint@@@std@@@std@@IAEPAVCArcPoint@@PAV2@00@Z 004631b0 f i Polygon.obj
 0001:000621b0       ??$_Umove@PAVCArcPoint@@@?$vector@VCArcPoint@@V?$allocator@VCArcPoint@@@std@@@std@@IAEPAVCArcPoint@@PAV2@00@Z 004631b0 f i Polygon.obj
 0001:000621e0       ?begin@?$vector@VCArcPoint@@V?$allocator@VCArcPoint@@@std@@@std@@QAE?AV?$_Vector_iterator@VCArcPoint@@V?$allocator@VCArcPoint@@@std@@@2@XZ 004631e0 f i Polygon.obj
 0001:00062210       ?back@?$vector@VCArcPoint@@V?$allocator@VCArcPoint@@@std@@@std@@QAEAAVCArcPoint@@XZ 00463210 f i Polygon.obj
 0001:00062280       ?back@?$vector@VCDPoint@@V?$allocator@VCDPoint@@@std@@@std@@QAEAAVCDPoint@@XZ 00463280 f i Polygon.obj
 0001:000622f0       ?SaveXML@CDrawPolygon@@UAEXAAVCXMLWriter@@@Z 004632f0 f   Polygon.obj
 0001:00062470       ?ToAngle@CDrawPolygon@@IAEXXZ 00463470 f   Polygon.obj
 0001:00062610       ?FindNearestSegment@CDrawPolygon@@IAEXVCDPoint@@AAH1@Z 00463610 f   Polygon.obj
 0001:00062980       ?GetName@CDrawPolygon@@UBE?AV?$CStringT@_WV?$StrTraitMFC@_WV?$ChTraitsCRT@_W@ATL@@@@@ATL@@XZ 00463980 f   Polygon.obj
 0001:000629b0       ?Display@CDrawPolygon@@UAEXH@Z 004639b0 f   Polygon.obj
 0001:00062b60       ?IsInsideField@CDrawPolygon@@UAEHVCDPoint@@@Z 00463b60 f   Polygon.obj
 0001:00062da0       ?IsInsidePolygon@CDrawPolygon@@IAEHVCDPoint@@@Z 00463da0 f   Polygon.obj
 0001:00062fa0       ?IsInsideLine@CDrawPolygon@@IAEHNNNN@Z 00463fa0 f   Polygon.obj
 0001:00063170       ?DistanceFromPoint@CDrawPolygon@@UAENVCDPoint@@@Z 00464170 f   Polygon.obj
 0001:000633a0       ?IsInside@CDrawPolygon@@UAEHNNNN@Z 004643a0 f   Polygon.obj
 0001:00063470       ?erase@?$vector@VCArcPoint@@V?$allocator@VCArcPoint@@@std@@@std@@QAE?AV?$_Vector_iterator@VCArcPoint@@V?$allocator@VCArcPoint@@@std@@@2@V?$_Vector_const_iterator@VCArcPoint@@V?$allocator@VCArcPoint@@@std@@@2@@Z 00464470 f i Polygon.obj
 0001:000634e0       ?erase@?$vector@VCArcPoint@@V?$allocator@VCArcPoint@@@std@@@std@@QAE?AV?$_Vector_iterator@VCArcPoint@@V?$allocator@VCArcPoint@@@std@@@2@V?$_Vector_const_iterator@VCArcPoint@@V?$allocator@VCArcPoint@@@std@@@2@0@Z 004644e0 f i Polygon.obj
 0001:00063570       ?erase@?$vector@VCDPoint@@V?$allocator@VCDPoint@@@std@@@std@@QAE?AV?$_Vector_iterator@VCDPoint@@V?$allocator@VCDPoint@@@std@@@2@V?$_Vector_const_iterator@VCDPoint@@V?$allocator@VCDPoint@@@std@@@2@0@Z 00464570 f i Polygon.obj
 0001:00063600       ?clear@?$vector@VCArcPoint@@V?$allocator@VCArcPoint@@@std@@@std@@QAEXXZ 00464600 f i Polygon.obj
 0001:00063640       ?clear@?$vector@VCDPoint@@V?$allocator@VCDPoint@@@std@@@std@@QAEXXZ 00464640 f i Polygon.obj
 0001:00063680       ?FinishDrawing@CDrawPolygon@@UAEXVCDPoint@@@Z 00464680 f   Polygon.obj
 0001:00063810       ?SetCursorEdit@CDrawPolygon@@UAEHVCDPoint@@@Z 00464810 f   Polygon.obj
 0001:000638d0       ?_Buy@?$vector@VCArcPoint@@V?$allocator@VCArcPoint@@@std@@@std@@IAE_NI@Z 004648d0 f i Polygon.obj
 0001:00063920       ?_Insert_n@?$vector@VCArcPoint@@V?$allocator@VCArcPoint@@@std@@@std@@IAEXV?$_Vector_const_iterator@VCArcPoint@@V?$allocator@VCArcPoint@@@std@@@2@IABVCArcPoint@@@Z 00464920 f i Polygon.obj
 0001:00063be0       ?_Buy@?$vector@VCDPoint@@V?$allocator@VCDPoint@@@std@@@std@@IAE_NI@Z 00464be0 f i Polygon.obj
 0001:00063c30       ?_Insert_n@?$vector@VCDPoint@@V?$allocator@VCDPoint@@@std@@@std@@IAEXV?$_Vector_const_iterator@VCDPoint@@V?$allocator@VCDPoint@@@std@@@2@IABVCDPoint@@@Z 00464c30 f i Polygon.obj
 0001:00063e80       ??4?$vector@VCArcPoint@@V?$allocator@VCArcPoint@@@std@@@std@@QAEAAV01@ABV01@@Z 00464e80 f i Polygon.obj
 0001:00063fd0       ?insert@?$vector@VCArcPoint@@V?$allocator@VCArcPoint@@@std@@@std@@QAE?AV?$_Vector_iterator@VCArcPoint@@V?$allocator@VCArcPoint@@@std@@@2@V?$_Vector_const_iterator@VCArcPoint@@V?$allocator@VCArcPoint@@@std@@@2@ABVCArcPoint@@@Z 00464fd0 f i Polygon.obj
 0001:000640a0       ??4?$vector@VCDPoint@@V?$allocator@VCDPoint@@@std@@@std@@QAEAAV01@ABV01@@Z 004650a0 f i Polygon.obj
 0001:000641b0       ?insert@?$vector@VCDPoint@@V?$allocator@VCDPoint@@@std@@@std@@QAE?AV?$_Vector_iterator@VCDPoint@@V?$allocator@VCDPoint@@@std@@@2@V?$_Vector_const_iterator@VCDPoint@@V?$allocator@VCDPoint@@@std@@@2@ABVCDPoint@@@Z 004651b0 f i Polygon.obj
 0001:00064270       ??4CDrawPolygon@@QAEAAV0@ABV0@@Z 00465270 f i Polygon.obj
 0001:000642f0       ?push_back@?$vector@VCArcPoint@@V?$allocator@VCArcPoint@@@std@@@std@@QAEXABVCArcPoint@@@Z 004652f0 f i Polygon.obj
 0001:00064390       ?push_back@?$vector@VCDPoint@@V?$allocator@VCDPoint@@@std@@@std@@QAEXABVCDPoint@@@Z 00465390 f i Polygon.obj
 0001:00064410       ??0CDrawPolygon@@QAE@PAVCTinyCadDoc@@W4ObjType@@@Z 00465410 f   Polygon.obj
 0001:000644f0       ??1CDrawPolygon@@UAE@XZ    004654f0 f i Polygon.obj
 0001:00064550       ??_ECDrawPolygon@@UAEPAXI@Z 00465550 f i Polygon.obj
 0001:00064550       ??_GCDrawPolygon@@UAEPAXI@Z 00465550 f i Polygon.obj
 0001:00064570       ?NewOptions@CDrawPolygon@@UAEXXZ 00465570 f   Polygon.obj
 0001:000645f0       ?AddPolyBezier@CDrawPolygon@@IAEXAAV?$vector@VCDPoint@@V?$allocator@VCDPoint@@@std@@@std@@VCArcPoint@@1@Z 004655f0 f   Polygon.obj
 0001:00064740       ?FlatternPath@CDrawPolygon@@IAEXXZ 00465740 f   Polygon.obj
 0001:00064940       ?Paint@CDrawPolygon@@UAEXAAVCContext@@W4paint_options@@@Z 00465940 f   Polygon.obj
 0001:00064c40       ?Store@CDrawPolygon@@UAEPAVCDrawingObject@@XZ 00465c40 f   Polygon.obj
 0001:00064d30       ?BeginEdit@CDrawPolygon@@UAEXH@Z 00465d30 f   Polygon.obj
 0001:00064dd0       ?CalcBoundingRect@CDrawPolygon@@IAEXXZ 00465dd0 f   Polygon.obj
 0001:000650f0       ?ContextMenu@CDrawPolygon@@UAEXVCDPoint@@I@Z 004660f0 f   Polygon.obj
 0001:00065360       ?LButtonDown@CDrawPolygon@@UAEXVCDPoint@@0@Z 00466360 f   Polygon.obj
 0001:000655e0       ?Move@CDrawPolygon@@UAEXVCDPoint@@0@Z 004665e0 f   Polygon.obj
 0001:00065630       ?PaintHandles@CDrawPolygon@@UAEXAAVCContext@@@Z 00466630 f   Polygon.obj
 0001:00065810       ?MoveField@CDrawPolygon@@UAEXHVCDPoint@@@Z 00466810 f   Polygon.obj
 0001:00065b80       ?LoadXML@CDrawPolygon@@UAEXAAVCXMLReader@@@Z 00466b80 f   Polygon.obj
 0001:00065db0       ?Load@CDrawPolygon@@UAEXAAVCStream@@@Z 00466db0 f   Polygon.obj
 0001:00066100       ?Rotate@CDrawPolygon@@UAEXVCDPoint@@H@Z 00467100 f   Polygon.obj
 0001:00066330       ?DoRotate@CDrawPower@@AAEHHH@Z 00467330 f   Power.obj
 0001:00066330       ?DoRotate@CDrawMethod@@IAEHHH@Z 00467330 f   DrawMethod.obj
 0001:00066330       ?DoRotate@CDrawPin@@AAEHHH@Z 00467330 f   DrawPin.obj
 0001:000663a0       ?GetXMLTag@CDrawPower@@SAPB_WXZ 004673a0 f   Power.obj
 0001:000663b0       ?DistanceFromPoint@CDrawPower@@UAENVCDPoint@@@Z 004673b0 f   Power.obj
 0001:000664e0       ?IsInside@CDrawPower@@UAEHNNNN@Z 004674e0 f   Power.obj
 0001:00066680       ?Rotate@CDrawPower@@UAEXVCDPoint@@H@Z 00467680 f   Power.obj
 0001:00066750       ?GetType@CDrawPower@@UAE?AW4ObjType@@XZ 00467750 f   Power.obj
 0001:00066760       ?BeginEdit@CDrawPower@@UAEXH@Z 00467760 f   Power.obj
 0001:00066780       ?Move@CDrawPower@@UAEXVCDPoint@@0@Z 00467780 f   Power.obj
 0001:00066820       ?LButtonDown@CDrawPower@@UAEXVCDPoint@@0@Z 00467820 f   Power.obj
 0001:000668c0       ?Display@CDrawPower@@UAEXH@Z 004678c0 f   Power.obj
 0001:000669c0       ?EndEdit@CDrawPower@@UAEXXZ 004679c0 f   Power.obj
 0001:000669f0       ?GetActive@CDrawPower@@UAE_NAAVCActiveNode@@@Z 004679f0 f   Power.obj
 0001:00066a30       ?Load@CDrawPower@@UAEXAAVCStream@@@Z 00467a30 f   Power.obj
 0001:00066ab0       ?SaveXML@CDrawPower@@UAEXAAVCXMLWriter@@@Z 00467ab0 f   Power.obj
 0001:00066b40       ??0CDrawPower@@QAE@PAVCTinyCadDoc@@@Z 00467b40 f   Power.obj
 0001:00066c10       ?getMenuID@CDrawPower@@UAEHXZ 00467c10 f i Power.obj
 0001:00066c20       ??_GCDrawPower@@UAEPAXI@Z  00467c20 f i Power.obj
 0001:00066c20       ??_ECDrawPower@@UAEPAXI@Z  00467c20 f i Power.obj
 0001:00066ca0       ?Paint@CDrawPower@@UAEXAAVCContext@@W4paint_options@@@Z 00467ca0 f   Power.obj
 0001:00067530       ?LoadXML@CDrawPower@@UAEXAAVCXMLReader@@@Z 00468530 f   Power.obj
 0001:000675b0       ?Find@CDrawPower@@UAE?AV?$CStringT@_WV?$StrTraitMFC@_WV?$ChTraitsCRT@_W@ATL@@@@@ATL@@PB_W@Z 004685b0 f   Power.obj
 0001:00067700       ?GetName@CDrawPower@@UBE?AV?$CStringT@_WV?$StrTraitMFC@_WV?$ChTraitsCRT@_W@ATL@@@@@ATL@@XZ 00468700 f   Power.obj
 0001:00067730       ??4CDrawPower@@QAEAAV0@ABV0@@Z 00468730 f i Power.obj
 0001:000677e0       ?Store@CDrawPower@@UAEPAVCDrawingObject@@XZ 004687e0 f   Power.obj
 0001:000678a0       ??1CRegistry@@QAE@XZ       004688a0 f   Registry.obj
 0001:000678d0       ?FindNext@FindFile@@QAE_NXZ 004688d0 f   Registry.obj
 0001:000678f0       ??1FindFile@@UAE@XZ        004688f0 f   Registry.obj
 0001:00067910       ?GetName@FindFile@@QAEPA_WXZ 00468910 f   Registry.obj
 0001:00067920       ?Success@FindFile@@QAE_NXZ 00468920 f   Registry.obj
 0001:00067930       ??1CRegKey@ATL@@QAE@XZ     00468930 f i Registry.obj
 0001:00067950       ?SetValue@CRegKey@ATL@@SGJPAUHKEY__@@PB_W11@Z 00468950 f i Registry.obj
 0001:000679d0       ??_EFindFile@@UAEPAXI@Z    004689d0 f i Registry.obj
 0001:000679d0       ??_GFindFile@@UAEPAXI@Z    004689d0 f i Registry.obj
 0001:00067a00       ?Find@?$CStringT@_WV?$StrTraitMFC@_WV?$ChTraitsCRT@_W@ATL@@@@@ATL@@QBEH_WH@Z 00468a00 f i Registry.obj
 0001:00067a40       ?GetInt@CRegistry@@SAHV?$CStringT@_WV?$StrTraitMFC@_WV?$ChTraitsCRT@_W@ATL@@@@@ATL@@H@Z 00468a40 f   Registry.obj
 0001:00067ad0       ?DeleteValue@CRegistry@@SAXV?$CStringT@_WV?$StrTraitMFC@_WV?$ChTraitsCRT@_W@ATL@@@@@ATL@@@Z 00468ad0 f   Registry.obj
 0001:00067b10       ??0FindFile@@QAE@V?$CStringT@_WV?$StrTraitMFC@_WV?$ChTraitsCRT@_W@ATL@@@@@ATL@@@Z 00468b10 f   Registry.obj
 0001:00067b60       ?Set@CRegistry@@SAXV?$CStringT@_WV?$StrTraitMFC@_WV?$ChTraitsCRT@_W@ATL@@@@@ATL@@0@Z 00468b60 f   Registry.obj
 0001:00067c40       ?Set@CRegistry@@SAXV?$CStringT@_WV?$StrTraitMFC@_WV?$ChTraitsCRT@_W@ATL@@@@@ATL@@K@Z 00468c40 f   Registry.obj
 0001:00067c40       ?Set@CRegistry@@SAXV?$CStringT@_WV?$StrTraitMFC@_WV?$ChTraitsCRT@_W@ATL@@@@@ATL@@H@Z 00468c40 f   Registry.obj
 0001:00067cf0       ?Set@CRegistry@@SAXV?$CStringT@_WV?$StrTraitMFC@_WV?$ChTraitsCRT@_W@ATL@@@@@ATL@@G@Z 00468cf0 f   Registry.obj
 0001:00067da0       ?Set@CRegistry@@SAXV?$CStringT@_WV?$StrTraitMFC@_WV?$ChTraitsCRT@_W@ATL@@@@@ATL@@_N@Z 00468da0 f   Registry.obj
 0001:00067e30       ?GetString@CRegistry@@SA?AV?$CStringT@_WV?$StrTraitMFC@_WV?$ChTraitsCRT@_W@ATL@@@@@ATL@@V23@0@Z 00468e30 f   Registry.obj
 0001:00067fa0       ?GetBool@CRegistry@@SA_NV?$CStringT@_WV?$StrTraitMFC@_WV?$ChTraitsCRT@_W@ATL@@@@@ATL@@_N@Z 00468fa0 f   Registry.obj
 0001:00068040       ?GetLong@CRegistry@@SAJV?$CStringT@_WV?$StrTraitMFC@_WV?$ChTraitsCRT@_W@ATL@@@@@ATL@@J@Z 00469040 f   Registry.obj
 0001:00068120       ?keyExists@CRegistry@@KA_NV?$CStringT@_WV?$StrTraitMFC@_WV?$ChTraitsCRT@_W@ATL@@@@@ATL@@@Z 00469120 f   Registry.obj
 0001:00068220       ?Set@CRegistry@@SAXV?$CStringT@_WV?$StrTraitMFC@_WV?$ChTraitsCRT@_W@ATL@@@@@ATL@@N@Z 00469220 f   Registry.obj
 0001:00068340       ?GetDouble@CRegistry@@SANV?$CStringT@_WV?$StrTraitMFC@_WV?$ChTraitsCRT@_W@ATL@@@@@ATL@@N@Z 00469340 f   Registry.obj
 0001:00068490       ?Associate@CRegistry@@KAXV?$CStringT@_WV?$StrTraitMFC@_WV?$ChTraitsCRT@_W@ATL@@@@@ATL@@00@Z 00469490 f   Registry.obj
 0001:00068910       ?Set@CRegistry@@KAXV?$CStringT@_WV?$StrTraitMFC@_WV?$ChTraitsCRT@_W@ATL@@@@@ATL@@VCSize@@@Z 00469910 f   Registry.obj
 0001:00068a10       ?GetStringList@CRegistry@@KAPAVCStringList@@V?$CStringT@_WV?$StrTraitMFC@_WV?$ChTraitsCRT@_W@ATL@@@@@ATL@@@Z 00469a10 f   Registry.obj
 0001:00068c60       ?GetSize@CRegistry@@KA?AVCSize@@V?$CStringT@_WV?$StrTraitMFC@_WV?$ChTraitsCRT@_W@ATL@@@@@ATL@@V2@@Z 00469c60 f   Registry.obj
 0001:00068e00       ??1CResizeWnd@@UAE@XZ      00469e00 f   ResizeWnd.obj
 0001:00068e10       ??0CResizeWnd@@QAE@H@Z     00469e10 f   ResizeWnd.obj
 0001:00068ea0       ??_GCResizeWnd@@UAEPAXI@Z  00469ea0 f i ResizeWnd.obj
 0001:00068ea0       ??_ECResizeWnd@@UAEPAXI@Z  00469ea0 f i ResizeWnd.obj
 0001:00068ed0       ?OnLButtonDown@CResizeWnd@@IAEXIVCPoint@@@Z 00469ed0 f   ResizeWnd.obj
 0001:00069060       ?OnLButtonUp@CResizeWnd@@IAEXIVCPoint@@@Z 0046a060 f   ResizeWnd.obj
 0001:00069060       ?OnInitMenuPopup@CWnd@@IAEXPAVCMenu@@IH@Z 0046a060 f   TinyCadView.obj
 0001:00069060       ?OnMouseMove@CResizeWnd@@IAEXIVCPoint@@@Z 0046a060 f   ResizeWnd.obj
 0001:00069070       ?OnSetCursor@CResizeWnd@@IAEHPAVCWnd@@II@Z 0046a070 f   ResizeWnd.obj
 0001:000690a0       ?OnPaint@CResizeWnd@@IAEXXZ 0046a0a0 f   ResizeWnd.obj
 0001:000691b0       ?GetMessageMap@CResizeWnd@@MBEPBUAFX_MSGMAP@@XZ 0046a1b0 f   ResizeWnd.obj
 0001:000691c0       ?ShowPosition@Ruler@@QAEXVCPoint@@@Z 0046a1c0 f   Ruler.obj
 0001:00069310       ??0Ruler@@QAE@PAVCMultiSheetDoc@@HVCRect@@PAVCWnd@@@Z 0046a310 f   Ruler.obj
 0001:00069430       ??_GRuler@@UAEPAXI@Z       0046a430 f i Ruler.obj
 0001:00069430       ??_ERuler@@UAEPAXI@Z       0046a430 f i Ruler.obj
 0001:00069450       ?OnNewSize@Ruler@@QAEXVCRect@@@Z 0046a450 f   Ruler.obj
 0001:00069510       ?OnPaint@Ruler@@QAEXXZ     0046a510 f   Ruler.obj
 0001:00069b00       ?GetMessageMap@Ruler@@MBEPBUAFX_MSGMAP@@XZ 0046ab00 f   Ruler.obj
 0001:00069b10       ?GetRuntimeClass@CSizerBar@@UBEPAUCRuntimeClass@@XZ 0046ab10 f   SizerBar.obj
 0001:00069b20       ??1CSizerBar@@UAE@XZ       0046ab20 f   SizerBar.obj
 0001:00069b30       ?PreCreateWindow@CSizerBar@@MAEHAAUtagCREATESTRUCTW@@@Z 0046ab30 f   SizerBar.obj
 0001:00069b50       ?Create@CSizerBar@@QAEHKPAVCWnd@@AAVCWinMgr@@IABUtagRECT@@@Z 0046ab50 f   SizerBar.obj
 0001:00069b80       ?OnCancelMode@CSizerBar@@IAEXXZ 0046ab80 f   SizerBar.obj
 0001:00069bb0       ?SetRect@CRect@@QAEXHHHH@Z 0046abb0 f i SizerBar.obj
 0001:00069bd0       ??0CSizerBar@@QAE@XZ       0046abd0 f   SizerBar.obj
 0001:00069c00       ??_GCSizerBar@@UAEPAXI@Z   0046ac00 f i SizerBar.obj
 0001:00069c00       ??_ECSizerBar@@UAEPAXI@Z   0046ac00 f i SizerBar.obj
 0001:00069c30       ?OnPaint@CSizerBar@@IAEXXZ 0046ac30 f   SizerBar.obj
 0001:00069d10       ?OnSetCursor@CSizerBar@@IAEHPAVCWnd@@II@Z 0046ad10 f   SizerBar.obj
 0001:00069d80       ?OnLButtonDown@CSizerBar@@IAEXIVCPoint@@@Z 0046ad80 f   SizerBar.obj
 0001:00069fe0       ?OnChar@CSizerBar@@IAEXIII@Z 0046afe0 f   SizerBar.obj
 0001:0006a020       ?NotifyMoved@CSizerBar@@IAEXVCPoint@@@Z 0046b020 f   SizerBar.obj
 0001:0006a090       ?CreateObject@CSizerBar@@SGPAVCObject@@XZ 0046b090 f   SizerBar.obj
 0001:0006a120       ?OnMouseMove@CSizerBar@@IAEXIVCPoint@@@Z 0046b120 f   SizerBar.obj
 0001:0006a180       ?OnLButtonUp@CSizerBar@@IAEXIVCPoint@@@Z 0046b180 f   SizerBar.obj
 0001:0006a1e0       ?GetMessageMap@CSizerBar@@MBEPBUAFX_MSGMAP@@XZ 0046b1e0 f   SizerBar.obj
 0001:0006a1f0       ?SetCursor@CDrawRefPainter@@UAEHVCDPoint@@@Z 0046b1f0 f i Special.obj
 0001:0006a200       ??1AnotateSetup@@QAE@XZ    0046b200 f i Special.obj
 0001:0006a220       ??1CDlgAnotateBox@@UAE@XZ  0046b220 f i Special.obj
 0001:0006a250       ??0AnotateSetup@@QAE@XZ    0046b250 f   Special.obj
 0001:0006a2e0       ??0CDlgAnotateBox@@QAE@PAVCWnd@@VAnotateSetup@@@Z 0046b2e0 f i Special.obj
 0001:0006a3b0       ??_GCDlgAnotateBox@@UAEPAXI@Z 0046b3b0 f i Special.obj
 0001:0006a3b0       ??_ECDlgAnotateBox@@UAEPAXI@Z 0046b3b0 f i Special.obj
 0001:0006a440       ?OnSpecialAnotate@CTinyCadView@@IAEXXZ 0046b440 f   Special.obj
 0001:0006aa60       ?OnSpecialBom@CTinyCadView@@IAEXXZ 0046ba60 f   Special.obj
 0001:0006ad20       ?GetRuntimeClass@CSpecialPrintDlg@@UBEPAUCRuntimeClass@@XZ 0046bd20 f   SpecialPrintDlg.obj
 0001:0006ad30       ??_9CSpecialPrintDlg@@$BBFI@AE 0046bd30 f i SpecialPrintDlg.obj
 0001:0006ad40       ?DoDataExchange@CSpecialPrintDlg@@MAEXPAVCDataExchange@@@Z 0046bd40 f   SpecialPrintDlg.obj
 0001:0006ad60       ?OnBandw@CSpecialPrintDlg@@IAEXXZ 0046bd60 f   SpecialPrintDlg.obj
 0001:0006ada0       ??0CSpecialPrintDlg@@QAE@HKPAVCWnd@@@Z 0046bda0 f   SpecialPrintDlg.obj
 0001:0006ae50       ??1CSpecialPrintDlg@@UAE@XZ 0046be50 f i SpecialPrintDlg.obj
 0001:0006aec0       ??_GCSpecialPrintDlg@@UAEPAXI@Z 0046bec0 f i SpecialPrintDlg.obj
 0001:0006aec0       ??_ECSpecialPrintDlg@@UAEPAXI@Z 0046bec0 f i SpecialPrintDlg.obj
 0001:0006aee0       ?OnOK@CSpecialPrintDlg@@MAEXXZ 0046bee0 f   SpecialPrintDlg.obj
 0001:0006afd0       ?OnInitDialog@CSpecialPrintDlg@@MAEHXZ 0046bfd0 f   SpecialPrintDlg.obj
 0001:0006b0e0       ?OnFit@CSpecialPrintDlg@@IAEXXZ 0046c0e0 f   SpecialPrintDlg.obj
 0001:0006b210       ?GetMessageMap@CSpecialPrintDlg@@MBEPBUAFX_MSGMAP@@XZ 0046c210 f   SpecialPrintDlg.obj
 0001:0006b220       ?OnDestroy@CDlgStartUpWindow@@QAEXXZ 0046c220 f   Startup.obj
 0001:0006b230       ?OnTimer@CDlgStartUpWindow@@QAEXI@Z 0046c230 f   Startup.obj
 0001:0006b250       ??1CDlgStartUpWindow@@UAE@XZ 0046c250 f   Startup.obj
 0001:0006b2d0       ?OnPaint@CDlgStartUpWindow@@QAEXXZ 0046c2d0 f   Startup.obj
 0001:0006b4f0       ??_GCDlgStartUpWindow@@UAEPAXI@Z 0046c4f0 f i Startup.obj
 0001:0006b4f0       ??_ECDlgStartUpWindow@@UAEPAXI@Z 0046c4f0 f i Startup.obj
 0001:0006b510       ??0CDlgStartUpWindow@@QAE@PAVCWnd@@@Z 0046c510 f   Startup.obj
 0001:0006b6a0       ?GetMessageMap@CDlgStartUpWindow@@MBEPBUAFX_MSGMAP@@XZ 0046c6a0 f   Startup.obj
 0001:0006b6b0       ?Attach@CStreamFile@@QAEXPAVCFile@@I@Z 0046c6b0 f i Stream.obj
 0001:0006b730       ??0CStream@@QAE@XZ         0046c730 f   Stream.obj
 0001:0006b740       ??1CStream@@UAE@XZ         0046c740 f   Stream.obj
 0001:0006b750       ??0CStreamFile@@QAE@PAVCArchive@@@Z 0046c750 f   Stream.obj
 0001:0006b770       ?Close@CStreamFile@@UAEXXZ 0046c770 f i Stream.obj
 0001:0006b780       ?Write@CStreamFile@@UAEXPBXI@Z 0046c780 f i Stream.obj
 0001:0006b790       ?Read@CStreamFile@@UAEIPAXI@Z 0046c790 f i Stream.obj
 0001:0006b7a0       ??0CStreamFile@@QAE@PAVCFile@@I@Z 0046c7a0 f   Stream.obj
 0001:0006b810       ?FreeHeap@?$CTempBuffer@D$0IA@VCCRTAllocator@ATL@@@ATL@@AAEXXZ 0046c810 f i Stream.obj
 0001:0006b810       ?FreeHeap@?$CTempBuffer@_W$0IA@VCCRTAllocator@ATL@@@ATL@@AAEXXZ 0046c810 f i Stream.obj
 0001:0006b820       ?AllocateHeap@?$CTempBuffer@_W$0IA@VCCRTAllocator@ATL@@@ATL@@AAEXI@Z 0046c820 f i Stream.obj
 0001:0006b820       ?AllocateHeap@?$CTempBuffer@D$0IA@VCCRTAllocator@ATL@@@ATL@@AAEXI@Z 0046c820 f i Stream.obj
 0001:0006b850       ??$AtlMultiplyThrow@I@ATL@@YAIII@Z 0046c850 f i Stream.obj
 0001:0006b870       ??_ECStream@@UAEPAXI@Z     0046c870 f i Stream.obj
 0001:0006b870       ??_GCStream@@UAEPAXI@Z     0046c870 f i Stream.obj
 0001:0006b890       ??1CStreamFile@@UAE@XZ     0046c890 f   Stream.obj
 0001:0006b900       ?Seek@CStreamFile@@UAEXJ@Z 0046c900 f   Stream.obj
 0001:0006b930       ?GetPos@CStreamFile@@UAEJXZ 0046c930 f   Stream.obj
 0001:0006b950       ??1?$CTempBuffer@_W$0IA@VCCRTAllocator@ATL@@@ATL@@QAE@XZ 0046c950 f i Stream.obj
 0001:0006b950       ??1?$CTempBuffer@D$0IA@VCCRTAllocator@ATL@@@ATL@@QAE@XZ 0046c950 f i Stream.obj
 0001:0006b960       ??_GCStreamFile@@UAEPAXI@Z 0046c960 f i Stream.obj
 0001:0006b960       ??_ECStreamFile@@UAEPAXI@Z 0046c960 f i Stream.obj
 0001:0006b980       ??$?6_WV?$StrTraitMFC@_WV?$ChTraitsCRT@_W@ATL@@@@@CArchive@@QAEAAV0@ABV?$CStringT@_WV?$StrTraitMFC@_WV?$ChTraitsCRT@_W@ATL@@@@@ATL@@@Z 0046c980 f i Stream.obj
 0001:0006b9b0       ??6CStreamFile@@UAEAAVCStream@@V?$CStringT@_WV?$StrTraitMFC@_WV?$ChTraitsCRT@_W@ATL@@@@@ATL@@@Z 0046c9b0 f i Stream.obj
 0001:0006ba40       ??0?$CStringT@_WV?$StrTraitMFC@_WV?$ChTraitsCRT@_W@ATL@@@@@ATL@@QAE@PBDH@Z 0046ca40 f i Stream.obj
 0001:0006bb30       ??$?5_WV?$StrTraitMFC@_WV?$ChTraitsCRT@_W@ATL@@@@@CArchive@@QAEAAV0@AAV?$CStringT@_WV?$StrTraitMFC@_WV?$ChTraitsCRT@_W@ATL@@@@@ATL@@@Z 0046cb30 f i Stream.obj
 0001:0006bd70       ??5CStreamFile@@UAEAAVCStream@@AAV?$CStringT@_WV?$StrTraitMFC@_WV?$ChTraitsCRT@_W@ATL@@@@@ATL@@@Z 0046cd70 f i Stream.obj
 0001:0006bd90       ??0CStreamClipboard@@QAE@XZ 0046cd90 f   StreamClipboard.obj
 0001:0006be10       ??1CStreamClipboard@@UAE@XZ 0046ce10 f   StreamClipboard.obj
 0001:0006be70       ?Seek@CStreamClipboard@@UAEXJ@Z 0046ce70 f   StreamClipboard.obj
 0001:0006be80       ?GetPos@CStreamClipboard@@UAEJXZ 0046ce80 f   StreamClipboard.obj
 0001:0006be90       ?Close@CStreamClipboard@@UAEXXZ 0046ce90 f   StreamClipboard.obj
 0001:0006beb0       ??_GCStreamClipboard@@UAEPAXI@Z 0046ceb0 f i StreamClipboard.obj
 0001:0006beb0       ??_ECStreamClipboard@@UAEPAXI@Z 0046ceb0 f i StreamClipboard.obj
 0001:0006bed0       ?SaveToClipboard@CStreamClipboard@@QAEXI@Z 0046ced0 f   StreamClipboard.obj
 0001:0006bf20       ?ReadFromClipboard@CStreamClipboard@@QAEHI@Z 0046cf20 f   StreamClipboard.obj
 0001:0006bf80       ?Write@CStreamClipboard@@UAEXPBXI@Z 0046cf80 f   StreamClipboard.obj
 0001:0006bfb0       ?Read@CStreamClipboard@@UAEIPAXI@Z 0046cfb0 f   StreamClipboard.obj
 0001:0006c000       ??6CStreamDb@@UAEAAVCStream@@V?$CStringT@_WV?$StrTraitMFC@_WV?$ChTraitsCRT@_W@ATL@@@@@ATL@@@Z 0046d000 f   StreamDb.obj
 0001:0006c000       ??6CStreamClipboard@@UAEAAVCStream@@V?$CStringT@_WV?$StrTraitMFC@_WV?$ChTraitsCRT@_W@ATL@@@@@ATL@@@Z 0046d000 f   StreamClipboard.obj
 0001:0006c0a0       ??5CStreamClipboard@@UAEAAVCStream@@AAV?$CStringT@_WV?$StrTraitMFC@_WV?$ChTraitsCRT@_W@ATL@@@@@ATL@@@Z 0046d0a0 f   StreamClipboard.obj
 0001:0006c150       ?GetOrientation@CStreamDb@@UAEHXZ 0046d150 f   StreamDb.obj
 0001:0006c160       ?Flush@CStreamDb@@UAEXXZ   0046d160 f   StreamDb.obj
 0001:0006c1b0       ?Seek@CStreamDb@@UAEXJ@Z   0046d1b0 f   StreamDb.obj
 0001:0006c1c0       ?GetPos@CStreamDb@@UAEJXZ  0046d1c0 f   StreamDb.obj
 0001:0006c1d0       ?Close@CStreamDb@@UAEXXZ   0046d1d0 f   StreamDb.obj
 0001:0006c1f0       ??1CStreamDb@@UAE@XZ       0046d1f0 f   StreamDb.obj
 0001:0006c270       ?Write@CStreamDb@@UAEXPBXI@Z 0046d270 f   StreamDb.obj
 0001:0006c2a0       ?Read@CStreamDb@@UAEIPAXI@Z 0046d2a0 f   StreamDb.obj
 0001:0006c300       ??_ECStreamDb@@UAEPAXI@Z   0046d300 f i StreamDb.obj
 0001:0006c300       ??_GCStreamDb@@UAEPAXI@Z   0046d300 f i StreamDb.obj
 0001:0006c320       ??5CStreamDb@@UAEAAVCStream@@AAV?$CStringT@_WV?$StrTraitMFC@_WV?$ChTraitsCRT@_W@ATL@@@@@ATL@@@Z 0046d320 f   StreamDb.obj
 0001:0006c3a0       ??0CStreamDb@@QAE@PAVCDaoDatabase@@HHH@Z 0046d3a0 f   StreamDb.obj
 0001:0006c490       ?GetMethodArchive@CLibraryStoreNameSet@@QAEPAVCStream@@XZ 0046d490 f   Symbol.obj
 0001:0006c4a0       ?_Max@?$_Tree@V?$_Tmap_traits@VCDesignFileSymbolFilter@@V?$list@PAVCDrawingObject@@V?$allocator@PAVCDrawingObject@@@std@@@std@@U?$less@VCDesignFileSymbolFilter@@@3@V?$allocator@U?$pair@$$CBVCDesignFileSymbolFilter@@V?$list@PAVCDrawingObject@@V?$allocator@PAVCDrawingObject@@@std@@@std@@@std@@@3@$0A@@std@@@std@@KAPAU_Node@?$_Tree_nod@V?$_Tmap_traits@VCDesignFileSymbolFilter@@V?$list@PAVCDrawingObject@@V?$allocator@PAVCDrawingObject@@@std@@@std@@U?$less@VCDesignFileSymbolFilter@@@3@V?$allocator@U?$pair@$$CBVCDesignFileSymbolFilter@@V?$list@PAVCDrawingObject@@V?$allocator@PAVCDrawingObject@@@std@@@std@@@std@@@3@$0A@@std@@@2@PAU342@@Z 0046d4a0 f i Symbol.obj
 0001:0006c4c0       ?_Min@?$_Tree@V?$_Tmap_traits@VCDesignFileSymbolFilter@@V?$list@PAVCDrawingObject@@V?$allocator@PAVCDrawingObject@@@std@@@std@@U?$less@VCDesignFileSymbolFilter@@@3@V?$allocator@U?$pair@$$CBVCDesignFileSymbolFilter@@V?$list@PAVCDrawingObject@@V?$allocator@PAVCDrawingObject@@@std@@@std@@@std@@@3@$0A@@std@@@std@@KAPAU_Node@?$_Tree_nod@V?$_Tmap_traits@VCDesignFileSymbolFilter@@V?$list@PAVCDrawingObject@@V?$allocator@PAVCDrawingObject@@@std@@@std@@U?$less@VCDesignFileSymbolFilter@@@3@V?$allocator@U?$pair@$$CBVCDesignFileSymbolFilter@@V?$list@PAVCDrawingObject@@V?$allocator@PAVCDrawingObject@@@std@@@std@@@std@@@3@$0A@@std@@@2@PAU342@@Z 0046d4c0 f i Symbol.obj
 0001:0006c4e0       ?_Rrotate@?$_Tree@V?$_Tmap_traits@VCDesignFileSymbolFilter@@V?$list@PAVCDrawingObject@@V?$allocator@PAVCDrawingObject@@@std@@@std@@U?$less@VCDesignFileSymbolFilter@@@3@V?$allocator@U?$pair@$$CBVCDesignFileSymbolFilter@@V?$list@PAVCDrawingObject@@V?$allocator@PAVCDrawingObject@@@std@@@std@@@std@@@3@$0A@@std@@@std@@IAEXPAU_Node@?$_Tree_nod@V?$_Tmap_traits@VCDesignFileSymbolFilter@@V?$list@PAVCDrawingObject@@V?$allocator@PAVCDrawingObject@@@std@@@std@@U?$less@VCDesignFileSymbolFilter@@@3@V?$allocator@U?$pair@$$CBVCDesignFileSymbolFilter@@V?$list@PAVCDrawingObject@@V?$allocator@PAVCDrawingObject@@@std@@@std@@@std@@@3@$0A@@std@@@2@@Z 0046d4e0 f i Symbol.obj
 0001:0006c540       ??R?$less@VCDesignFileSymbolFilter@@@std@@QBE_NABVCDesignFileSymbolFilter@@0@Z 0046d540 f i Symbol.obj
 0001:0006c570       ?Load@CSymbolField@@QAEXAAVCStream@@@Z 0046d570 f   Symbol.obj
 0001:0006c5e0       ?GetRecord@CLibraryStoreNameSet@@QAEAAVCLibraryStoreSymbol@@H@Z 0046d5e0 f   Symbol.obj
 0001:0006c630       ?GetNumRecords@CLibraryStoreNameSet@@QAEHXZ 0046d630 f   Symbol.obj
 0001:0006c650       ??A?$vector@V?$list@PAVCDrawingObject@@V?$allocator@PAVCDrawingObject@@@std@@@std@@V?$allocator@V?$list@PAVCDrawingObject@@V?$allocator@PAVCDrawingObject@@@std@@@std@@@2@@std@@QAEAAV?$list@PAVCDrawingObject@@V?$allocator@PAVCDrawingObject@@@std@@@1@I@Z 0046d650 f i Symbol.obj
 0001:0006c690       ?_Lrotate@?$_Tree@V?$_Tmap_traits@VCDesignFileSymbolFilter@@V?$list@PAVCDrawingObject@@V?$allocator@PAVCDrawingObject@@@std@@@std@@U?$less@VCDesignFileSymbolFilter@@@3@V?$allocator@U?$pair@$$CBVCDesignFileSymbolFilter@@V?$list@PAVCDrawingObject@@V?$allocator@PAVCDrawingObject@@@std@@@std@@@std@@@3@$0A@@std@@@std@@IAEXPAU_Node@?$_Tree_nod@V?$_Tmap_traits@VCDesignFileSymbolFilter@@V?$list@PAVCDrawingObject@@V?$allocator@PAVCDrawingObject@@@std@@@std@@U?$less@VCDesignFileSymbolFilter@@@3@V?$allocator@U?$pair@$$CBVCDesignFileSymbolFilter@@V?$list@PAVCDrawingObject@@V?$allocator@PAVCDrawingObject@@@std@@@std@@@std@@@3@$0A@@std@@@2@@Z 0046d690 f i Symbol.obj
 0001:0006c6e0       ?_Lbound@?$_Tree@V?$_Tmap_traits@VCDesignFileSymbolFilter@@V?$list@PAVCDrawingObject@@V?$allocator@PAVCDrawingObject@@@std@@@std@@U?$less@VCDesignFileSymbolFilter@@@3@V?$allocator@U?$pair@$$CBVCDesignFileSymbolFilter@@V?$list@PAVCDrawingObject@@V?$allocator@PAVCDrawingObject@@@std@@@std@@@std@@@3@$0A@@std@@@std@@IBEPAU_Node@?$_Tree_nod@V?$_Tmap_traits@VCDesignFileSymbolFilter@@V?$list@PAVCDrawingObject@@V?$allocator@PAVCDrawingObject@@@std@@@std@@U?$less@VCDesignFileSymbolFilter@@@3@V?$allocator@U?$pair@$$CBVCDesignFileSymbolFilter@@V?$list@PAVCDrawingObject@@V?$allocator@PAVCDrawingObject@@@std@@@std@@@std@@@3@$0A@@std@@@2@ABVCDesignFileSymbolFilter@@@Z 0046d6e0 f i Symbol.obj
 0001:0006c730       ?_Inc@const_iterator@?$_Tree@V?$_Tmap_traits@VCDesignFileSymbolFilter@@V?$list@PAVCDrawingObject@@V?$allocator@PAVCDrawingObject@@@std@@@std@@U?$less@VCDesignFileSymbolFilter@@@3@V?$allocator@U?$pair@$$CBVCDesignFileSymbolFilter@@V?$list@PAVCDrawingObject@@V?$allocator@PAVCDrawingObject@@@std@@@std@@@std@@@3@$0A@@std@@@std@@QAEXXZ 0046d730 f i Symbol.obj
 0001:0006c7a0       ?_Dec@const_iterator@?$_Tree@V?$_Tmap_traits@VCDesignFileSymbolFilter@@V?$list@PAVCDrawingObject@@V?$allocator@PAVCDrawingObject@@@std@@@std@@U?$less@VCDesignFileSymbolFilter@@@3@V?$allocator@U?$pair@$$CBVCDesignFileSymbolFilter@@V?$list@PAVCDrawingObject@@V?$allocator@PAVCDrawingObject@@@std@@@std@@@std@@@3@$0A@@std@@@std@@QAEXXZ 0046d7a0 f i Symbol.obj
 0001:0006c830       ??Y?$_Vector_const_iterator@V?$list@PAVCDrawingObject@@V?$allocator@PAVCDrawingObject@@@std@@@std@@V?$allocator@V?$list@PAVCDrawingObject@@V?$allocator@PAVCDrawingObject@@@std@@@std@@@2@@std@@QAEAAV01@H@Z 0046d830 f i Symbol.obj
 0001:0006c830       ??Y?$_Vector_const_iterator@VCDocUndoSet@@V?$allocator@VCDocUndoSet@@@std@@@std@@QAEAAV01@H@Z 0046d830 f i TinyCadDoc.obj
 0001:0006c890       ??$_Allocate@VCDocUndoSet@@@std@@YAPAVCDocUndoSet@@IPAV1@@Z 0046d890 f i TinyCadDoc.obj
 0001:0006c890       ??$_Allocate@V?$list@PAVCDrawingObject@@V?$allocator@PAVCDrawingObject@@@std@@@std@@@std@@YAPAV?$list@PAVCDrawingObject@@V?$allocator@PAVCDrawingObject@@@std@@@0@IPAV10@@Z 0046d890 f i Symbol.obj
 0001:0006c900       ?_Buynode@?$_Tree@V?$_Tmap_traits@VCDesignFileSymbolFilter@@V?$list@PAVCDrawingObject@@V?$allocator@PAVCDrawingObject@@@std@@@std@@U?$less@VCDesignFileSymbolFilter@@@3@V?$allocator@U?$pair@$$CBVCDesignFileSymbolFilter@@V?$list@PAVCDrawingObject@@V?$allocator@PAVCDrawingObject@@@std@@@std@@@std@@@3@$0A@@std@@@std@@IAEPAU_Node@?$_Tree_nod@V?$_Tmap_traits@VCDesignFileSymbolFilter@@V?$list@PAVCDrawingObject@@V?$allocator@PAVCDrawingObject@@@std@@@std@@U?$less@VCDesignFileSymbolFilter@@@3@V?$allocator@U?$pair@$$CBVCDesignFileSymbolFilter@@V?$list@PAVCDrawingObject@@V?$allocator@PAVCDrawingObject@@@std@@@std@@@std@@@3@$0A@@std@@@2@XZ 0046d900 f i Symbol.obj
 0001:0006c940       ??$addTag@VCDPoint@@@CXMLWriter@@QAEXPB_WVCDPoint@@@Z 0046d940 f i Symbol.obj
 0001:0006c9f0       ??$addAttribute@_N@CXMLWriter@@QAEXPB_W_N@Z 0046d9f0 f i Symbol.obj
 0001:0006c9f0       ??$addAttribute@E@CXMLWriter@@QAEXPB_WE@Z 0046d9f0 f i DrawBusSlash.obj
 0001:0006ca80       ?SaveXML@CSymbolField@@QAEXAAVCXMLWriter@@_N@Z 0046da80 f   Symbol.obj
 0001:0006cb60       ?SaveXML@CSymbolRecord@@QAEXAAVCXMLWriter@@@Z 0046db60 f   Symbol.obj
 0001:0006cca0       ?GetLibName@CLibraryStoreNameSet@@QAE?AV?$CStringT@_WV?$StrTraitMFC@_WV?$ChTraitsCRT@_W@ATL@@@@@ATL@@XZ 0046dca0 f   Symbol.obj
 0001:0006ccd0       ?SaveXML@CLibraryStoreNameSet@@QAEXAAVCXMLWriter@@@Z 0046dcd0 f   Symbol.obj
 0001:0006cd90       ??$getChildData@VCDPoint@@@CXMLReader@@QAEXAAVCDPoint@@@Z 0046dd90 f i Symbol.obj
 0001:0006ce30       ??$getAttribute@_N@CXMLReader@@QAE_NPB_WAA_N@Z 0046de30 f i Symbol.obj
 0001:0006cf40       ?LoadXML@CSymbolField@@QAEXAAVCXMLReader@@@Z 0046df40 f   Symbol.obj
 0001:0006d170       ?GetTr@CDesignFileSymbol@@AAE?AVCDPoint@@PAVCTinyCadDoc@@AAV?$list@PAVCDrawingObject@@V?$allocator@PAVCDrawingObject@@@std@@@std@@@Z 0046e170 f   Symbol.obj
 0001:0006d430       ?SaveXML@CDesignFileSymbol@@QAEXAAVCXMLWriter@@@Z 0046e430 f   Symbol.obj
 0001:0006d760       ??1?$pair@$$CBVCDesignFileSymbolFilter@@V?$list@PAVCDrawingObject@@V?$allocator@PAVCDrawingObject@@@std@@@std@@@std@@QAE@XZ 0046e760 f i Symbol.obj
 0001:0006d760       ??1?$pair@VCDesignFileSymbolFilter@@V?$list@PAVCDrawingObject@@V?$allocator@PAVCDrawingObject@@@std@@@std@@@std@@QAE@XZ 0046e760 f i Symbol.obj
 0001:0006d780       ?find@?$_Tree@V?$_Tmap_traits@VCDesignFileSymbolFilter@@V?$list@PAVCDrawingObject@@V?$allocator@PAVCDrawingObject@@@std@@@std@@U?$less@VCDesignFileSymbolFilter@@@3@V?$allocator@U?$pair@$$CBVCDesignFileSymbolFilter@@V?$list@PAVCDrawingObject@@V?$allocator@PAVCDrawingObject@@@std@@@std@@@std@@@3@$0A@@std@@@std@@QAE?AViterator@12@ABVCDesignFileSymbolFilter@@@Z 0046e780 f i Symbol.obj
 0001:0006d810       ??0?$_Tree@V?$_Tmap_traits@VCDesignFileSymbolFilter@@V?$list@PAVCDrawingObject@@V?$allocator@PAVCDrawingObject@@@std@@@std@@U?$less@VCDesignFileSymbolFilter@@@3@V?$allocator@U?$pair@$$CBVCDesignFileSymbolFilter@@V?$list@PAVCDrawingObject@@V?$allocator@PAVCDrawingObject@@@std@@@std@@@std@@@3@$0A@@std@@@std@@QAE@ABU?$less@VCDesignFileSymbolFilter@@@1@ABV?$allocator@U?$pair@$$CBVCDesignFileSymbolFilter@@V?$list@PAVCDrawingObject@@V?$allocator@PAVCDrawingObject@@@std@@@std@@@std@@@1@@Z 0046e810 f i Symbol.obj
 0001:0006d8a0       ?_Xlen@?$vector@VCArcPoint@@V?$allocator@VCArcPoint@@@std@@@std@@KAXXZ 0046e8a0 f i Polygon.obj
 0001:0006d8a0       ?_Xlen@?$vector@V?$map@HHU?$less@H@std@@V?$allocator@U?$pair@$$CBHH@std@@@2@@std@@V?$allocator@V?$map@HHU?$less@H@std@@V?$allocator@U?$pair@$$CBHH@std@@@2@@std@@@2@@std@@KAXXZ 0046e8a0 f i NetList.obj
 0001:0006d8a0       ?_Xlen@?$vector@VCDocUndoSet@@V?$allocator@VCDocUndoSet@@@std@@@std@@KAXXZ 0046e8a0 f i TinyCadDoc.obj
 0001:0006d8a0       ?_Xlen@?$vector@PAVCImportFile@@V?$allocator@PAVCImportFile@@@std@@@std@@KAXXZ 0046e8a0 f i BOMGenerator.obj
 0001:0006d8a0       ?_Xlen@?$vector@VCNetListNode@@V?$allocator@VCNetListNode@@@std@@@std@@KAXXZ 0046e8a0 f i NetList.obj
 0001:0006d8a0       ?_Xlen@?$vector@PAVCTinyCadSymbolDoc@@V?$allocator@PAVCTinyCadSymbolDoc@@@std@@@std@@KAXXZ 0046e8a0 f i TinyCadMultiSymbolDoc.obj
 0001:0006d8a0       ?_Xlen@?$vector@V?$CStringT@_WV?$StrTraitMFC@_WV?$ChTraitsCRT@_W@ATL@@@@@ATL@@V?$allocator@V?$CStringT@_WV?$StrTraitMFC@_WV?$ChTraitsCRT@_W@ATL@@@@@ATL@@@std@@@std@@KAXXZ 0046e8a0 f i BOMGenerator.obj
 0001:0006d8a0       ?_Xlen@?$vector@PAVCTinyCadDoc@@V?$allocator@PAVCTinyCadDoc@@@std@@@std@@KAXXZ 0046e8a0 f i TinyCadMultiDoc.obj
 0001:0006d8a0       ?_Xlen@?$vector@UCField@CDrawMethod@@V?$allocator@UCField@CDrawMethod@@@std@@@std@@KAXXZ 0046e8a0 f i DrawHierarchicalSymbol.obj
 0001:0006d8a0       ?_Xlen@?$vector@VCNetList@@V?$allocator@VCNetList@@@std@@@std@@KAXXZ 0046e8a0 f i NetList.obj
 0001:0006d8a0       ?_Xlen@?$vector@VCLibraryStoreSymbol@@V?$allocator@VCLibraryStoreSymbol@@@std@@@std@@KAXXZ 0046e8a0 f i DlgUpdateBox.obj
 0001:0006d8a0       ?_Xlen@?$vector@V?$list@PAVCDrawingObject@@V?$allocator@PAVCDrawingObject@@@std@@@std@@V?$allocator@V?$list@PAVCDrawingObject@@V?$allocator@PAVCDrawingObject@@@std@@@std@@@2@@std@@KAXXZ 0046e8a0 f i Symbol.obj
 0001:0006d8a0       ?_Xlen@?$vector@VCSymbolField@@V?$allocator@VCSymbolField@@@std@@@std@@KAXXZ 0046e8a0 f i DlgUpdateBox.obj
 0001:0006d8a0       ?_Xlen@?$vector@V?$set@V?$CStringT@_WV?$StrTraitMFC@_WV?$ChTraitsCRT@_W@ATL@@@@@ATL@@U?$less@V?$CStringT@_WV?$StrTraitMFC@_WV?$ChTraitsCRT@_W@ATL@@@@@ATL@@@std@@V?$allocator@V?$CStringT@_WV?$StrTraitMFC@_WV?$ChTraitsCRT@_W@ATL@@@@@ATL@@@4@@std@@V?$allocator@V?$set@V?$CStringT@_WV?$StrTraitMFC@_WV?$ChTraitsCRT@_W@ATL@@@@@ATL@@U?$less@V?$CStringT@_WV?$StrTraitMFC@_WV?$ChTraitsCRT@_W@ATL@@@@@ATL@@@std@@V?$allocator@V?$CStringT@_WV?$StrTraitMFC@_WV?$ChTraitsCRT@_W@ATL@@@@@ATL@@@4@@std@@@2@@std@@KAXXZ 0046e8a0 f i NetList.obj
 0001:0006d8a0       ?_Xlen@?$vector@VCDPoint@@V?$allocator@VCDPoint@@@std@@@std@@KAXXZ 0046e8a0 f i Polygon.obj
 0001:0006d920       ?destroy@?$allocator@V?$list@PAVCDrawingObject@@V?$allocator@PAVCDrawingObject@@@std@@@std@@@std@@QAEXPAV?$list@PAVCDrawingObject@@V?$allocator@PAVCDrawingObject@@@std@@@2@@Z 0046e920 f i Symbol.obj
 0001:0006d920       ?destroy@?$allocator@VCDocUndoSet@@@std@@QAEXPAVCDocUndoSet@@@Z 0046e920 f i TinyCadDoc.obj
 0001:0006d940       ??0?$vector@PAVCTinyCadSymbolDoc@@V?$allocator@PAVCTinyCadSymbolDoc@@@std@@@std@@QAE@XZ 0046e940 f i TinyCadMultiSymbolDoc.obj
 0001:0006d940       ??0?$vector@VCNetListNode@@V?$allocator@VCNetListNode@@@std@@@std@@QAE@XZ 0046e940 f i NetList.obj
 0001:0006d940       ??0?$vector@V?$set@V?$CStringT@_WV?$StrTraitMFC@_WV?$ChTraitsCRT@_W@ATL@@@@@ATL@@U?$less@V?$CStringT@_WV?$StrTraitMFC@_WV?$ChTraitsCRT@_W@ATL@@@@@ATL@@@std@@V?$allocator@V?$CStringT@_WV?$StrTraitMFC@_WV?$ChTraitsCRT@_W@ATL@@@@@ATL@@@4@@std@@V?$allocator@V?$set@V?$CStringT@_WV?$StrTraitMFC@_WV?$ChTraitsCRT@_W@ATL@@@@@ATL@@U?$less@V?$CStringT@_WV?$StrTraitMFC@_WV?$ChTraitsCRT@_W@ATL@@@@@ATL@@@std@@V?$allocator@V?$CStringT@_WV?$StrTraitMFC@_WV?$ChTraitsCRT@_W@ATL@@@@@ATL@@@4@@std@@@2@@std@@QAE@XZ 0046e940 f i NetList.obj
 0001:0006d940       ??0?$vector@V?$CStringT@_WV?$StrTraitMFC@_WV?$ChTraitsCRT@_W@ATL@@@@@ATL@@V?$allocator@V?$CStringT@_WV?$StrTraitMFC@_WV?$ChTraitsCRT@_W@ATL@@@@@ATL@@@std@@@std@@QAE@XZ 0046e940 f i BOMGenerator.obj
 0001:0006d940       ??0?$vector@VCNetList@@V?$allocator@VCNetList@@@std@@@std@@QAE@XZ 0046e940 f i NetList.obj
 0001:0006d940       ??0?$vector@V?$list@PAVCDrawingObject@@V?$allocator@PAVCDrawingObject@@@std@@@std@@V?$allocator@V?$list@PAVCDrawingObject@@V?$allocator@PAVCDrawingObject@@@std@@@std@@@2@@std@@QAE@XZ 0046e940 f i Symbol.obj
 0001:0006d940       ??0?$vector@VCArcPoint@@V?$allocator@VCArcPoint@@@std@@@std@@QAE@XZ 0046e940 f i Polygon.obj
 0001:0006d940       ??0?$vector@V?$map@HHU?$less@H@std@@V?$allocator@U?$pair@$$CBHH@std@@@2@@std@@V?$allocator@V?$map@HHU?$less@H@std@@V?$allocator@U?$pair@$$CBHH@std@@@2@@std@@@2@@std@@QAE@XZ 0046e940 f i NetList.obj
 0001:0006d940       ??0?$vector@VCLibraryStoreSymbol@@V?$allocator@VCLibraryStoreSymbol@@@std@@@std@@QAE@XZ 0046e940 f i DlgUpdateBox.obj
 0001:0006d940       ??0?$vector@VCDPoint@@V?$allocator@VCDPoint@@@std@@@std@@QAE@XZ 0046e940 f i Polygon.obj
 0001:0006d940       ??0?$vector@VCDocUndoSet@@V?$allocator@VCDocUndoSet@@@std@@@std@@QAE@XZ 0046e940 f i TinyCadDoc.obj
 0001:0006d940       ??0?$vector@PAVCImportFile@@V?$allocator@PAVCImportFile@@@std@@@std@@QAE@XZ 0046e940 f i BOMGenerator.obj
 0001:0006d940       ??0?$vector@VCSymbolField@@V?$allocator@VCSymbolField@@@std@@@std@@QAE@XZ 0046e940 f i DrawMethod.obj
 0001:0006d940       ??0?$vector@UCField@CDrawMethod@@V?$allocator@UCField@CDrawMethod@@@std@@@std@@QAE@XZ 0046e940 f i DrawMethod.obj
 0001:0006d940       ??0?$vector@PAVCTinyCadDoc@@V?$allocator@PAVCTinyCadDoc@@@std@@@std@@QAE@XZ 0046e940 f i TinyCadMultiDoc.obj
 0001:0006d9a0       ?_Erase@?$_Tree@V?$_Tmap_traits@VCDesignFileSymbolFilter@@V?$list@PAVCDrawingObject@@V?$allocator@PAVCDrawingObject@@@std@@@std@@U?$less@VCDesignFileSymbolFilter@@@3@V?$allocator@U?$pair@$$CBVCDesignFileSymbolFilter@@V?$list@PAVCDrawingObject@@V?$allocator@PAVCDrawingObject@@@std@@@std@@@std@@@3@$0A@@std@@@std@@IAEXPAU_Node@?$_Tree_nod@V?$_Tmap_traits@VCDesignFileSymbolFilter@@V?$list@PAVCDrawingObject@@V?$allocator@PAVCDrawingObject@@@std@@@std@@U?$less@VCDesignFileSymbolFilter@@@3@V?$allocator@U?$pair@$$CBVCDesignFileSymbolFilter@@V?$list@PAVCDrawingObject@@V?$allocator@PAVCDrawingObject@@@std@@@std@@@std@@@3@$0A@@std@@@2@@Z 0046e9a0 f i Symbol.obj
 0001:0006da20       ??0CSymbolRecord@@QAE@XZ   0046ea20 f   Symbol.obj
 0001:0006db00       ??0CLibraryStoreSymbol@@QAE@XZ 0046eb00 f   Symbol.obj
 0001:0006db20       ?erase@?$_Tree@V?$_Tmap_traits@VCDesignFileSymbolFilter@@V?$list@PAVCDrawingObject@@V?$allocator@PAVCDrawingObject@@@std@@@std@@U?$less@VCDesignFileSymbolFilter@@@3@V?$allocator@U?$pair@$$CBVCDesignFileSymbolFilter@@V?$list@PAVCDrawingObject@@V?$allocator@PAVCDrawingObject@@@std@@@std@@@std@@@3@$0A@@std@@@std@@QAE?AViterator@12@Vconst_iterator@12@@Z 0046eb20 f i Symbol.obj
 0001:0006de00       ??0?$list@PAVCDrawingObject@@V?$allocator@PAVCDrawingObject@@@std@@@std@@QAE@ABV01@@Z 0046ee00 f i Symbol.obj
 0001:0006deb0       ?erase@?$_Tree@V?$_Tmap_traits@VCDesignFileSymbolFilter@@V?$list@PAVCDrawingObject@@V?$allocator@PAVCDrawingObject@@@std@@@std@@U?$less@VCDesignFileSymbolFilter@@@3@V?$allocator@U?$pair@$$CBVCDesignFileSymbolFilter@@V?$list@PAVCDrawingObject@@V?$allocator@PAVCDrawingObject@@@std@@@std@@@std@@@3@$0A@@std@@@std@@QAE?AViterator@12@Vconst_iterator@12@0@Z 0046eeb0 f i Symbol.obj
 0001:0006df90       ??$_Fill@PAV?$list@PAVCDrawingObject@@V?$allocator@PAVCDrawingObject@@@std@@@std@@V12@@std@@YAXPAV?$list@PAVCDrawingObject@@V?$allocator@PAVCDrawingObject@@@std@@@0@0ABV10@@Z 0046ef90 f i Symbol.obj
 0001:0006dfd0       ??$_Copy_opt@PAV?$list@PAVCDrawingObject@@V?$allocator@PAVCDrawingObject@@@std@@@std@@PAV12@Uforward_iterator_tag@2@@std@@YAPAV?$list@PAVCDrawingObject@@V?$allocator@PAVCDrawingObject@@@std@@@0@PAV10@00Uforward_iterator_tag@0@U_Nonscalar_ptr_iterator_tag@0@U_Range_checked_iterator_tag@0@@Z 0046efd0 f i Symbol.obj
 0001:0006e020       ??1?$vector@V?$list@PAVCDrawingObject@@V?$allocator@PAVCDrawingObject@@@std@@@std@@V?$allocator@V?$list@PAVCDrawingObject@@V?$allocator@PAVCDrawingObject@@@std@@@std@@@2@@std@@QAE@XZ 0046f020 f i Symbol.obj
 0001:0006e020       ??1?$vector@VCDocUndoSet@@V?$allocator@VCDocUndoSet@@@std@@@std@@QAE@XZ 0046f020 f i TinyCadDoc.obj
 0001:0006e070       ?_Buynode@?$_Tree@V?$_Tmap_traits@VCDesignFileSymbolFilter@@V?$list@PAVCDrawingObject@@V?$allocator@PAVCDrawingObject@@@std@@@std@@U?$less@VCDesignFileSymbolFilter@@@3@V?$allocator@U?$pair@$$CBVCDesignFileSymbolFilter@@V?$list@PAVCDrawingObject@@V?$allocator@PAVCDrawingObject@@@std@@@std@@@std@@@3@$0A@@std@@@std@@IAEPAU_Node@?$_Tree_nod@V?$_Tmap_traits@VCDesignFileSymbolFilter@@V?$list@PAVCDrawingObject@@V?$allocator@PAVCDrawingObject@@@std@@@std@@U?$less@VCDesignFileSymbolFilter@@@3@V?$allocator@U?$pair@$$CBVCDesignFileSymbolFilter@@V?$list@PAVCDrawingObject@@V?$allocator@PAVCDrawingObject@@@std@@@std@@@std@@@3@$0A@@std@@@2@PAU342@00ABU?$pair@$$CBVCDesignFileSymbolFilter@@V?$list@PAVCDrawingObject@@V?$allocator@PAVCDrawingObject@@@std@@@std@@@2@D@Z 0046f070 f i Symbol.obj
 0001:0006e120       ??$_Copy_opt@PAV?$list@PAVCDrawingObject@@V?$allocator@PAVCDrawingObject@@@std@@@std@@PAV12@@std@@YAPAV?$list@PAVCDrawingObject@@V?$allocator@PAVCDrawingObject@@@std@@@0@PAV10@00Urandom_access_iterator_tag@0@U_Nonscalar_ptr_iterator_tag@0@U_Range_checked_iterator_tag@0@@Z 0046f120 f i Symbol.obj
 0001:0006e180       ??$_Uninit_fill_n@PAV?$list@PAVCDrawingObject@@V?$allocator@PAVCDrawingObject@@@std@@@std@@IV12@V?$allocator@V?$list@PAVCDrawingObject@@V?$allocator@PAVCDrawingObject@@@std@@@std@@@2@@std@@YAXPAV?$list@PAVCDrawingObject@@V?$allocator@PAVCDrawingObject@@@std@@@0@IABV10@AAV?$allocator@V?$list@PAVCDrawingObject@@V?$allocator@PAVCDrawingObject@@@std@@@std@@@0@U_Nonscalar_ptr_iterator_tag@0@U_Range_checked_iterator_tag@0@@Z 0046f180 f i Symbol.obj
 0001:0006e220       ?LoadXML@CSymbolRecord@@QAEXAAVCXMLReader@@@Z 0046f220 f   Symbol.obj
 0001:0006e490       ??1?$_Tree@V?$_Tmap_traits@VCDesignFileSymbolFilter@@V?$list@PAVCDrawingObject@@V?$allocator@PAVCDrawingObject@@@std@@@std@@U?$less@VCDesignFileSymbolFilter@@@3@V?$allocator@U?$pair@$$CBVCDesignFileSymbolFilter@@V?$list@PAVCDrawingObject@@V?$allocator@PAVCDrawingObject@@@std@@@std@@@std@@@3@$0A@@std@@@std@@QAE@XZ 0046f490 f i Symbol.obj
 0001:0006e510       ?_Insert@?$_Tree@V?$_Tmap_traits@VCDesignFileSymbolFilter@@V?$list@PAVCDrawingObject@@V?$allocator@PAVCDrawingObject@@@std@@@std@@U?$less@VCDesignFileSymbolFilter@@@3@V?$allocator@U?$pair@$$CBVCDesignFileSymbolFilter@@V?$list@PAVCDrawingObject@@V?$allocator@PAVCDrawingObject@@@std@@@std@@@std@@@3@$0A@@std@@@std@@IAE?AViterator@12@_NPAU_Node@?$_Tree_nod@V?$_Tmap_traits@VCDesignFileSymbolFilter@@V?$list@PAVCDrawingObject@@V?$allocator@PAVCDrawingObject@@@std@@@std@@U?$less@VCDesignFileSymbolFilter@@@3@V?$allocator@U?$pair@$$CBVCDesignFileSymbolFilter@@V?$list@PAVCDrawingObject@@V?$allocator@PAVCDrawingObject@@@std@@@std@@@std@@@3@$0A@@std@@@2@ABU?$pair@$$CBVCDesignFileSymbolFilter@@V?$list@PAVCDrawingObject@@V?$allocator@PAVCDrawingObject@@@std@@@std@@@2@@Z 0046f510 f i Symbol.obj
 0001:0006e710       ??$_Uninit_move@PAV?$list@PAVCDrawingObject@@V?$allocator@PAVCDrawingObject@@@std@@@std@@PAV12@V?$allocator@V?$list@PAVCDrawingObject@@V?$allocator@PAVCDrawingObject@@@std@@@std@@@2@@std@@YAPAV?$list@PAVCDrawingObject@@V?$allocator@PAVCDrawingObject@@@std@@@0@PAV10@00AAV?$allocator@V?$list@PAVCDrawingObject@@V?$allocator@PAVCDrawingObject@@@std@@@std@@@0@U_Swap_move_tag@0@U_Range_checked_iterator_tag@0@@Z 0046f710 f i Symbol.obj
 0001:0006e850       ??$_Move_backward_opt@PAV?$list@PAVCDrawingObject@@V?$allocator@PAVCDrawingObject@@@std@@@std@@PAV12@Uforward_iterator_tag@2@@std@@YAPAV?$list@PAVCDrawingObject@@V?$allocator@PAVCDrawingObject@@@std@@@0@PAV10@00Uforward_iterator_tag@0@U_Swap_move_tag@0@U_Range_checked_iterator_tag@0@@Z 0046f850 f i Symbol.obj
 0001:0006e8d0       ??1?$map@VCDesignFileSymbolFilter@@V?$list@PAVCDrawingObject@@V?$allocator@PAVCDrawingObject@@@std@@@std@@U?$less@VCDesignFileSymbolFilter@@@3@V?$allocator@U?$pair@$$CBVCDesignFileSymbolFilter@@V?$list@PAVCDrawingObject@@V?$allocator@PAVCDrawingObject@@@std@@@std@@@std@@@3@@std@@QAE@XZ 0046f8d0 f i Symbol.obj
 0001:0006e8e0       ??1CDesignFileSymbol@@UAE@XZ 0046f8e0 f   Symbol.obj
 0001:0006eb50       ?insert@?$_Tree@V?$_Tmap_traits@VCDesignFileSymbolFilter@@V?$list@PAVCDrawingObject@@V?$allocator@PAVCDrawingObject@@@std@@@std@@U?$less@VCDesignFileSymbolFilter@@@3@V?$allocator@U?$pair@$$CBVCDesignFileSymbolFilter@@V?$list@PAVCDrawingObject@@V?$allocator@PAVCDrawingObject@@@std@@@std@@@std@@@3@$0A@@std@@@std@@QAE?AU?$pair@Viterator@?$_Tree@V?$_Tmap_traits@VCDesignFileSymbolFilter@@V?$list@PAVCDrawingObject@@V?$allocator@PAVCDrawingObject@@@std@@@std@@U?$less@VCDesignFileSymbolFilter@@@3@V?$allocator@U?$pair@$$CBVCDesignFileSymbolFilter@@V?$list@PAVCDrawingObject@@V?$allocator@PAVCDrawingObject@@@std@@@std@@@std@@@3@$0A@@std@@@std@@_N@2@ABU?$pair@$$CBVCDesignFileSymbolFilter@@V?$list@PAVCDrawingObject@@V?$allocator@PAVCDrawingObject@@@std@@@std@@@2@@Z 0046fb50 f i Symbol.obj
 0001:0006ec50       ?insert@?$_Tree@V?$_Tmap_traits@VCDesignFileSymbolFilter@@V?$list@PAVCDrawingObject@@V?$allocator@PAVCDrawingObject@@@std@@@std@@U?$less@VCDesignFileSymbolFilter@@@3@V?$allocator@U?$pair@$$CBVCDesignFileSymbolFilter@@V?$list@PAVCDrawingObject@@V?$allocator@PAVCDrawingObject@@@std@@@std@@@std@@@3@$0A@@std@@@std@@QAE?AViterator@12@Vconst_iterator@12@ABU?$pair@$$CBVCDesignFileSymbolFilter@@V?$list@PAVCDrawingObject@@V?$allocator@PAVCDrawingObject@@@std@@@std@@@2@@Z 0046fc50 f i Symbol.obj
 0001:0006ee80       ?erase@?$vector@V?$list@PAVCDrawingObject@@V?$allocator@PAVCDrawingObject@@@std@@@std@@V?$allocator@V?$list@PAVCDrawingObject@@V?$allocator@PAVCDrawingObject@@@std@@@std@@@2@@std@@QAE?AV?$_Vector_iterator@V?$list@PAVCDrawingObject@@V?$allocator@PAVCDrawingObject@@@std@@@std@@V?$allocator@V?$list@PAVCDrawingObject@@V?$allocator@PAVCDrawingObject@@@std@@@std@@@2@@2@V?$_Vector_const_iterator@V?$list@PAVCDrawingObject@@V?$allocator@PAVCDrawingObject@@@std@@@std@@V?$allocator@V?$list@PAVCDrawingObject@@V?$allocator@PAVCDrawingObject@@@std@@@std@@@2@@2@0@Z 0046fe80 f i Symbol.obj
 0001:0006ef30       ?_Ufill@?$vector@V?$list@PAVCDrawingObject@@V?$allocator@PAVCDrawingObject@@@std@@@std@@V?$allocator@V?$list@PAVCDrawingObject@@V?$allocator@PAVCDrawingObject@@@std@@@std@@@2@@std@@IAEPAV?$list@PAVCDrawingObject@@V?$allocator@PAVCDrawingObject@@@std@@@2@PAV32@IABV32@@Z 0046ff30 f i Symbol.obj
 0001:0006ef70       ??$_Move_backward_opt@PAV?$list@PAVCDrawingObject@@V?$allocator@PAVCDrawingObject@@@std@@@std@@PAV12@@std@@YAPAV?$list@PAVCDrawingObject@@V?$allocator@PAVCDrawingObject@@@std@@@0@PAV10@00Urandom_access_iterator_tag@0@U_Swap_move_tag@0@U_Range_checked_iterator_tag@0@@Z 0046ff70 f i Symbol.obj
 0001:0006efd0       ??0CDesignFileSymbol@@QAE@XZ 0046ffd0 f   Symbol.obj
 0001:0006f060       ??_ECDesignFileSymbol@@UAEPAXI@Z 00470060 f i Symbol.obj
 0001:0006f060       ??_GCDesignFileSymbol@@UAEPAXI@Z 00470060 f i Symbol.obj
 0001:0006f080       ??A?$map@VCDesignFileSymbolFilter@@V?$list@PAVCDrawingObject@@V?$allocator@PAVCDrawingObject@@@std@@@std@@U?$less@VCDesignFileSymbolFilter@@@3@V?$allocator@U?$pair@$$CBVCDesignFileSymbolFilter@@V?$list@PAVCDrawingObject@@V?$allocator@PAVCDrawingObject@@@std@@@std@@@std@@@3@@std@@QAEAAV?$list@PAVCDrawingObject@@V?$allocator@PAVCDrawingObject@@@std@@@1@ABVCDesignFileSymbolFilter@@@Z 00470080 f i Symbol.obj
 0001:0006f1b0       ??$_Umove@PAV?$list@PAVCDrawingObject@@V?$allocator@PAVCDrawingObject@@@std@@@std@@@?$vector@V?$list@PAVCDrawingObject@@V?$allocator@PAVCDrawingObject@@@std@@@std@@V?$allocator@V?$list@PAVCDrawingObject@@V?$allocator@PAVCDrawingObject@@@std@@@std@@@2@@std@@IAEPAV?$list@PAVCDrawingObject@@V?$allocator@PAVCDrawingObject@@@std@@@1@PAV21@00@Z 004701b0 f i Symbol.obj
 0001:0006f1e0       ??$_Unchecked_move_backward@PAV?$list@PAVCDrawingObject@@V?$allocator@PAVCDrawingObject@@@std@@@std@@PAV12@@stdext@@YAPAV?$list@PAVCDrawingObject@@V?$allocator@PAVCDrawingObject@@@std@@@std@@PAV12@00@Z 004701e0 f i Symbol.obj
 0001:0006f210       ?CreateSymbol@CDesignFileSymbol@@AAEXPAVCTinyCadDoc@@AAV?$list@PAVCDrawingObject@@V?$allocator@PAVCDrawingObject@@@std@@@std@@ABVCDesignFileSymbolFilter@@@Z 00470210 f   Symbol.obj
 0001:0006f7a0       ?GetMethod@CDesignFileSymbol@@QAEHH_NAAV?$list@PAVCDrawingObject@@V?$allocator@PAVCDrawingObject@@@std@@@std@@@Z 004707a0 f   Symbol.obj
 0001:0006f8d0       ?GetTr@CDesignFileSymbol@@QAE?AVCDPoint@@H_N@Z 004708d0 f   Symbol.obj
 0001:0006fae0       ?_Insert_n@?$vector@V?$list@PAVCDrawingObject@@V?$allocator@PAVCDrawingObject@@@std@@@std@@V?$allocator@V?$list@PAVCDrawingObject@@V?$allocator@PAVCDrawingObject@@@std@@@std@@@2@@std@@IAEXV?$_Vector_const_iterator@V?$list@PAVCDrawingObject@@V?$allocator@PAVCDrawingObject@@@std@@@std@@V?$allocator@V?$list@PAVCDrawingObject@@V?$allocator@PAVCDrawingObject@@@std@@@std@@@2@@2@IABV?$list@PAVCDrawingObject@@V?$allocator@PAVCDrawingObject@@@std@@@2@@Z 00470ae0 f i Symbol.obj
 0001:0006fe00       ?resize@?$vector@V?$list@PAVCDrawingObject@@V?$allocator@PAVCDrawingObject@@@std@@@std@@V?$allocator@V?$list@PAVCDrawingObject@@V?$allocator@PAVCDrawingObject@@@std@@@std@@@2@@std@@QAEXIV?$list@PAVCDrawingObject@@V?$allocator@PAVCDrawingObject@@@std@@@2@@Z 00470e00 f i Symbol.obj
 0001:0006ff10       ??0CLibraryStoreNameSet@@QAE@PAVCLibraryStore@@@Z 00470f10 f   Symbol.obj
 0001:0006ff40       ??1CLibraryStoreNameSet@@UAE@XZ 00470f40 f   Symbol.obj
 0001:0006ff50       ?resize@?$vector@V?$list@PAVCDrawingObject@@V?$allocator@PAVCDrawingObject@@@std@@@std@@V?$allocator@V?$list@PAVCDrawingObject@@V?$allocator@PAVCDrawingObject@@@std@@@std@@@2@@std@@QAEXI@Z 00470f50 f i Symbol.obj
 0001:0006ff80       ?CreateNoSymbol@CDesignFileSymbol@@QAEXPAVCTinyCadDoc@@@Z 00470f80 f   Symbol.obj
 0001:000700a0       ?LoadXML@CDesignFileSymbol@@QAEXPAVCTinyCadDoc@@AAVCXMLReader@@@Z 004710a0 f   Symbol.obj
 0001:000705a0       ?LoadSymbol@CDesignFileSymbol@@QAEHPAVCTinyCadDoc@@AAVCStream@@@Z 004715a0 f   Symbol.obj
 0001:00070950       ?GetDesignSymbol@CLibraryStoreNameSet@@QAEPAVCDesignFileSymbol@@PAVCTinyCadDoc@@H@Z 00471950 f   Symbol.obj
 0001:00070aa0       ?Blank@CLibraryStoreNameSet@@QAEXXZ 00471aa0 f   Symbol.obj
 0001:00070b90       ?SetRecords@CLibraryStoreNameSet@@QAEXAAV?$vector@VCLibraryStoreSymbol@@V?$allocator@VCLibraryStoreSymbol@@@std@@@std@@@Z 00471b90 f   Symbol.obj
 0001:00070ba0       ?PushBackRecord@CLibraryStoreNameSet@@QAEXAAVCLibraryStoreSymbol@@@Z 00471ba0 f   Symbol.obj
 0001:00070be0       ?GetDesignSymbol@CLibraryStoreSymbol@@QAEPAVCDesignFileSymbol@@PAVCTinyCadDoc@@@Z 00471be0 f   Symbol.obj
 0001:00070c00       ?Load@CDesignFileSymbol@@QAEXPAVCTinyCadDoc@@AAVCStream@@@Z 00471c00 f   Symbol.obj
 0001:00070e20       ?LoadXML@CLibraryStoreNameSet@@QAEXPAVCTinyCadMultiSymbolDoc@@AAVCXMLReader@@@Z 00471e20 f   Symbol.obj
 0001:00071090       ?Load@CLibraryStoreNameSet@@QAEXAAVCStream@@@Z 00472090 f   Symbol.obj
 0001:00071280       ?OldLoad3@CLibraryStoreNameSet@@QAEXAAVCStream@@@Z 00472280 f   Symbol.obj
 0001:000713a0       ?OldLoad1@CLibraryStoreNameSet@@QAEXAAVCStream@@@Z 004723a0 f   Symbol.obj
 0001:00071430       ?OldLoad2@CLibraryStoreNameSet@@QAEXAAVCStream@@@Z 00472430 f   Symbol.obj
 0001:000714c0       ?GetRuntimeClass@CTextEditDoc@@UBEPAUCRuntimeClass@@XZ 004724c0 f   TextEditDoc.obj
 0001:000714d0       ?OnNewDocument@CMultiSheetDoc@@MAEHXZ 004724d0 f   MultiSheetDoc.obj
 0001:000714d0       ?OnNewDocument@CLibraryDoc@@MAEHXZ 004724d0 f   LibraryDoc.obj
 0001:000714d0       ?OnNewDocument@CTextEditDoc@@MAEHXZ 004724d0 f   TextEditDoc.obj
 0001:000714e0       ?CreateObject@CTextEditDoc@@SGPAVCObject@@XZ 004724e0 f   TextEditDoc.obj
 0001:00071580       ??_ECTextEditDoc@@UAEPAXI@Z 00472580 f i TextEditDoc.obj
 0001:00071580       ??_GCTextEditDoc@@UAEPAXI@Z 00472580 f i TextEditDoc.obj
 0001:00071610       ?LoadFile@CTextEditDoc@@QAEHPB_W_N@Z 00472610 f   TextEditDoc.obj
 0001:00071890       ?GetRuntimeClass@CTextEditView@@UBEPAUCRuntimeClass@@XZ 00472890 f   TextEditView.obj
 0001:000718a0       ?OnEndPrinting@CLibraryView@@MAEXPAVCDC@@PAUCPrintInfo@@@Z 004728a0 f   LibraryView.obj
 0001:000718a0       ?OnEndPrinting@CTextEditView@@MAEXPAVCDC@@PAUCPrintInfo@@@Z 004728a0 f   TextEditView.obj
 0001:000718b0       ?OnInitialUpdate@CTextEditView@@UAEXXZ 004728b0 f   TextEditView.obj
 0001:00071960       ?OnSize@CTextEditView@@QAEXIHH@Z 00472960 f   TextEditView.obj
 0001:00071990       ?OnActivateView@CTextEditView@@MAEXHPAVCView@@0@Z 00472990 f   TextEditView.obj
 0001:000719d0       ?GetMessageMap@CTextEditView@@MBEPBUAFX_MSGMAP@@XZ 004729d0 f   TextEditView.obj
 0001:000719e0       ??0CTextEditView@@IAE@XZ   004729e0 f   TextEditView.obj
 0001:00071a80       ??1CTextEditView@@MAE@XZ   00472a80 f   TextEditView.obj
 0001:00071b20       ?CreateObject@CTextEditView@@SGPAVCObject@@XZ 00472b20 f   TextEditView.obj
 0001:00071b90       ??_GCTextEditView@@MAEPAXI@Z 00472b90 f i TextEditView.obj
 0001:00071b90       ??_ECTextEditView@@MAEPAXI@Z 00472b90 f i TextEditView.obj
 0001:00071bb0       ?printLine@CTextEditView@@IAEXPAVCDC@@PB_W_N@Z 00472bb0 f   TextEditView.obj
 0001:00071cc0       ?printPage@CTextEditView@@IAEXPAVCDC@@_N@Z 00472cc0 f   TextEditView.obj
 0001:00071fd0       ?OnBeginPrinting@CTextEditView@@MAEXPAVCDC@@PAUCPrintInfo@@@Z 00472fd0 f   TextEditView.obj
 0001:00072050       ?OnPrepareDC@CTextEditView@@UAEXPAVCDC@@PAUCPrintInfo@@@Z 00473050 f   TextEditView.obj
 0001:000720b0       ?OnDraw@CTextEditView@@UAEXPAVCDC@@@Z 004730b0 f   TextEditView.obj
 0001:000720d0       ??1CTinyCadApp@@UAE@XZ     004730d0 f   TinyCad.obj
 0001:00072130       ?IsWinNT@CTinyCadApp@@SA_NXZ 00473130 f   TinyCad.obj
 0001:00072180       ?IsLibInUse@CTinyCadApp@@SA_NPAVCLibraryStore@@@Z 00473180 f   TinyCad.obj
 0001:00072220       ?EditTextFile@CTinyCadApp@@SAXPB_W@Z 00473220 f   TinyCad.obj
 0001:00072280       ?SaveAll@CTinyCadApp@@SAXXZ 00473280 f   TinyCad.obj
 0001:000722c0       ?OnIdle@CTinyCadApp@@UAEHJ@Z 004732c0 f   TinyCad.obj
 0001:000722e0       ?OnHelpHelp@CTinyCadApp@@QAEXXZ 004732e0 f   TinyCad.obj
 0001:000722f0       ??_ECTinyCadApp@@UAEPAXI@Z 004732f0 f i TinyCad.obj
 0001:000722f0       ??_GCTinyCadApp@@UAEPAXI@Z 004732f0 f i TinyCad.obj
 0001:00072310       ?EditSymbol@CTinyCadApp@@SAXPAVCLibraryStore@@AAVCLibraryStoreNameSet@@@Z 00473310 f   TinyCad.obj
 0001:000723a0       ?EditDesign@CTinyCadApp@@SAXPB_W@Z 004733a0 f   TinyCad.obj
 0001:000723c0       ?EditLibrary@CTinyCadApp@@SAXPAVCLibraryStore@@@Z 004733c0 f   TinyCad.obj
 0001:00072490       ?ResetAllSymbols@CTinyCadApp@@SAXXZ 00473490 f   TinyCad.obj
 0001:000724f0       ?OnLibLib@CTinyCadApp@@QAEXXZ 004734f0 f   TinyCad.obj
 0001:00072580       ?OnHelpGototinycadwebsite@CTinyCadApp@@QAEXXZ 00473580 f   TinyCad.obj
 0001:000725c0       ?OnAppAbout@CTinyCadApp@@QAEXXZ 004735c0 f   TinyCad.obj
 0001:00072630       ?ChooseColorW@CTinyCadApp@@SAHAAK@Z 00473630 f   TinyCad.obj
 0001:000726b0       ?SetLockOutSymbolRedraw@CTinyCadApp@@SAX_N@Z 004736b0 f   TinyCad.obj
 0001:000726d0       ?GetMessageMap@CTinyCadApp@@MBEPBUAFX_MSGMAP@@XZ 004736d0 f   TinyCad.obj
 0001:000726e0       ?GetVersion@CTinyCadApp@@SA?AV?$CStringT@_WV?$StrTraitMFC@_WV?$ChTraitsCRT@_W@ATL@@@@@ATL@@XZ 004736e0 f   TinyCad.obj
 0001:00072810       ?GetName@CTinyCadApp@@SA?AV?$CStringT@_WV?$StrTraitMFC@_WV?$ChTraitsCRT@_W@ATL@@@@@ATL@@XZ 00473810 f   TinyCad.obj
 0001:00072830       ?ReadRegistry@CTinyCadApp@@AAEXXZ 00473830 f   TinyCad.obj
 0001:00072a40       ?GetMainDir@CTinyCadApp@@SA?AV?$CStringT@_WV?$StrTraitMFC@_WV?$ChTraitsCRT@_W@ATL@@@@@ATL@@XZ 00473a40 f   TinyCad.obj
 0001:00072c00       ?InitInstance@CTinyCadApp@@EAEHXZ 00473c00 f   TinyCad.obj
 0001:00072f60       ?BeginNewChangeSet@CTinyCadDoc@@QAEXXZ 00473f60 f   TinyCadDoc.obj
 0001:00072f70       ?ForceSetCursor@CTinyCadDoc@@QAEXXZ 00473f70 f   TinyCadDoc.obj
 0001:00072f80       ?Invalidate@CTinyCadDoc@@QAEXXZ 00473f80 f   TinyCadDoc.obj
 0001:00072fa0       ?SelectObject@CTinyCadDoc@@QAEXPAVCDrawingObject@@@Z 00473fa0 f   TinyCadDoc.obj
 0001:00073000       ?SetSelectable@CTinyCadDoc@@QAEXPAVCDrawingObject@@@Z 00474000 f   TinyCadDoc.obj
 0001:00073040       ?GetSelectable@CTinyCadDoc@@QAEPAVCDrawingObject@@XZ 00474040 f   TinyCadDoc.obj
 0001:00073050       ?GetDetails@CTinyCadDoc@@QAEAAVCDetails@@XZ 00474050 f   TinyCadDoc.obj
 0001:00073060       ?GetOptions@CTinyCadDoc@@QAEPAVCOption@@XZ 00474060 f   TinyCadDoc.obj
 0001:00073070       ?SetModifiedFlag@CTinyCadDoc@@QAEXH@Z 00474070 f   TinyCadDoc.obj
 0001:00073090       ?IsHierarchicalSymbol@CTinyCadDoc@@UBE_NXZ 00474090 f   TinyCadDoc.obj
 0001:000730a0       ?Rectangle@CDC@@QAEHHHHH@Z 004740a0 f i TinyCadDoc.obj
 0001:000730d0       ?IsSelected@CTinyCadDoc@@QBEHXZ 004740d0 f   TinyCadDoc.obj
 0001:000730e0       ?IsSingleItemSelected@CTinyCadDoc@@QBEHXZ 004740e0 f   TinyCadDoc.obj
 0001:000730f0       ??_Edoc_invalidrect@@UAEPAXI@Z 004740f0 f i TinyCadDoc.obj
 0001:000730f0       ??_Gdoc_invalidrect@@UAEPAXI@Z 004740f0 f i TinyCadDoc.obj
 0001:00073110       ?SelectSymbol@CTinyCadDoc@@UAEXPAVCLibraryStoreSymbol@@@Z 00474110 f   TinyCadDoc.obj
 0001:000731e0       ??F?$_Const_iterator@$00@?$list@PAVCDrawingObject@@V?$allocator@PAVCDrawingObject@@@std@@@std@@QAEAAV012@XZ 004741e0 f i DrawHierarchicalSymbol.obj
 0001:000731e0       ??F?$_Const_iterator@$00@?$list@VCDocUndoAction@CDocUndoSet@@V?$allocator@VCDocUndoAction@CDocUndoSet@@@std@@@std@@QAEAAV012@XZ 004741e0 f i TinyCadDoc.obj
 0001:00073210       ?InvalidateRect@CTinyCadDoc@@QAEXVCDRect@@HHH@Z 00474210 f   TinyCadDoc.obj
 0001:000733c0       ?_Buynode@?$list@VCDocUndoAction@CDocUndoSet@@V?$allocator@VCDocUndoAction@CDocUndoSet@@@std@@@std@@IAEPAU_Node@?$_List_nod@VCDocUndoAction@CDocUndoSet@@V?$allocator@VCDocUndoAction@CDocUndoSet@@@std@@@2@XZ 004743c0 f i TinyCadDoc.obj
 0001:000733e0       ?_Buynode@?$list@VCDocUndoAction@CDocUndoSet@@V?$allocator@VCDocUndoAction@CDocUndoSet@@@std@@@std@@IAEPAU_Node@?$_List_nod@VCDocUndoAction@CDocUndoSet@@V?$allocator@VCDocUndoAction@CDocUndoSet@@@std@@@2@PAU342@0ABVCDocUndoAction@CDocUndoSet@@@Z 004743e0 f i TinyCadDoc.obj
 0001:00073430       ?_Tidy@?$list@PAVCLibraryStore@@V?$allocator@PAVCLibraryStore@@@std@@@std@@IAEXXZ 00474430 f i LibraryCollection.obj
 0001:00073430       ?_Tidy@?$list@VCDocUndoAction@CDocUndoSet@@V?$allocator@VCDocUndoAction@CDocUndoSet@@@std@@@std@@IAEXXZ 00474430 f i TinyCadDoc.obj
 0001:00073430       ?_Tidy@?$list@PAVCDrawingObject@@V?$allocator@PAVCDrawingObject@@@std@@@std@@IAEXXZ 00474430 f i DlgGetFindBox.obj
 0001:00073480       ?Display@CTinyCadDoc@@QAEXAAVCContext@@@Z 00474480 f   TinyCadDoc.obj
 0001:000734c0       ?GetAuthor@CDetails@@QBE?AV?$CStringT@_WV?$StrTraitMFC@_WV?$ChTraitsCRT@_W@ATL@@@@@ATL@@XZ 004744c0 f   Details.obj
 0001:000734c0       ?GetSheetName@CTinyCadDoc@@UBE?AV?$CStringT@_WV?$StrTraitMFC@_WV?$ChTraitsCRT@_W@ATL@@@@@ATL@@XZ 004744c0 f   TinyCadDoc.obj
 0001:000734f0       ?GetDrawingBegin@CTinyCadDoc@@QAE?AV?$_Iterator@$00@?$list@PAVCDrawingObject@@V?$allocator@PAVCDrawingObject@@@std@@@std@@XZ 004744f0 f   TinyCadDoc.obj
 0001:00073510       ?GetDrawingEnd@CTinyCadDoc@@QAE?AV?$_Iterator@$00@?$list@PAVCDrawingObject@@V?$allocator@PAVCDrawingObject@@@std@@@std@@XZ 00474510 f   TinyCadDoc.obj
 0001:00073530       ?IsInDrawing@CTinyCadDoc@@QAEHPAVCDrawingObject@@@Z 00474530 f   TinyCadDoc.obj
 0001:000735d0       ?ReplaceSymbol@CTinyCadDoc@@QAEXFF_N@Z 004745d0 f   TinyCadDoc.obj
 0001:00073680       ?find@?$_Tree@V?$_Tset_traits@PAVCDrawingObject@@U?$less@PAVCDrawingObject@@@std@@V?$allocator@PAVCDrawingObject@@@3@$0A@@std@@@std@@QBE?AVconst_iterator@12@ABQAVCDrawingObject@@@Z 00474680 f i TinyCadDoc.obj
 0001:00073680       ?find@?$_Tree@V?$_Tset_traits@PAVCDrawingObject@@U?$less@PAVCDrawingObject@@@std@@V?$allocator@PAVCDrawingObject@@@3@$0A@@std@@@std@@QAE?AViterator@12@ABQAVCDrawingObject@@@Z 00474680 f i DragUtils.obj
 0001:00073710       ?DeleteErrors@CTinyCadDoc@@QAEXXZ 00474710 f   TinyCadDoc.obj
 0001:00073840       ?GetSelectBegin@CTinyCadDoc@@QAE?AViterator@?$_Tree@V?$_Tset_traits@PAVCDrawingObject@@U?$less@PAVCDrawingObject@@@std@@V?$allocator@PAVCDrawingObject@@@3@$0A@@std@@@std@@XZ 00474840 f   TinyCadDoc.obj
 0001:00073860       ?GetSelectEnd@CTinyCadDoc@@QAE?AViterator@?$_Tree@V?$_Tset_traits@PAVCDrawingObject@@U?$less@PAVCDrawingObject@@@std@@V?$allocator@PAVCDrawingObject@@@3@$0A@@std@@@std@@XZ 00474860 f   TinyCadDoc.obj
 0001:00073880       ?IsSelected@CTinyCadDoc@@QBEHPAVCDrawingObject@@@Z 00474880 f   TinyCadDoc.obj
 0001:000738d0       ?GetSingleSelectedItem@CTinyCadDoc@@QAEPAVCDrawingObject@@XZ 004748d0 f   TinyCadDoc.obj
 0001:00073910       ?SelectMove@CTinyCadDoc@@QAEXVCDPoint@@@Z 00474910 f   TinyCadDoc.obj
 0001:00073a60       ??1?$list@PAVCDrawingObject@@V?$allocator@PAVCDrawingObject@@@std@@@std@@QAE@XZ 00474a60 f i DlgGetFindBox.obj
 0001:00073a60       ??1CDocUndoSet@@QAE@XZ     00474a60 f i TinyCadDoc.obj
 0001:00073a80       ??0?$list@VCDocUndoAction@CDocUndoSet@@V?$allocator@VCDocUndoAction@CDocUndoSet@@@std@@@std@@QAE@XZ 00474a80 f i TinyCadDoc.obj
 0001:00073af0       ?SavePNG@CTinyCadDoc@@QAEXPB_WAAVCDC@@H_N2@Z 00474af0 f   TinyCadDoc.obj
 0001:00074140       ?CreateMetafile@CTinyCadDoc@@QAEPAUHENHMETAFILE__@@AAVCDC@@PB_W_N@Z 00475140 f   TinyCadDoc.obj
 0001:00074780       ?Dup@CTinyCadDoc@@QAEPAVCDrawingObject@@PAV2@@Z 00475780 f   TinyCadDoc.obj
 0001:00074800       ?GetStickyPoint@CTinyCadDoc@@QAE?AVCDPoint@@V2@HHAAH1@Z 00475800 f   TinyCadDoc.obj
 0001:00074d40       ?SetSheetName@CTinyCadDoc@@UAEXPB_W@Z 00475d40 f   TinyCadDoc.obj
 0001:00074d80       ?_Incsize@?$list@VCDocUndoAction@CDocUndoSet@@V?$allocator@VCDocUndoAction@CDocUndoSet@@@std@@@std@@IAEXI@Z 00475d80 f i TinyCadDoc.obj
 0001:00074e20       ?GetTextExtent@CTinyCadDoc@@QAE?AVCDSize@@PB_WH@Z 00475e20 f   TinyCadDoc.obj
 0001:00074f20       ?formatFilename@CTinyCadDoc@@QAE?AV?$CStringT@_WV?$StrTraitMFC@_WV?$ChTraitsCRT@_W@ATL@@@@@ATL@@PB_W@Z 00475f20 f   TinyCadDoc.obj
 0001:00074f70       ?formatXMLFilename@CTinyCadDoc@@QAE?AV?$CStringT@_WV?$StrTraitMFC@_WV?$ChTraitsCRT@_W@ATL@@@@@ATL@@PB_W@Z 00475f70 f   TinyCadDoc.obj
 0001:00075020       ?unformatXMLFilename@CTinyCadDoc@@QAE?AV?$CStringT@_WV?$StrTraitMFC@_WV?$ChTraitsCRT@_W@ATL@@@@@ATL@@PB_W@Z 00476020 f   TinyCadDoc.obj
 0001:00075170       ?_Insert_n@?$list@VCDocUndoAction@CDocUndoSet@@V?$allocator@VCDocUndoAction@CDocUndoSet@@@std@@@std@@IAEXV?$_Const_iterator@$00@12@IABVCDocUndoAction@CDocUndoSet@@@Z 00476170 f i TinyCadDoc.obj
 0001:00075240       ??$_Insert@V?$_Const_iterator@$00@?$list@VCDocUndoAction@CDocUndoSet@@V?$allocator@VCDocUndoAction@CDocUndoSet@@@std@@@std@@@?$list@VCDocUndoAction@CDocUndoSet@@V?$allocator@VCDocUndoAction@CDocUndoSet@@@std@@@std@@QAEXV?$_Const_iterator@$00@01@00Uforward_iterator_tag@1@@Z 00476240 f i TinyCadDoc.obj
 0001:000753a0       ?Select@CTinyCadDoc@@QAEXPAVCDrawingObject@@@Z 004763a0 f   TinyCadDoc.obj
 0001:000753c0       ?UnSelect@CTinyCadDoc@@QAEXPAVCDrawingObject@@@Z 004763c0 f   TinyCadDoc.obj
 0001:00075420       ?UnSelect@CTinyCadDoc@@QAEXXZ 00476420 f   TinyCadDoc.obj
 0001:000754b0       ?resize@?$list@VCDocUndoAction@CDocUndoSet@@V?$allocator@VCDocUndoAction@CDocUndoSet@@@std@@@std@@QAEXIVCDocUndoAction@CDocUndoSet@@@Z 004764b0 f i TinyCadDoc.obj
 0001:00075530       ??$_Destroy_range@V?$allocator@V?$list@PAVCDrawingObject@@V?$allocator@PAVCDrawingObject@@@std@@@std@@@std@@@std@@YAXPAV?$list@PAVCDrawingObject@@V?$allocator@PAVCDrawingObject@@@std@@@0@0AAV?$allocator@V?$list@PAVCDrawingObject@@V?$allocator@PAVCDrawingObject@@@std@@@std@@@0@U_Nonscalar_ptr_iterator_tag@0@@Z 00476530 f i Symbol.obj
 0001:00075530       ??$_Destroy_range@V?$allocator@VCDocUndoSet@@@std@@@std@@YAXPAVCDocUndoSet@@0AAV?$allocator@VCDocUndoSet@@@0@U_Nonscalar_ptr_iterator_tag@0@@Z 00476530 f i TinyCadDoc.obj
 0001:00075590       ??$_Assign@V?$_Const_iterator@$00@?$list@VCDocUndoAction@CDocUndoSet@@V?$allocator@VCDocUndoAction@CDocUndoSet@@@std@@@std@@@?$list@VCDocUndoAction@CDocUndoSet@@V?$allocator@VCDocUndoAction@CDocUndoSet@@@std@@@std@@QAEXV?$_Const_iterator@$00@01@0Uinput_iterator_tag@1@@Z 00476590 f i TinyCadDoc.obj
 0001:000755f0       ?Undo@CTinyCadDoc@@QAEXXZ  004765f0 f   TinyCadDoc.obj
 0001:000758e0       ?Redo@CTinyCadDoc@@QAEXXZ  004768e0 f   TinyCadDoc.obj
 0001:00075c00       ?Select@CTinyCadDoc@@QAEXVCDPoint@@0@Z 00476c00 f   TinyCadDoc.obj
 0001:00075d90       ??0?$list@VCDocUndoAction@CDocUndoSet@@V?$allocator@VCDocUndoAction@CDocUndoSet@@@std@@@std@@QAE@ABV01@@Z 00476d90 f i TinyCadDoc.obj
 0001:00075e40       ?_Destroy@?$vector@V?$list@PAVCDrawingObject@@V?$allocator@PAVCDrawingObject@@@std@@@std@@V?$allocator@V?$list@PAVCDrawingObject@@V?$allocator@PAVCDrawingObject@@@std@@@std@@@2@@std@@IAEXPAV?$list@PAVCDrawingObject@@V?$allocator@PAVCDrawingObject@@@std@@@2@0@Z 00476e40 f i Symbol.obj
 0001:00075e40       ?_Destroy@?$vector@VCDocUndoSet@@V?$allocator@VCDocUndoSet@@@std@@@std@@IAEXPAVCDocUndoSet@@0@Z 00476e40 f i TinyCadDoc.obj
 0001:00075e60       ??$_Copy_opt@PAVCDocUndoSet@@PAV1@Uforward_iterator_tag@std@@@std@@YAPAVCDocUndoSet@@PAV1@00Uforward_iterator_tag@0@U_Nonscalar_ptr_iterator_tag@0@U_Range_checked_iterator_tag@0@@Z 00476e60 f i TinyCadDoc.obj
 0001:00075eb0       ??$_Copy_backward_opt@PAVCDocUndoSet@@PAV1@Uforward_iterator_tag@std@@@std@@YAPAVCDocUndoSet@@PAV1@00Uforward_iterator_tag@0@U_Nonscalar_ptr_iterator_tag@0@U_Range_checked_iterator_tag@0@@Z 00476eb0 f i TinyCadDoc.obj
 0001:00075f00       ??$_Uninit_copy@PAVCDocUndoSet@@PAV1@V?$allocator@VCDocUndoSet@@@std@@@std@@YAPAVCDocUndoSet@@PAV1@00AAV?$allocator@VCDocUndoSet@@@0@U_Nonscalar_ptr_iterator_tag@0@U_Range_checked_iterator_tag@0@@Z 00476f00 f i TinyCadDoc.obj
 0001:00075fb0       ??$_Copy_opt@PAVCDocUndoSet@@PAV1@@std@@YAPAVCDocUndoSet@@PAV1@00Urandom_access_iterator_tag@0@U_Nonscalar_ptr_iterator_tag@0@U_Range_checked_iterator_tag@0@@Z 00476fb0 f i TinyCadDoc.obj
 0001:00076010       ??$_Fill@PAVCDocUndoSet@@V1@@std@@YAXPAVCDocUndoSet@@0ABV1@@Z 00477010 f i TinyCadDoc.obj
 0001:00076050       ??$_Uninit_fill_n@PAVCDocUndoSet@@IV1@V?$allocator@VCDocUndoSet@@@std@@@std@@YAXPAVCDocUndoSet@@IABV1@AAV?$allocator@VCDocUndoSet@@@0@U_Nonscalar_ptr_iterator_tag@0@U_Range_checked_iterator_tag@0@@Z 00477050 f i TinyCadDoc.obj
 0001:000760f0       ??$_Copy_backward_opt@PAVCDocUndoSet@@PAV1@@std@@YAPAVCDocUndoSet@@PAV1@00Urandom_access_iterator_tag@0@U_Nonscalar_ptr_iterator_tag@0@U_Range_checked_iterator_tag@0@@Z 004770f0 f i TinyCadDoc.obj
 0001:00076160       ??0CTinyCadDoc@@QAE@PAVCMultiSheetDoc@@@Z 00477160 f   TinyCadDoc.obj
 0001:00076320       ?erase@?$vector@VCDocUndoSet@@V?$allocator@VCDocUndoSet@@@std@@@std@@QAE?AV?$_Vector_iterator@VCDocUndoSet@@V?$allocator@VCDocUndoSet@@@std@@@2@V?$_Vector_const_iterator@VCDocUndoSet@@V?$allocator@VCDocUndoSet@@@std@@@2@0@Z 00477320 f i TinyCadDoc.obj
 0001:000763d0       ?_Ufill@?$vector@VCDocUndoSet@@V?$allocator@VCDocUndoSet@@@std@@@std@@IAEPAVCDocUndoSet@@PAV3@IABV3@@Z 004773d0 f i TinyCadDoc.obj
 0001:00076410       ??$_Unchecked_move_backward@PAVCDocUndoSet@@PAV1@@stdext@@YAPAVCDocUndoSet@@PAV1@00@Z 00477410 f i TinyCadDoc.obj
 0001:00076440       ??$_Umove@PAVCDocUndoSet@@@?$vector@VCDocUndoSet@@V?$allocator@VCDocUndoSet@@@std@@@std@@IAEPAVCDocUndoSet@@PAV2@00@Z 00477440 f i TinyCadDoc.obj
 0001:00076470       ?_Insert_n@?$vector@VCDocUndoSet@@V?$allocator@VCDocUndoSet@@@std@@@std@@IAEXV?$_Vector_const_iterator@VCDocUndoSet@@V?$allocator@VCDocUndoSet@@@std@@@2@IABVCDocUndoSet@@@Z 00477470 f i TinyCadDoc.obj
 0001:00076790       ?resize@?$vector@VCDocUndoSet@@V?$allocator@VCDocUndoSet@@@std@@@std@@QAEXIVCDocUndoSet@@@Z 00477790 f i TinyCadDoc.obj
 0001:000768a0       ?FlushRedo@CTinyCadDoc@@QAEXXZ 004778a0 f   TinyCadDoc.obj
 0001:00076a20       ?AddUndoAction@CTinyCadDoc@@QAEXW4action@CDocUndoSet@@PAVCDrawingObject@@@Z 00477a20 f   TinyCadDoc.obj
 0001:00076bb0       ?MarkChangeForUndo@CTinyCadDoc@@QAEXPAVCDrawingObject@@@Z 00477bb0 f   TinyCadDoc.obj
 0001:00076bc0       ?MarkSelectChangeForUndo@CTinyCadDoc@@QAEXXZ 00477bc0 f   TinyCadDoc.obj
 0001:00076c40       ?BringToFront@CTinyCadDoc@@QAEXXZ 00477c40 f   TinyCadDoc.obj
 0001:00076f00       ?SendToBack@CTinyCadDoc@@QAEXXZ 00477f00 f   TinyCadDoc.obj
 0001:00077210       ?Delete@CTinyCadDoc@@QAEXV?$_Iterator@$00@?$list@PAVCDrawingObject@@V?$allocator@PAVCDrawingObject@@@std@@@std@@@Z 00478210 f   TinyCadDoc.obj
 0001:00077320       ?Delete@CTinyCadDoc@@QAEXPAVCDrawingObject@@@Z 00478320 f   TinyCadDoc.obj
 0001:000773b0       ?SelectDelete@CTinyCadDoc@@QAEXXZ 004783b0 f   TinyCadDoc.obj
 0001:000775b0       ?SelectUndoMove@CTinyCadDoc@@QAEXVCDPoint@@@Z 004785b0 f   TinyCadDoc.obj
 0001:000776b0       ?UngroupSymbols@CTinyCadDoc@@QAEXXZ 004786b0 f   TinyCadDoc.obj
 0001:00077a00       ?SelectDup@CTinyCadDoc@@QAEXXZ 00478a00 f   TinyCadDoc.obj
 0001:00077bc0       ?AddNewJunction@CTinyCadDoc@@QAEXVCDPoint@@@Z 00478bc0 f   TinyCadDoc.obj
 0001:00077cb0       ??1CTinyCadDoc@@UAE@XZ     00478cb0 f   TinyCadDoc.obj
 0001:00077f30       ?Add@CTinyCadDoc@@QAEXPAVCDrawingObject@@@Z 00478f30 f   TinyCadDoc.obj
 0001:00077fb0       ?AddImage@CTinyCadDoc@@QAEXPAVCDrawMetaFile@@@Z 00478fb0 f   TinyCadDoc.obj
 0001:00078060       ??_ECTinyCadDoc@@UAEPAXI@Z 00479060 f i TinyCadDoc.obj
 0001:00078060       ??_GCTinyCadDoc@@UAEPAXI@Z 00479060 f i TinyCadDoc.obj
 0001:00078080       ?Import@CTinyCadDoc@@QAEHAAVCStream@@@Z 00479080 f   TinyCadDoc.obj
 0001:00078260       ?Import@CTinyCadDoc@@QAEHH@Z 00479260 f   TinyCadDoc.obj
 0001:000784a0       ??0CTinyCadHierarchicalDoc@@QAE@PAVCMultiSheetDoc@@@Z 004794a0 f   TinyCadHierarchicalDoc.obj
 0001:000784c0       ?IsHierarchicalSymbol@CTinyCadHierarchicalDoc@@UBE_NXZ 004794c0 f   TinyCadHierarchicalDoc.obj
 0001:000784d0       ?PostPaste@CTinyCadHierarchicalDoc@@UAEXXZ 004794d0 f   TinyCadHierarchicalDoc.obj
 0001:000784d0       ?PostPaste@CTinyCadSymbolDoc@@UAEXXZ 004794d0 f   TinyCadSymbolDoc.obj
 0001:000784e0       ??_GCTinyCadHierarchicalDoc@@UAEPAXI@Z 004794e0 f i TinyCadHierarchicalDoc.obj
 0001:000784e0       ??_ECTinyCadHierarchicalDoc@@UAEPAXI@Z 004794e0 f i TinyCadHierarchicalDoc.obj
 0001:00078510       ?GetSheetName@CTinyCadHierarchicalDoc@@UBE?AV?$CStringT@_WV?$StrTraitMFC@_WV?$ChTraitsCRT@_W@ATL@@@@@ATL@@XZ 00479510 f   TinyCadHierarchicalDoc.obj
 0001:00078540       ?GetXMLTag@CTinyCadHierarchicalDoc@@UAE?AV?$CStringT@_WV?$StrTraitMFC@_WV?$ChTraitsCRT@_W@ATL@@@@@ATL@@XZ 00479540 f   TinyCadHierarchicalDoc.obj
 0001:00078570       ?SelectSymbol@CTinyCadSymbolDoc@@UAEXPAVCLibraryStoreSymbol@@@Z 00479570 f   TinyCadSymbolDoc.obj
 0001:00078570       ?SelectSymbol@CTinyCadHierarchicalDoc@@UAEXPAVCLibraryStoreSymbol@@@Z 00479570 f   TinyCadHierarchicalDoc.obj
 0001:000786d0       ?GetRuntimeClass@CTinyCadMultiDoc@@UBEPAUCRuntimeClass@@XZ 004796d0 f   TinyCadMultiDoc.obj
 0001:000786e0       ?SetActiveSheetIndex@CTinyCadMultiDoc@@UAEXH@Z 004796e0 f   TinyCadMultiDoc.obj
 0001:000786f0       ?OnUpdateContextDeletesheet@CTinyCadMultiDoc@@IAEXPAVCCmdUI@@@Z 004796f0 f   TinyCadMultiDoc.obj
 0001:00078720       ?OnUpdateContextRenamesheet@CTinyCadMultiDoc@@QAEXPAVCCmdUI@@@Z 00479720 f   TinyCadMultiDoc.obj
 0001:00078750       ?OnLibraryAddpin@CTinyCadMultiDoc@@IAEXXZ 00479750 f   TinyCadMultiDoc.obj
 0001:000787e0       ?OnUpdateLibraryAddpin@CTinyCadMultiDoc@@IAEXPAVCCmdUI@@@Z 004797e0 f   TinyCadMultiDoc.obj
 0001:00078810       ?GetNumberOfSheets@CTinyCadMultiDoc@@UAEHXZ 00479810 f   TinyCadMultiDoc.obj
 0001:00078820       ?OnFolderContextMenu@CTinyCadMultiDoc@@UAEXXZ 00479820 f   TinyCadMultiDoc.obj
 0001:000788f0       ?OnUpdateContextAddhierachicalsymbol@CTinyCadMultiDoc@@QAEXPAVCCmdUI@@@Z 004798f0 f   TinyCadMultiDoc.obj
 0001:00078930       ?GetSheetName@CTinyCadMultiDoc@@UAE?AV?$CStringT@_WV?$StrTraitMFC@_WV?$ChTraitsCRT@_W@ATL@@@@@ATL@@H@Z 00479930 f   TinyCadMultiDoc.obj
 0001:00078a00       ?_Ufill@?$vector@PAVCTinyCadSymbolDoc@@V?$allocator@PAVCTinyCadSymbolDoc@@@std@@@std@@IAEPAPAVCTinyCadSymbolDoc@@PAPAV3@IABQAV3@@Z 00479a00 f i TinyCadMultiSymbolDoc.obj
 0001:00078a00       ?_Ufill@?$vector@PAVCImportFile@@V?$allocator@PAVCImportFile@@@std@@@std@@IAEPAPAVCImportFile@@PAPAV3@IABQAV3@@Z 00479a00 f i BOMGenerator.obj
 0001:00078a00       ?_Ufill@?$vector@PAVCTinyCadDoc@@V?$allocator@PAVCTinyCadDoc@@@std@@@std@@IAEPAPAVCTinyCadDoc@@PAPAV3@IABQAV3@@Z 00479a00 f i TinyCadMultiDoc.obj
 0001:00078a30       ?UnTag@CTinyCadMultiDoc@@QAEXXZ 00479a30 f   TinyCadMultiDoc.obj
 0001:00078ac0       ?GetSheet@CTinyCadMultiDoc@@UAEPAVCTinyCadDoc@@H@Z 00479ac0 f   TinyCadMultiDoc.obj
 0001:00078b40       ??4CDetails@@QAEAAV0@ABV0@@Z 00479b40 f i TinyCadMultiDoc.obj
 0001:00078bd0       ?SaveXML@CTinyCadMultiDoc@@QAEXAAVCXMLWriter@@@Z 00479bd0 f   TinyCadMultiDoc.obj
 0001:00078d80       ?IsLibInUse@CTinyCadMultiDoc@@UAE_NPAVCLibraryStore@@@Z 00479d80 f   TinyCadMultiDoc.obj
 0001:00078e20       ?OnContextRenamesheet@CTinyCadMultiDoc@@IAEXXZ 00479e20 f   TinyCadMultiDoc.obj
 0001:00078f60       ?erase@?$vector@PAVCTinyCadDoc@@V?$allocator@PAVCTinyCadDoc@@@std@@@std@@QAE?AV?$_Vector_iterator@PAVCTinyCadDoc@@V?$allocator@PAVCTinyCadDoc@@@std@@@2@V?$_Vector_const_iterator@PAVCTinyCadDoc@@V?$allocator@PAVCTinyCadDoc@@@std@@@2@@Z 00479f60 f i TinyCadMultiDoc.obj
 0001:00078fc0       ?Clear@CTinyCadMultiDoc@@QAEXXZ 00479fc0 f   TinyCadMultiDoc.obj
 0001:00079080       ?DeleteSheet@CTinyCadMultiDoc@@QAEXH@Z 0047a080 f   TinyCadMultiDoc.obj
 0001:00079120       ?AutoSave@CTinyCadMultiDoc@@UAEXXZ 0047a120 f   TinyCadMultiDoc.obj
 0001:000792d0       ?OnContextDeletesheet@CTinyCadMultiDoc@@IAEXXZ 0047a2d0 f   TinyCadMultiDoc.obj
 0001:00079390       ??1CTinyCadMultiDoc@@UAE@XZ 0047a390 f   TinyCadMultiDoc.obj
 0001:00079440       ?GetActiveSheetIndex@CTinyCadMultiDoc@@UAEHXZ 0047a440 f i TinyCadMultiDoc.obj
 0001:00079450       ??_GCTinyCadMultiDoc@@UAEPAXI@Z 0047a450 f i TinyCadMultiDoc.obj
 0001:00079450       ??_ECTinyCadMultiDoc@@UAEPAXI@Z 0047a450 f i TinyCadMultiDoc.obj
 0001:00079470       ?_Insert_n@?$vector@PAVCTinyCadSymbolDoc@@V?$allocator@PAVCTinyCadSymbolDoc@@@std@@@std@@IAEXV?$_Vector_const_iterator@PAVCTinyCadSymbolDoc@@V?$allocator@PAVCTinyCadSymbolDoc@@@std@@@2@IABQAVCTinyCadSymbolDoc@@@Z 0047a470 f i TinyCadMultiSymbolDoc.obj
 0001:00079470       ?_Insert_n@?$vector@PAVCTinyCadDoc@@V?$allocator@PAVCTinyCadDoc@@@std@@@std@@IAEXV?$_Vector_const_iterator@PAVCTinyCadDoc@@V?$allocator@PAVCTinyCadDoc@@@std@@@2@IABQAVCTinyCadDoc@@@Z 0047a470 f i TinyCadMultiDoc.obj
 0001:00079470       ?_Insert_n@?$vector@PAVCImportFile@@V?$allocator@PAVCImportFile@@@std@@@std@@IAEXV?$_Vector_const_iterator@PAVCImportFile@@V?$allocator@PAVCImportFile@@@std@@@2@IABQAVCImportFile@@@Z 0047a470 f i BOMGenerator.obj
 0001:000795f0       ?insert@?$vector@PAVCTinyCadDoc@@V?$allocator@PAVCTinyCadDoc@@@std@@@std@@QAE?AV?$_Vector_iterator@PAVCTinyCadDoc@@V?$allocator@PAVCTinyCadDoc@@@std@@@2@V?$_Vector_const_iterator@PAVCTinyCadDoc@@V?$allocator@PAVCTinyCadDoc@@@std@@@2@ABQAVCTinyCadDoc@@@Z 0047a5f0 f i TinyCadMultiDoc.obj
 0001:000795f0       ?insert@?$vector@PAVCImportFile@@V?$allocator@PAVCImportFile@@@std@@@std@@QAE?AV?$_Vector_iterator@PAVCImportFile@@V?$allocator@PAVCImportFile@@@std@@@2@V?$_Vector_const_iterator@PAVCImportFile@@V?$allocator@PAVCImportFile@@@std@@@2@ABQAVCImportFile@@@Z 0047a5f0 f i BOMGenerator.obj
 0001:000795f0       ?insert@?$vector@PAVCTinyCadSymbolDoc@@V?$allocator@PAVCTinyCadSymbolDoc@@@std@@@std@@QAE?AV?$_Vector_iterator@PAVCTinyCadSymbolDoc@@V?$allocator@PAVCTinyCadSymbolDoc@@@std@@@2@V?$_Vector_const_iterator@PAVCTinyCadSymbolDoc@@V?$allocator@PAVCTinyCadSymbolDoc@@@std@@@2@ABQAVCTinyCadSymbolDoc@@@Z 0047a5f0 f i TinyCadMultiSymbolDoc.obj
 0001:000796a0       ??0CTinyCadMultiDoc@@QAE@XZ 0047a6a0 f   TinyCadMultiDoc.obj
 0001:00079720       ?push_back@?$vector@PAVCTinyCadDoc@@V?$allocator@PAVCTinyCadDoc@@@std@@@std@@QAEXABQAVCTinyCadDoc@@@Z 0047a720 f i TinyCadMultiDoc.obj
 0001:00079720       ?push_back@?$vector@PAVCTinyCadSymbolDoc@@V?$allocator@PAVCTinyCadSymbolDoc@@@std@@@std@@QAEXABQAVCTinyCadSymbolDoc@@@Z 0047a720 f i TinyCadMultiSymbolDoc.obj
 0001:00079720       ?push_back@?$vector@PAVCImportFile@@V?$allocator@PAVCImportFile@@@std@@@std@@QAEXABQAVCImportFile@@@Z 0047a720 f i BOMGenerator.obj
 0001:00079790       ?CreateObject@CTinyCadMultiDoc@@SGPAVCObject@@XZ 0047a790 f   TinyCadMultiDoc.obj
 0001:00079800       ?OnNewDocument@CTinyCadMultiDoc@@MAEHXZ 0047a800 f   TinyCadMultiDoc.obj
 0001:000798a0       ?InsertSheet@CTinyCadMultiDoc@@QAEXHPAVCTinyCadDoc@@@Z 0047a8a0 f   TinyCadMultiDoc.obj
 0001:00079a30       ?ReadFile@CTinyCadMultiDoc@@QAEHAAVCStreamFile@@@Z 0047aa30 f   TinyCadMultiDoc.obj
 0001:00079e70       ?OnContextAddsheet@CTinyCadMultiDoc@@IAEXXZ 0047ae70 f   TinyCadMultiDoc.obj
 0001:00079fb0       ?OnContextAddhierachicalsymbol@CTinyCadMultiDoc@@QAEXXZ 0047afb0 f   TinyCadMultiDoc.obj
 0001:0007a0c0       ?Serialize@CTinyCadMultiDoc@@UAEXAAVCArchive@@@Z 0047b0c0 f   TinyCadMultiDoc.obj
 0001:0007a1b0       ?GetMessageMap@CTinyCadMultiDoc@@MBEPBUAFX_MSGMAP@@XZ 0047b1b0 f   TinyCadMultiDoc.obj
 0001:0007a1c0       ?GetRuntimeClass@CTinyCadMultiSymbolDoc@@UBEPAUCRuntimeClass@@XZ 0047b1c0 f   TinyCadMultiSymbolDoc.obj
 0001:0007a1d0       ?OnNewDocument@CTinyCadMultiSymbolDoc@@MAEHXZ 0047b1d0 f   TinyCadMultiSymbolDoc.obj
 0001:0007a1e0       ?IsLibInUse@CTinyCadMultiSymbolDoc@@UAE_NPAVCLibraryStore@@@Z 0047b1e0 f   TinyCadMultiSymbolDoc.obj
 0001:0007a1f0       ?GetNumberOfSheets@CTinyCadMultiSymbolDoc@@UAEHXZ 0047b1f0 f   TinyCadMultiSymbolDoc.obj
 0001:0007a200       ?OnLibraryAddpin@CTinyCadMultiSymbolDoc@@IAEXXZ 0047b200 f   TinyCadMultiSymbolDoc.obj
 0001:0007a2a0       ?OnLibraryHeterogeneous@CTinyCadMultiSymbolDoc@@QAEXXZ 0047b2a0 f   TinyCadMultiSymbolDoc.obj
 0001:0007a2d0       ?OnUpdateLibraryHeterogeneous@CTinyCadMultiSymbolDoc@@QAEXPAVCCmdUI@@@Z 0047b2d0 f   TinyCadMultiSymbolDoc.obj
 0001:0007a2f0       ?OnLibraryHomogeneous@CTinyCadMultiSymbolDoc@@QAEXXZ 0047b2f0 f   TinyCadMultiSymbolDoc.obj
 0001:0007a320       ?OnUpdateLibraryHomogeneous@CTinyCadMultiSymbolDoc@@QAEXPAVCCmdUI@@@Z 0047b320 f   TinyCadMultiSymbolDoc.obj
 0001:0007a340       ?SetActiveSheetIndex@CTinyCadMultiSymbolDoc@@UAEXH@Z 0047b340 f   TinyCadMultiSymbolDoc.obj
 0001:0007a380       ?GetActiveSheetIndex@CTinyCadMultiSymbolDoc@@UAEHXZ 0047b380 f   TinyCadMultiSymbolDoc.obj
 0001:0007a3b0       ?GetSheet@CTinyCadMultiSymbolDoc@@UAEPAVCTinyCadDoc@@H@Z 0047b3b0 f   TinyCadMultiSymbolDoc.obj
 0001:0007a400       ?OnFolderContextMenu@CTinyCadMultiSymbolDoc@@UAEXXZ 0047b400 f   TinyCadMultiSymbolDoc.obj
 0001:0007a4d0       ?Store@CTinyCadMultiSymbolDoc@@QAEHXZ 0047b4d0 f   TinyCadMultiSymbolDoc.obj
 0001:0007a5e0       ?OnFileSaveAs@CTinyCadMultiSymbolDoc@@IAEXXZ 0047b5e0 f   TinyCadMultiSymbolDoc.obj
 0001:0007a5e0       ?OnFileSave@CTinyCadMultiSymbolDoc@@IAEXXZ 0047b5e0 f   TinyCadMultiSymbolDoc.obj
 0001:0007a5f0       ??$fill@PAPAVCTinyCadSymbolDoc@@PAV1@@std@@YAXPAPAVCTinyCadSymbolDoc@@0ABQAV1@@Z 0047b5f0 f i TinyCadMultiSymbolDoc.obj
 0001:0007a5f0       ??$fill@PAPAVCImportFile@@PAV1@@std@@YAXPAPAVCImportFile@@0ABQAV1@@Z 0047b5f0 f i BOMGenerator.obj
 0001:0007a5f0       ??$fill@PAPAVCTinyCadDoc@@PAV1@@std@@YAXPAPAVCTinyCadDoc@@0ABQAV1@@Z 0047b5f0 f i TinyCadMultiDoc.obj
 0001:0007a610       ??$_Unchecked_move_backward@PAPAVCImportFile@@PAPAV1@@stdext@@YAPAPAVCImportFile@@PAPAV1@00@Z 0047b610 f i BOMGenerator.obj
 0001:0007a610       ??$_Unchecked_move_backward@PAPAVCTinyCadSymbolDoc@@PAPAV1@@stdext@@YAPAPAVCTinyCadSymbolDoc@@PAPAV1@00@Z 0047b610 f i TinyCadMultiSymbolDoc.obj
 0001:0007a610       ??$_Unchecked_move_backward@PAPAVCTinyCadDoc@@PAPAV1@@stdext@@YAPAPAVCTinyCadDoc@@PAPAV1@00@Z 0047b610 f i TinyCadMultiDoc.obj
 0001:0007a640       ?CanCloseFrame@CTinyCadMultiSymbolDoc@@UAEHPAVCFrameWnd@@@Z 0047b640 f   TinyCadMultiSymbolDoc.obj
 0001:0007a7a0       ?GetSheetName@CTinyCadMultiSymbolDoc@@UAE?AV?$CStringT@_WV?$StrTraitMFC@_WV?$ChTraitsCRT@_W@ATL@@@@@ATL@@H@Z 0047b7a0 f   TinyCadMultiSymbolDoc.obj
 0001:0007a840       ??1CTinyCadMultiSymbolDoc@@UAE@XZ 0047b840 f   TinyCadMultiSymbolDoc.obj
 0001:0007a950       ?SaveXML@CTinyCadMultiSymbolDoc@@QAEXAAVCXMLWriter@@@Z 0047b950 f   TinyCadMultiSymbolDoc.obj
 0001:0007aa30       ??_ECTinyCadMultiSymbolDoc@@UAEPAXI@Z 0047ba30 f i TinyCadMultiSymbolDoc.obj
 0001:0007aa30       ??_GCTinyCadMultiSymbolDoc@@UAEPAXI@Z 0047ba30 f i TinyCadMultiSymbolDoc.obj
 0001:0007aa50       ?resize@?$vector@PAVCTinyCadSymbolDoc@@V?$allocator@PAVCTinyCadSymbolDoc@@@std@@@std@@QAEXIPAVCTinyCadSymbolDoc@@@Z 0047ba50 f i TinyCadMultiSymbolDoc.obj
 0001:0007ab00       ??0CTinyCadMultiSymbolDoc@@QAE@XZ 0047bb00 f   TinyCadMultiSymbolDoc.obj
 0001:0007abe0       ?OnLibrarySetpartsperpackage@CTinyCadMultiSymbolDoc@@IAEXXZ 0047bbe0 f   TinyCadMultiSymbolDoc.obj
 0001:0007adb0       ?LoadXML@CTinyCadMultiSymbolDoc@@QAEXAAVCXMLReader@@_N@Z 0047bdb0 f   TinyCadMultiSymbolDoc.obj
 0001:0007b090       ?CreateObject@CTinyCadMultiSymbolDoc@@SGPAVCObject@@XZ 0047c090 f   TinyCadMultiSymbolDoc.obj
 0001:0007b100       ?GetMessageMap@CTinyCadMultiSymbolDoc@@MBEPBUAFX_MSGMAP@@XZ 0047c100 f   TinyCadMultiSymbolDoc.obj
 0001:0007b110       ??0CTinyCadMultiSymbolDoc@@QAE@PAVCLibraryStore@@AAVCLibraryStoreNameSet@@@Z 0047c110 f   TinyCadMultiSymbolDoc.obj
 0001:0007b4f0       ??_GCTinyCadRegistry@@UAEPAXI@Z 0047c4f0 f i TinyCadRegistry.obj
 0001:0007b4f0       ??_ECTinyCadRegistry@@UAEPAXI@Z 0047c4f0 f i TinyCadRegistry.obj
 0001:0007b520       ?GetPageSize@CTinyCadRegistry@@SA?AVCSize@@XZ 0047c520 f   TinyCadRegistry.obj
 0001:0007b560       ?GetPrintScale@CTinyCadRegistry@@SANXZ 0047c560 f   TinyCadRegistry.obj
 0001:0007b5a0       ?GetPrintBandW@CTinyCadRegistry@@SA_NXZ 0047c5a0 f   TinyCadRegistry.obj
 0001:0007b5d0       ?GetMDIMaximize@CTinyCadRegistry@@SA_NXZ 0047c5d0 f   TinyCadRegistry.obj
 0001:0007b600       ?GetMaximize@CTinyCadRegistry@@SA_NXZ 0047c600 f   TinyCadRegistry.obj
 0001:0007b630       ?GetLibraryNames@CTinyCadRegistry@@SAPAVCStringList@@XZ 0047c630 f   TinyCadRegistry.obj
 0001:0007b660       ?SetPageSize@CTinyCadRegistry@@SAXVCSize@@@Z 0047c660 f   TinyCadRegistry.obj
 0001:0007b6a0       ?SetPrintScale@CTinyCadRegistry@@SAXN@Z 0047c6a0 f   TinyCadRegistry.obj
 0001:0007b6e0       ?SetPrintBandW@CTinyCadRegistry@@SAX_N@Z 0047c6e0 f   TinyCadRegistry.obj
 0001:0007b710       ?SetMDIMaximize@CTinyCadRegistry@@SAX_N@Z 0047c710 f   TinyCadRegistry.obj
 0001:0007b740       ?SetMaximize@CTinyCadRegistry@@SAX_N@Z 0047c740 f   TinyCadRegistry.obj
 0001:0007b770       ?CreateDefaultEntries@CTinyCadRegistry@@CAXXZ 0047c770 f   TinyCadRegistry.obj
 0001:0007bcf0       ??0CTinyCadRegistry@@QAE@XZ 0047ccf0 f   TinyCadRegistry.obj
 0001:0007bdd0       ??0CTinyCadSymbolDoc@@QAE@PAVCMultiSheetDoc@@@Z 0047cdd0 f   TinyCadSymbolDoc.obj
 0001:0007be00       ?setSymbol@CTinyCadSymbolDoc@@QAEXXZ 0047ce00 f   TinyCadSymbolDoc.obj
 0001:0007be10       ??_ECTinyCadSymbolDoc@@UAEPAXI@Z 0047ce10 f i TinyCadSymbolDoc.obj
 0001:0007be10       ??_GCTinyCadSymbolDoc@@UAEPAXI@Z 0047ce10 f i TinyCadSymbolDoc.obj
 0001:0007be40       ?GetPartsPerPackage@CTinyCadSymbolDoc@@QAEHXZ 0047ce40 f   TinyCadSymbolDoc.obj
 0001:0007bf10       ?EditPartInPackage@CTinyCadSymbolDoc@@QAEXH@Z 0047cf10 f   TinyCadSymbolDoc.obj
 0001:0007c1b0       ?SetPartsPerPackage@CTinyCadSymbolDoc@@QAEXH@Z 0047d1b0 f   TinyCadSymbolDoc.obj
 0001:0007c3c0       ?SetCursor@CDrawCentre@@UAEHVCDPoint@@@Z 0047d3c0 f i TinyCadView.obj
 0001:0007c3d0       ?getMenuID@CDrawCentre@@UAEHXZ 0047d3d0 f i TinyCadView.obj
 0001:0007c3e0       ??1CFolderView@@UAE@XZ     0047d3e0 f i TinyCadView.obj
 0001:0007c3f0       ?GetRuntimeClass@CTinyCadView@@UBEPAUCRuntimeClass@@XZ 0047d3f0 f   TinyCadView.obj
 0001:0007c400       ??0CTinyCadView@@IAE@XZ    0047d400 f   TinyCadView.obj
 0001:0007c4a0       ??1CTinyCadView@@UAE@XZ    0047d4a0 f   TinyCadView.obj
 0001:0007c510       ?OnEndPrinting@CTinyCadView@@MAEXPAVCDC@@PAUCPrintInfo@@@Z 0047d510 f   TinyCadView.obj
 0001:0007c540       ?GetCurrentDocument@CTinyCadView@@QAEPAVCTinyCadDoc@@XZ 0047d540 f   TinyCadView.obj
 0001:0007c550       ?OnDestroy@CTinyCadView@@IAEXXZ 0047d550 f   TinyCadView.obj
 0001:0007c5a0       ?OnRButtonDown@CTinyCadView@@IAEXIVCPoint@@@Z 0047d5a0 f   TinyCadView.obj
 0001:0007c760       ?OnRButtonUp@CTinyCadView@@IAEXIVCPoint@@@Z 0047d760 f   TinyCadView.obj
 0001:0007c8c0       ?OnMButtonUp@CTinyCadView@@IAEXIVCPoint@@@Z 0047d8c0 f   TinyCadView.obj
 0001:0007c8d0       ?OnRulerVert@CTinyCadView@@IAEXXZ 0047d8d0 f   TinyCadView.obj
 0001:0007c960       ?OnRulerHoriz@CTinyCadView@@IAEXXZ 0047d960 f   TinyCadView.obj
 0001:0007c9f0       ?OnUpdateToolHierachical@CTinyCadView@@IAEXPAVCCmdUI@@@Z 0047d9f0 f   TinyCadView.obj
 0001:0007ca60       ?OnUpdateToolsquare@CTinyCadView@@IAEXPAVCCmdUI@@@Z 0047da60 f   TinyCadView.obj
 0001:0007ca60       ?OnUpdateToolarc@CTinyCadView@@IAEXPAVCCmdUI@@@Z 0047da60 f   TinyCadView.obj
 0001:0007ca60       ?OnUpdateRulerHoriz@CTinyCadView@@IAEXPAVCCmdUI@@@Z 0047da60 f   TinyCadView.obj
 0001:0007ca60       ?OnUpdateToolbusname@CTinyCadView@@IAEXPAVCCmdUI@@@Z 0047da60 f   TinyCadView.obj
 0001:0007ca60       ?OnUpdateBusback@CTinyCadView@@IAEXPAVCCmdUI@@@Z 0047da60 f   TinyCadView.obj
 0001:0007ca60       ?OnUpdateToolwire@CTinyCadView@@IAEXPAVCCmdUI@@@Z 0047da60 f   TinyCadView.obj
 0001:0007ca60       ?OnUpdateToolget@CTinyCadView@@IAEXPAVCCmdUI@@@Z 0047da60 f   TinyCadView.obj
 0001:0007ca60       ?OnUpdateToolpower@CTinyCadView@@IAEXPAVCCmdUI@@@Z 0047da60 f   TinyCadView.obj
 0001:0007ca60       ?OnUpdateToolcircle@CTinyCadView@@IAEXPAVCCmdUI@@@Z 0047da60 f   TinyCadView.obj
 0001:0007ca60       ?OnUpdateTooltext@CTinyCadView@@IAEXPAVCCmdUI@@@Z 0047da60 f   TinyCadView.obj
 0001:0007ca60       ?OnUpdateViewcentre@CTinyCadView@@IAEXPAVCCmdUI@@@Z 0047da60 f   TinyCadView.obj
 0001:0007ca60       ?OnUpdateEditdup@CTinyCadView@@IAEXPAVCCmdUI@@@Z 0047da60 f   TinyCadView.obj
 0001:0007ca60       ?OnUpdateEditdrag@CTinyCadView@@IAEXPAVCCmdUI@@@Z 0047da60 f   TinyCadView.obj
 0001:0007ca60       ?OnUpdateRulerVert@CTinyCadView@@IAEXPAVCCmdUI@@@Z 0047da60 f   TinyCadView.obj
 0001:0007ca60       ?OnUpdateToolbus@CTinyCadView@@IAEXPAVCCmdUI@@@Z 0047da60 f   TinyCadView.obj
 0001:0007ca60       ?OnUpdateTooljunc@CTinyCadView@@IAEXPAVCCmdUI@@@Z 0047da60 f   TinyCadView.obj
 0001:0007ca60       ?OnUpdateBusslash@CTinyCadView@@IAEXPAVCCmdUI@@@Z 0047da60 f   TinyCadView.obj
 0001:0007ca60       ?OnUpdateToolconnect@CTinyCadView@@IAEXPAVCCmdUI@@@Z 0047da60 f   TinyCadView.obj
 0001:0007ca60       ?OnUpdateEditrotate@CTinyCadView@@IAEXPAVCCmdUI@@@Z 0047da60 f   TinyCadView.obj
 0001:0007ca60       ?OnUpdateEditmove@CTinyCadView@@IAEXPAVCCmdUI@@@Z 0047da60 f   TinyCadView.obj
 0001:0007ca60       ?OnUpdateToollabel@CTinyCadView@@IAEXPAVCCmdUI@@@Z 0047da60 f   TinyCadView.obj
 0001:0007ca60       ?OnUpdateToolpolygon@CTinyCadView@@IAEXPAVCCmdUI@@@Z 0047da60 f   TinyCadView.obj
 0001:0007ca60       ?OnUpdateEditedit@CTinyCadView@@IAEXPAVCCmdUI@@@Z 0047da60 f   TinyCadView.obj
 0001:0007caa0       ?OnSnaptogrid@CTinyCadView@@IAEXXZ 0047daa0 f   TinyCadView.obj
 0001:0007cae0       ?OnUpdateSnaptogrid@CTinyCadView@@IAEXPAVCCmdUI@@@Z 0047dae0 f   TinyCadView.obj
 0001:0007cb10       ?OnRepeatNameUp@CTinyCadView@@IAEXXZ 0047db10 f   TinyCadView.obj
 0001:0007cb30       ?OnUpdateRepeatnameup@CTinyCadView@@IAEXPAVCCmdUI@@@Z 0047db30 f   TinyCadView.obj
 0001:0007cb60       ?OnRepeatNameDown@CTinyCadView@@IAEXXZ 0047db60 f   TinyCadView.obj
 0001:0007cb80       ?OnUpdateRepeatnamedown@CTinyCadView@@IAEXPAVCCmdUI@@@Z 0047db80 f   TinyCadView.obj
 0001:0007cbb0       ?OnRepeatPinUp@CTinyCadView@@IAEXXZ 0047dbb0 f   TinyCadView.obj
 0001:0007cbd0       ?OnUpdateRepeatpinup@CTinyCadView@@IAEXPAVCCmdUI@@@Z 0047dbd0 f   TinyCadView.obj
 0001:0007cc00       ?OnRepeatPinDown@CTinyCadView@@IAEXXZ 0047dc00 f   TinyCadView.obj
 0001:0007cc20       ?OnUpdateRepeatpindown@CTinyCadView@@IAEXPAVCCmdUI@@@Z 0047dc20 f   TinyCadView.obj
 0001:0007cc50       ?OnUpdateEditpaste@CTinyCadView@@IAEXPAVCCmdUI@@@Z 0047dc50 f   TinyCadView.obj
 0001:0007cc90       ?OnUpdateEditcopy@CTinyCadView@@IAEXPAVCCmdUI@@@Z 0047dc90 f   TinyCadView.obj
 0001:0007ccb0       ?OnUpdateEditcut@CTinyCadView@@IAEXPAVCCmdUI@@@Z 0047dcb0 f   TinyCadView.obj
 0001:0007ccb0       ?OnUpdateContextZorderSendtoback@CTinyCadView@@IAEXPAVCCmdUI@@@Z 0047dcb0 f   TinyCadView.obj
 0001:0007ccb0       ?OnUpdateEditCopyto@CTinyCadView@@IAEXPAVCCmdUI@@@Z 0047dcb0 f   TinyCadView.obj
 0001:0007ccb0       ?OnUpdateContextZorderBringtofront@CTinyCadView@@IAEXPAVCCmdUI@@@Z 0047dcb0 f   TinyCadView.obj
 0001:0007ccb0       ?OnUpdateEditduplicate@CTinyCadView@@IAEXPAVCCmdUI@@@Z 0047dcb0 f   TinyCadView.obj
 0001:0007cce0       ?OnMouseWheel@CTinyCadView@@IAEHIFVCPoint@@@Z 0047dce0 f   TinyCadView.obj
 0001:0007cd10       ?OnActivateView@CTinyCadView@@MAEXHPAVCView@@0@Z 0047dd10 f   TinyCadView.obj
 0001:0007cdc0       ?OnEditDelete@CTinyCadView@@IAEXXZ 0047ddc0 f   TinyCadView.obj
 0001:0007ce10       ?OnContextMakehorizontal@CTinyCadView@@IAEXXZ 0047de10 f   TinyCadView.obj
 0001:0007ce60       ?OnContextMakevertical@CTinyCadView@@IAEXXZ 0047de60 f   TinyCadView.obj
 0001:0007ceb0       ?OnContextArcin@CTinyCadView@@IAEXXZ 0047deb0 f   TinyCadView.obj
 0001:0007cf00       ?OnContextArcout@CTinyCadView@@IAEXXZ 0047df00 f   TinyCadView.obj
 0001:0007cf50       ?OnContextFreeline@CTinyCadView@@IAEXXZ 0047df50 f   TinyCadView.obj
 0001:0007cfa0       ?OnContextAddhandle@CTinyCadView@@IAEXXZ 0047dfa0 f   TinyCadView.obj
 0001:0007cff0       ?OnContextDeletehandle@CTinyCadView@@IAEXXZ 0047dff0 f   TinyCadView.obj
 0001:0007d040       ?OnContextFinishdrawing@CTinyCadView@@IAEXXZ 0047e040 f   TinyCadView.obj
 0001:0007d080       ?OnContextReplacesymbol@CTinyCadView@@IAEXXZ 0047e080 f   TinyCadView.obj
 0001:0007d0d0       ?OnContextOpendesign@CTinyCadView@@QAEXXZ 0047e0d0 f   TinyCadView.obj
 0001:0007d120       ?OnContextReloadsymbolfromdesign@CTinyCadView@@QAEXXZ 0047e120 f   TinyCadView.obj
 0001:0007d170       ?OnContextZorderBringtofront@CTinyCadView@@IAEXXZ 0047e170 f   TinyCadView.obj
 0001:0007d190       ?OnContextZorderSendtoback@CTinyCadView@@IAEXXZ 0047e190 f   TinyCadView.obj
 0001:0007d1b0       ?OnFolderContextMenu@CTinyCadView@@MAEXXZ 0047e1b0 f   TinyCadView.obj
 0001:0007d1c0       ?SelectSheet@CTinyCadView@@QAEXH@Z 0047e1c0 f   TinyCadView.obj
 0001:0007d200       ?OnClose@CWnd@@IAEXXZ      0047e200 f i TinyCadView.obj
 0001:0007d200       ?OnDestroyClipboard@CTinyCadView@@IAEXXZ 0047e200 f i Menu.obj
 0001:0007d210       ?OnCompacting@CWnd@@IAEXI@Z 0047e210 f i TinyCadView.obj
 0001:0007d210       ?OnCreate@CWnd@@IAEHPAUtagCREATESTRUCTW@@@Z 0047e210 f i Ftab.obj
 0001:0007d220       ?InvalidateRect@CContext@@QAEXVCDRect@@HH@Z 0047e220 f i TinyCadView.obj
 0001:0007d2d0       ??_GCFolderView@@UAEPAXI@Z 0047e2d0 f i TinyCadView.obj
 0001:0007d2d0       ??_ECFolderView@@UAEPAXI@Z 0047e2d0 f i TinyCadView.obj
 0001:0007d300       ?OnEditUndo@CTinyCadView@@IAEXXZ 0047e300 f i TinyCadView.obj
 0001:0007d3a0       ?OnEditRedo@CTinyCadView@@IAEXXZ 0047e3a0 f i TinyCadView.obj
 0001:0007d440       ?OnContextCanceldrawing@CTinyCadView@@IAEXXZ 0047e440 f i TinyCadView.obj
 0001:0007d440       ?OnEditEdit@CTinyCadView@@IAEXXZ 0047e440 f i TinyCadView.obj
 0001:0007d4d0       ?OnEditMove@CTinyCadView@@IAEXXZ 0047e4d0 f i TinyCadView.obj
 0001:0007d560       ?OnEditDrag@CTinyCadView@@IAEXXZ 0047e560 f i TinyCadView.obj
 0001:0007d5f0       ?OnEditDup@CTinyCadView@@IAEXXZ 0047e5f0 f i TinyCadView.obj
 0001:0007d680       ?OnEditRotate@CTinyCadView@@IAEXXZ 0047e680 f i TinyCadView.obj
 0001:0007d710       ?OnSelectWire@CTinyCadView@@IAEXXZ 0047e710 f i TinyCadView.obj
 0001:0007d7a0       ?OnSelectBus@CTinyCadView@@IAEXXZ 0047e7a0 f i TinyCadView.obj
 0001:0007d830       ?OnSelectBusSlash@CTinyCadView@@IAEXXZ 0047e830 f i TinyCadView.obj
 0001:0007d8c0       ?OnSelectBusBack@CTinyCadView@@IAEXXZ 0047e8c0 f i TinyCadView.obj
 0001:0007d950       ?OnSelectBusName@CTinyCadView@@IAEXXZ 0047e950 f i TinyCadView.obj
 0001:0007d9e0       ?OnSelectPower@CTinyCadView@@IAEXXZ 0047e9e0 f i TinyCadView.obj
 0001:0007da70       ?OnSelectLabel@CTinyCadView@@IAEXXZ 0047ea70 f i TinyCadView.obj
 0001:0007db00       ?OnSelectConnect@CTinyCadView@@IAEXXZ 0047eb00 f i TinyCadView.obj
 0001:0007db90       ?OnSelectSquare@CTinyCadView@@IAEXXZ 0047eb90 f i TinyCadView.obj
 0001:0007dc20       ?OnSelectCircle@CTinyCadView@@IAEXXZ 0047ec20 f i TinyCadView.obj
 0001:0007dcb0       ?OnSelectText@CTinyCadView@@IAEXXZ 0047ecb0 f i TinyCadView.obj
 0001:0007dd40       ?OnViewCentre@CTinyCadView@@IAEXXZ 0047ed40 f i TinyCadView.obj
 0001:0007ddd0       ?CreateObject@CTinyCadView@@SGPAVCObject@@XZ 0047edd0 f   TinyCadView.obj
 0001:0007de40       ??_GCTinyCadView@@UAEPAXI@Z 0047ee40 f i TinyCadView.obj
 0001:0007de40       ??_ECTinyCadView@@UAEPAXI@Z 0047ee40 f i TinyCadView.obj
 0001:0007de60       ?OnBeginPrinting@CTinyCadView@@MAEXPAVCDC@@PAUCPrintInfo@@@Z 0047ee60 f   TinyCadView.obj
 0001:0007e0f0       ?OnPrepareDC@CTinyCadView@@UAEXPAVCDC@@PAUCPrintInfo@@@Z 0047f0f0 f   TinyCadView.obj
 0001:0007e210       ?OnCreate@CTinyCadView@@IAEHPAUtagCREATESTRUCTW@@@Z 0047f210 f   TinyCadView.obj
 0001:0007e3e0       ?Message@@YAHHHPB_W@Z      0047f3e0 f   TinyCadView.obj
 0001:0007e4a0       ?OnLButtonDown@CTinyCadView@@IAEXIVCPoint@@@Z 0047f4a0 f   TinyCadView.obj
 0001:0007e620       ?OnLButtonDblClk@CTinyCadView@@IAEXIVCPoint@@@Z 0047f620 f   TinyCadView.obj
 0001:0007e790       ?OnLButtonUp@CTinyCadView@@IAEXIVCPoint@@@Z 0047f790 f   TinyCadView.obj
 0001:0007e8d0       ?OnSetCursor@CTinyCadView@@IAEHPAVCWnd@@II@Z 0047f8d0 f   TinyCadView.obj
 0001:0007e9a0       ?OnMButtonDown@CTinyCadView@@IAEXIVCPoint@@@Z 0047f9a0 f   TinyCadView.obj
 0001:0007e9c0       ?OnViewOptions@CTinyCadView@@IAEXXZ 0047f9c0 f   TinyCadView.obj
 0001:0007eaa0       ?OnChangedFolder@CTinyCadView@@MAEXH@Z 0047faa0 f   TinyCadView.obj
 0001:0007eba0       ?SetTabsFromDocument@CTinyCadView@@QAEXXZ 0047fba0 f   TinyCadView.obj
 0001:0007eca0       ?OnEditInsertpicture@CTinyCadView@@IAEXXZ 0047fca0 f   TinyCadView.obj
 0001:0007eeb0       ?OnMouseMove@CTinyCadView@@IAEXIVCPoint@@@Z 0047feb0 f   TinyCadView.obj
 0001:0007f1a0       ?OnUpdate@CTinyCadView@@MAEXPAVCView@@JPAVCObject@@@Z 004801a0 f   TinyCadView.obj
 0001:0007f2f0       ?OnInitialUpdate@CTinyCadView@@UAEXXZ 004802f0 f   TinyCadView.obj
 0001:0007f350       ?DoPreparePrinting@CTinyCadView@@IAEHPAUCPrintInfo@@@Z 00480350 f   TinyCadView.obj
 0001:0007f8d0       ?OnPreparePrinting@CTinyCadView@@MAEHPAUCPrintInfo@@@Z 004808d0 f   TinyCadView.obj
 0001:0007f970       ?OnFileSaveasbitmap@CTinyCadView@@IAEXXZ 00480970 f   TinyCadView.obj
 0001:0007fb80       ?PreCreateWindow@CTinyCadView@@UAEHAAUtagCREATESTRUCTW@@@Z 00480b80 f   TinyCadView.obj
 0001:0007fc30       ?NameLength@@YA?AV?$CStringT@_WV?$StrTraitMFC@_WV?$ChTraitsCRT@_W@ATL@@@@@ATL@@PB_WH@Z 00480c30 f   TinyCadView.obj
 0001:0007fde0       ?OnOptionsColours@CTinyCadView@@IAEXXZ 00480de0 f   TinyCadView.obj
 0001:0007fe90       ?GetMessageMap@CTinyCadView@@MBEPBUAFX_MSGMAP@@XZ 00480e90 f   TinyCadView.obj
 0001:0007fea0       ??0TransformSnap@@QAE@XZ   00480ea0 f   Transform.obj
 0001:0007fec0       ?Snap@TransformSnap@@QAENN@Z 00480ec0 f   Transform.obj
 0001:0007ff20       ?doubleScale@Transform@@QBENN@Z 00480f20 f   Transform.obj
 0001:0007ff30       ?SetTRM@Transform@@QAE?AVCDPoint@@V2@0H@Z 00480f30 f   Transform.obj
 0001:0007ffd0       ?SetScaling@Transform@@QAEXHNN@Z 00480fd0 f   Transform.obj
 0001:00080020       ?GetScaling@Transform@@QBEXHAAN0@Z 00481020 f   Transform.obj
 0001:00080070       ?EndTRM@Transform@@QAEXVCDPoint@@@Z 00481070 f   Transform.obj
 0001:00080090       ?doubleDeScale@Transform@@QBENJ@Z 00481090 f   Transform.obj
 0001:000800a0       ?DeScale@Transform@@QBENN@Z 004810a0 f   Transform.obj
 0001:000800b0       ?RotateDir@Transform@@QBEHH@Z 004810b0 f   Transform.obj
 0001:00080150       ?SetOriginX@Transform@@QAEXN@Z 00481150 f   Transform.obj
 0001:00080160       ?SetOriginY@Transform@@QAEXN@Z 00481160 f   Transform.obj
 0001:00080170       ?SetOrigin@Transform@@QAEXVCDPoint@@@Z 00481170 f   Transform.obj
 0001:00080190       ?SetPixelOffset@Transform@@QAEXAAVCPoint@@@Z 00481190 f   Transform.obj
 0001:000801b0       ?GetOrigin@Transform@@QBE?AVCDPoint@@XZ 004811b0 f   Transform.obj
 0001:000801d0       ?SetZoomFactor@Transform@@QAEXN@Z 004811d0 f   Transform.obj
 0001:000801e0       ?GetZoomFactor@Transform@@QBENXZ 004811e0 f   Transform.obj
 0001:000801f0       ?GetIsYUp@Transform@@QBEHXZ 004811f0 f   Transform.obj
 0001:00080200       ?GetRotMir@Transform@@QBEHXZ 00481200 f   Transform.obj
 0001:00080210       ??0Transform@@QAE@XZ       00481210 f   Transform.obj
 0001:00080240       ?Scale@Transform@@QBE?AVCPoint@@VCDPoint@@@Z 00481240 f   Transform.obj
 0001:000802e0       ?Scale@Transform@@QBE?AVCRect@@VCDRect@@@Z 004812e0 f   Transform.obj
 0001:00080350       ?DeScale@Transform@@QBE?AVCDPoint@@VCPoint@@@Z 00481350 f   Transform.obj
 0001:00080370       ?DeScale@Transform@@QBE?AVCDPoint@@AAVTransformSnap@@VCPoint@@@Z 00481370 f   Transform.obj
 0001:000803c0       ?insert@?$_Tree@V?$_Tmap_traits@HKU?$less@H@std@@V?$allocator@U?$pair@$$CBHK@std@@@2@$0A@@std@@@std@@QAE?AViterator@12@Vconst_iterator@12@ABU?$pair@$$CBHK@2@@Z 004813c0 f i UserColor.obj
 0001:000803c0       ?insert@?$_Tree@V?$_Tmap_traits@HHU?$less@H@std@@V?$allocator@U?$pair@$$CBHH@std@@@2@$0A@@std@@@std@@QAE?AViterator@12@Vconst_iterator@12@ABU?$pair@$$CBHH@2@@Z 004813c0 f i DlgColours.obj
 0001:000803c0       ?insert@?$_Tree@V?$_Tmap_traits@W4ObjType@@FU?$less@W4ObjType@@@std@@V?$allocator@U?$pair@$$CBW4ObjType@@F@std@@@3@$0A@@std@@@std@@QAE?AViterator@12@Vconst_iterator@12@ABU?$pair@$$CBW4ObjType@@F@2@@Z 004813c0 f i DrawLabel.obj
 0001:00080590       ??A?$map@HKU?$less@H@std@@V?$allocator@U?$pair@$$CBHK@std@@@2@@std@@QAEAAKABH@Z 00481590 f i UserColor.obj
 0001:00080590       ??A?$map@HHU?$less@H@std@@V?$allocator@U?$pair@$$CBHH@std@@@2@@std@@QAEAAHABH@Z 00481590 f i DlgColours.obj
 0001:00080640       ?Init@CUserColor@@QAEXXZ   00481640 f   UserColor.obj
 0001:000808d0       ?Get@CUserColor@@QAEKH@Z   004818d0 f   UserColor.obj
 0001:000808e0       ?Set@CUserColor@@QAEXHK@Z  004818e0 f   UserColor.obj
 0001:00080900       ?ReadRegistry@CUserColor@@AAEXXZ 00481900 f   UserColor.obj
 0001:00080a50       ?ReadXML@CUserColor@@QAEXAAVCXMLReader@@V?$CStringT@_WV?$StrTraitMFC@_WV?$ChTraitsCRT@_W@ATL@@@@@ATL@@@Z 00481a50 f   UserColor.obj
 0001:00080c20       ?WriteXML@CUserColor@@QAEXAAVCXMLWriter@@@Z 00481c20 f   UserColor.obj
 0001:00080d50       ??0CUserColor@@QAE@XZ      00481d50 f   UserColor.obj
 0001:00080dc0       ??0CUserColor@@QAE@AAV0@@Z 00481dc0 f   UserColor.obj
 0001:00080eb0       ?WriteRegistry@CUserColor@@QAEXXZ 00481eb0 f   UserColor.obj
 0001:00081050       ?FindRect@CWinMgr@@QAEPAVWINRECT@@I@Z 00482050 f   WinMgr.obj
 0001:00081080       ??0CWinMgr@@QAE@PAVWINRECT@@@Z 00482080 f   WinMgr.obj
 0001:000810b0       ??1CWinMgr@@UAE@XZ         004820b0 f   WinMgr.obj
 0001:000810c0       ?GetWindowPositions@CWinMgr@@UAEXPAVCWnd@@@Z 004820c0 f   WinMgr.obj
 0001:00081120       ?SetWindowPositions@CWinMgr@@UAEXPAVCWnd@@@Z 00482120 f   WinMgr.obj
 0001:000811f0       ?CalcGroup@CWinMgr@@MAEXPAVWINRECT@@PAVCWnd@@@Z 004821f0 f   WinMgr.obj
 0001:000813f0       ?AdjustSize@CWinMgr@@MAEXPAVWINRECT@@HAAHPAVCWnd@@@Z 004823f0 f   WinMgr.obj
 0001:000814a0       ?PositionRects@CWinMgr@@MAEXPAVWINRECT@@ABVCRect@@H@Z 004824a0 f   WinMgr.obj
 0001:00081530       ?SendGetSizeInfo@CWinMgr@@IAEHAAUSIZEINFO@@PAVCWnd@@I@Z 00482530 f   WinMgr.obj
 0001:000815e0       ?MoveRect@CWinMgr@@QAEXPAVWINRECT@@VCPoint@@PAVCWnd@@@Z 004825e0 f   WinMgr.obj
 0001:00081690       ??_ECWinMgr@@UAEPAXI@Z     00482690 f i WinMgr.obj
 0001:00081690       ??_GCWinMgr@@UAEPAXI@Z     00482690 f i WinMgr.obj
 0001:000816b0       ?OnGetSizeInfo@CWinMgr@@UAEXAAUSIZEINFO@@PAVWINRECT@@PAVCWnd@@@Z 004826b0 f   WinMgr.obj
 0001:000819f0       ?Parent@WINRECT@@QAEPAV1@XZ 004829f0 f   WinRect.obj
 0001:00081a10       ?GetMargins@WINRECT@@QAEHAAH0@Z 00482a10 f   WinRect.obj
 0001:00081a60       ?InitMap@WINRECT@@SAPAV1@PAV1@0@Z 00482a60 f   WinRect.obj
 0001:00081ac0       ??0WINRECT@@QAE@GIJ@Z      00482ac0 f   WinRect.obj
 0001:00081b00       ?GetRuntimeClass@CWinXPToolbar@@UBEPAUCRuntimeClass@@XZ 00482b00 f   WinXPToolbar.obj
 0001:00081b10       ??0CWinXPToolbar@@QAE@XZ   00482b10 f   WinXPToolbar.obj
 0001:00081b30       ??1CWinXPToolbar@@UAE@XZ   00482b30 f   WinXPToolbar.obj
 0001:00081b40       ?DrawGripper@CWinXPToolbar@@UAEXPAVCDC@@ABVCRect@@@Z 00482b40 f   WinXPToolbar.obj
 0001:00081b70       ??_GCWinXPToolbar@@UAEPAXI@Z 00482b70 f i WinXPToolbar.obj
 0001:00081b70       ??_ECWinXPToolbar@@UAEPAXI@Z 00482b70 f i WinXPToolbar.obj
 0001:00081ba0       ?EraseNonClient@CWinXPToolbar@@QAEXXZ 00482ba0 f   WinXPToolbar.obj
 0001:00081cc0       ?DoPaint@CWinXPToolbar@@UAEXPAVCDC@@@Z 00482cc0 f   WinXPToolbar.obj
 0001:00081d10       ?OnNcPaint@CWinXPToolbar@@QAEXXZ 00482d10 f   WinXPToolbar.obj
 0001:00081d20       ?GetMessageMap@CWinXPToolbar@@MBEPBUAFX_MSGMAP@@XZ 00482d20 f   WinXPToolbar.obj
 0001:00081d30       ?is_whitespace@xml_parse_tag@@SA_N_W@Z 00482d30 f i xml_parse_tag.obj
 0001:00081d60       ?out_of_sequence@xml_parse_tag@@AAEXXZ 00482d60 f   xml_parse_tag.obj
 0001:00081e20       ??1?$pair@$$CBV?$CStringT@_WV?$StrTraitMFC@_WV?$ChTraitsCRT@_W@ATL@@@@@ATL@@V12@@std@@QAE@XZ 00482e20 f i xml_parse_tag.obj
 0001:00081e70       ??0?$pair@$$CBV?$CStringT@_WV?$StrTraitMFC@_WV?$ChTraitsCRT@_W@ATL@@@@@ATL@@V12@@std@@QAE@ABV?$CStringT@_WV?$StrTraitMFC@_WV?$ChTraitsCRT@_W@ATL@@@@@ATL@@0@Z 00482e70 f i xml_parse_tag.obj
 0001:00081ef0       ??0?$pair@$$CBV?$CStringT@_WV?$StrTraitMFC@_WV?$ChTraitsCRT@_W@ATL@@@@@ATL@@V12@@std@@QAE@ABU01@@Z 00482ef0 f i xml_parse_tag.obj
 0001:00081f60       ?_Buynode@?$_Tree@V?$_Tmap_traits@V?$CStringT@_WV?$StrTraitMFC@_WV?$ChTraitsCRT@_W@ATL@@@@@ATL@@V12@U?$less@V?$CStringT@_WV?$StrTraitMFC@_WV?$ChTraitsCRT@_W@ATL@@@@@ATL@@@std@@V?$allocator@U?$pair@$$CBV?$CStringT@_WV?$StrTraitMFC@_WV?$ChTraitsCRT@_W@ATL@@@@@ATL@@V12@@std@@@4@$0A@@std@@@std@@IAEPAU_Node@?$_Tree_nod@V?$_Tmap_traits@V?$CStringT@_WV?$StrTraitMFC@_WV?$ChTraitsCRT@_W@ATL@@@@@ATL@@V12@U?$less@V?$CStringT@_WV?$StrTraitMFC@_WV?$ChTraitsCRT@_W@ATL@@@@@ATL@@@std@@V?$allocator@U?$pair@$$CBV?$CStringT@_WV?$StrTraitMFC@_WV?$ChTraitsCRT@_W@ATL@@@@@ATL@@V12@@std@@@4@$0A@@std@@@2@PAU342@00ABU?$pair@$$CBV?$CStringT@_WV?$StrTraitMFC@_WV?$ChTraitsCRT@_W@ATL@@@@@ATL@@V12@@2@D@Z 00482f60 f i xml_parse_tag.obj
 0001:00082000       ??4?$CStringT@_WV?$StrTraitMFC@_WV?$ChTraitsCRT@_W@ATL@@@@@ATL@@QAEAAV01@_W@Z 00483000 f i xml_parse_tag.obj
 0001:00082050       ?_Erase@?$_Tree@V?$_Tmap_traits@V?$CStringT@_WV?$StrTraitMFC@_WV?$ChTraitsCRT@_W@ATL@@@@@ATL@@V12@U?$less@V?$CStringT@_WV?$StrTraitMFC@_WV?$ChTraitsCRT@_W@ATL@@@@@ATL@@@std@@V?$allocator@U?$pair@$$CBV?$CStringT@_WV?$StrTraitMFC@_WV?$ChTraitsCRT@_W@ATL@@@@@ATL@@V12@@std@@@4@$0A@@std@@@std@@IAEXPAU_Node@?$_Tree_nod@V?$_Tmap_traits@V?$CStringT@_WV?$StrTraitMFC@_WV?$ChTraitsCRT@_W@ATL@@@@@ATL@@V12@U?$less@V?$CStringT@_WV?$StrTraitMFC@_WV?$ChTraitsCRT@_W@ATL@@@@@ATL@@@std@@V?$allocator@U?$pair@$$CBV?$CStringT@_WV?$StrTraitMFC@_WV?$ChTraitsCRT@_W@ATL@@@@@ATL@@V12@@std@@@4@$0A@@std@@@2@@Z 00483050 f i xml_parse_tag.obj
 0001:000820d0       ?_Insert@?$_Tree@V?$_Tmap_traits@V?$CStringT@_WV?$StrTraitMFC@_WV?$ChTraitsCRT@_W@ATL@@@@@ATL@@V12@U?$less@V?$CStringT@_WV?$StrTraitMFC@_WV?$ChTraitsCRT@_W@ATL@@@@@ATL@@@std@@V?$allocator@U?$pair@$$CBV?$CStringT@_WV?$StrTraitMFC@_WV?$ChTraitsCRT@_W@ATL@@@@@ATL@@V12@@std@@@4@$0A@@std@@@std@@IAE?AViterator@12@_NPAU_Node@?$_Tree_nod@V?$_Tmap_traits@V?$CStringT@_WV?$StrTraitMFC@_WV?$ChTraitsCRT@_W@ATL@@@@@ATL@@V12@U?$less@V?$CStringT@_WV?$StrTraitMFC@_WV?$ChTraitsCRT@_W@ATL@@@@@ATL@@@std@@V?$allocator@U?$pair@$$CBV?$CStringT@_WV?$StrTraitMFC@_WV?$ChTraitsCRT@_W@ATL@@@@@ATL@@V12@@std@@@4@$0A@@std@@@2@ABU?$pair@$$CBV?$CStringT@_WV?$StrTraitMFC@_WV?$ChTraitsCRT@_W@ATL@@@@@ATL@@V12@@2@@Z 004830d0 f i xml_parse_tag.obj
 0001:000822d0       ?read_entity@xml_parse_tag@@SA?AV?$CStringT@_WV?$StrTraitMFC@_WV?$ChTraitsCRT@_W@ATL@@@@@ATL@@PAVCXMLReader@@@Z 004832d0 f   xml_parse_tag.obj
 0001:00082560       ?erase@?$_Tree@V?$_Tmap_traits@V?$CStringT@_WV?$StrTraitMFC@_WV?$ChTraitsCRT@_W@ATL@@@@@ATL@@V12@U?$less@V?$CStringT@_WV?$StrTraitMFC@_WV?$ChTraitsCRT@_W@ATL@@@@@ATL@@@std@@V?$allocator@U?$pair@$$CBV?$CStringT@_WV?$StrTraitMFC@_WV?$ChTraitsCRT@_W@ATL@@@@@ATL@@V12@@std@@@4@$0A@@std@@@std@@QAE?AViterator@12@Vconst_iterator@12@@Z 00483560 f i xml_parse_tag.obj
 0001:00082860       ?insert@?$_Tree@V?$_Tmap_traits@V?$CStringT@_WV?$StrTraitMFC@_WV?$ChTraitsCRT@_W@ATL@@@@@ATL@@V12@U?$less@V?$CStringT@_WV?$StrTraitMFC@_WV?$ChTraitsCRT@_W@ATL@@@@@ATL@@@std@@V?$allocator@U?$pair@$$CBV?$CStringT@_WV?$StrTraitMFC@_WV?$ChTraitsCRT@_W@ATL@@@@@ATL@@V12@@std@@@4@$0A@@std@@@std@@QAE?AU?$pair@Viterator@?$_Tree@V?$_Tmap_traits@V?$CStringT@_WV?$StrTraitMFC@_WV?$ChTraitsCRT@_W@ATL@@@@@ATL@@V12@U?$less@V?$CStringT@_WV?$StrTraitMFC@_WV?$ChTraitsCRT@_W@ATL@@@@@ATL@@@std@@V?$allocator@U?$pair@$$CBV?$CStringT@_WV?$StrTraitMFC@_WV?$ChTraitsCRT@_W@ATL@@@@@ATL@@V12@@std@@@4@$0A@@std@@@std@@_N@2@ABU?$pair@$$CBV?$CStringT@_WV?$StrTraitMFC@_WV?$ChTraitsCRT@_W@ATL@@@@@ATL@@V12@@2@@Z 00483860 f i xml_parse_tag.obj
 0001:000829b0       ?erase@?$_Tree@V?$_Tmap_traits@V?$CStringT@_WV?$StrTraitMFC@_WV?$ChTraitsCRT@_W@ATL@@@@@ATL@@V12@U?$less@V?$CStringT@_WV?$StrTraitMFC@_WV?$ChTraitsCRT@_W@ATL@@@@@ATL@@@std@@V?$allocator@U?$pair@$$CBV?$CStringT@_WV?$StrTraitMFC@_WV?$ChTraitsCRT@_W@ATL@@@@@ATL@@V12@@std@@@4@$0A@@std@@@std@@QAE?AViterator@12@Vconst_iterator@12@0@Z 004839b0 f i xml_parse_tag.obj
 0001:00082a90       ?insert@?$_Tree@V?$_Tmap_traits@V?$CStringT@_WV?$StrTraitMFC@_WV?$ChTraitsCRT@_W@ATL@@@@@ATL@@V12@U?$less@V?$CStringT@_WV?$StrTraitMFC@_WV?$ChTraitsCRT@_W@ATL@@@@@ATL@@@std@@V?$allocator@U?$pair@$$CBV?$CStringT@_WV?$StrTraitMFC@_WV?$ChTraitsCRT@_W@ATL@@@@@ATL@@V12@@std@@@4@$0A@@std@@@std@@QAE?AViterator@12@Vconst_iterator@12@ABU?$pair@$$CBV?$CStringT@_WV?$StrTraitMFC@_WV?$ChTraitsCRT@_W@ATL@@@@@ATL@@V12@@2@@Z 00483a90 f i xml_parse_tag.obj
 0001:00082cc0       ??A?$map@V?$CStringT@_WV?$StrTraitMFC@_WV?$ChTraitsCRT@_W@ATL@@@@@ATL@@V12@U?$less@V?$CStringT@_WV?$StrTraitMFC@_WV?$ChTraitsCRT@_W@ATL@@@@@ATL@@@std@@V?$allocator@U?$pair@$$CBV?$CStringT@_WV?$StrTraitMFC@_WV?$ChTraitsCRT@_W@ATL@@@@@ATL@@V12@@std@@@4@@std@@QAEAAV?$CStringT@_WV?$StrTraitMFC@_WV?$ChTraitsCRT@_W@ATL@@@@@ATL@@ABV23@@Z 00483cc0 f i xml_parse_tag.obj
 0001:00082e30       ??1?$_Tree@V?$_Tmap_traits@V?$CStringT@_WV?$StrTraitMFC@_WV?$ChTraitsCRT@_W@ATL@@@@@ATL@@V12@U?$less@V?$CStringT@_WV?$StrTraitMFC@_WV?$ChTraitsCRT@_W@ATL@@@@@ATL@@@std@@V?$allocator@U?$pair@$$CBV?$CStringT@_WV?$StrTraitMFC@_WV?$ChTraitsCRT@_W@ATL@@@@@ATL@@V12@@std@@@4@$0A@@std@@@std@@QAE@XZ 00483e30 f i xml_parse_tag.obj
 0001:00082eb0       ??1xml_parse_tag@@UAE@XZ   00483eb0 f   xml_parse_tag.obj
 0001:00082f70       ?finished_name@xml_parse_tag@@AAEXXZ 00483f70 f   xml_parse_tag.obj
 0001:00082ff0       ?parse@xml_parse_tag@@QAE_NPAVCXMLReader@@@Z 00483ff0 f   xml_parse_tag.obj
 0001:000834b0       ??0xml_parse_tag@@QAE@XZ   004844b0 f   xml_parse_tag.obj
 0001:00083590       ??_Gxml_parse_tag@@UAEPAXI@Z 00484590 f i xml_parse_tag.obj
 0001:00083590       ??_Exml_parse_tag@@UAEPAXI@Z 00484590 f i xml_parse_tag.obj
 0001:000835b0       ?GetErrorMessage@CXMLException@@UAEHPA_WIPAI@Z 004845b0 f   XMLException.obj
 0001:000835e0       ??_GCXMLException@@UAEPAXI@Z 004845e0 f i XMLException.obj
 0001:000835e0       ??_ECXMLException@@UAEPAXI@Z 004845e0 f i XMLException.obj
 0001:00083620       ??0CXMLException@@QAE@PB_WH@Z 00484620 f   XMLException.obj
 0001:000836d0       ?SetCharset@CXMLReader@@AAEXPB_W@Z 004846d0 f   XMLReader.obj
 0001:00083770       ?uudecode@CXMLReader@@AAEX_W@Z 00484770 f   XMLReader.obj
 0001:000838d0       ?_Chassign@?$basic_string@DU?$char_traits@D@std@@V?$allocator@D@2@@std@@IAEXIID@Z 004848d0 f i XMLReader.obj
 0001:00083930       ?pop_front@?$deque@PAVxml_parse_tag@@V?$allocator@PAVxml_parse_tag@@@std@@@std@@QAEXXZ 00484930 f i XMLReader.obj
 0001:00083970       ?unmakeString@CXMLReader@@AAEXV?$CStringT@_WV?$StrTraitMFC@_WV?$ChTraitsCRT@_W@ATL@@@@@ATL@@AAH@Z 00484970 f   XMLReader.obj
 0001:000839b0       ?unmakeString@CXMLReader@@AAEXV?$CStringT@_WV?$StrTraitMFC@_WV?$ChTraitsCRT@_W@ATL@@@@@ATL@@AAK@Z 004849b0 f   XMLReader.obj
 0001:000839f0       ?unmakeString@CXMLReader@@AAEXV?$CStringT@_WV?$StrTraitMFC@_WV?$ChTraitsCRT@_W@ATL@@@@@ATL@@AAN@Z 004849f0 f   XMLReader.obj
 0001:00083a30       ?unmakeString@CXMLReader@@AAEXV?$CStringT@_WV?$StrTraitMFC@_WV?$ChTraitsCRT@_W@ATL@@@@@ATL@@AAVCDPoint@@@Z 00484a30 f   XMLReader.obj
 0001:00083a90       ?unmakeString@CXMLReader@@AAEXV?$CStringT@_WV?$StrTraitMFC@_WV?$ChTraitsCRT@_W@ATL@@@@@ATL@@AAE@Z 00484a90 f   XMLReader.obj
 0001:00083b40       ?unmakeString@CXMLReader@@AAEXV?$CStringT@_WV?$StrTraitMFC@_WV?$ChTraitsCRT@_W@ATL@@@@@ATL@@AAF@Z 00484b40 f   XMLReader.obj
 0001:00083b40       ?unmakeString@CXMLReader@@AAEXV?$CStringT@_WV?$StrTraitMFC@_WV?$ChTraitsCRT@_W@ATL@@@@@ATL@@AAG@Z 00484b40 f   XMLReader.obj
 0001:00083bf0       ?unmakeString@CXMLReader@@AAEXV?$CStringT@_WV?$StrTraitMFC@_WV?$ChTraitsCRT@_W@ATL@@@@@ATL@@AAJ@Z 00484bf0 f   XMLReader.obj
 0001:00083ca0       ?unmakeString@CXMLReader@@AAEXV?$CStringT@_WV?$StrTraitMFC@_WV?$ChTraitsCRT@_W@ATL@@@@@ATL@@AA_N@Z 00484ca0 f   XMLReader.obj
 0001:00083d50       ?append@?$basic_string@DU?$char_traits@D@std@@V?$allocator@D@2@@std@@QAEAAV12@ID@Z 00484d50 f i XMLReader.obj
 0001:00083e00       ?getNextChar@CXMLReader@@QAE_NAA_W@Z 00484e00 f   XMLReader.obj
 0001:00083fa0       ?unmakeString@CXMLReader@@AAEXV?$CStringT@_WV?$StrTraitMFC@_WV?$ChTraitsCRT@_W@ATL@@@@@ATL@@AAV23@@Z 00484fa0 f   XMLReader.obj
 0001:00084010       ?find@?$_Tree@V?$_Tmap_traits@V?$CStringT@_WV?$StrTraitMFC@_WV?$ChTraitsCRT@_W@ATL@@@@@ATL@@V12@U?$less@V?$CStringT@_WV?$StrTraitMFC@_WV?$ChTraitsCRT@_W@ATL@@@@@ATL@@@std@@V?$allocator@U?$pair@$$CBV?$CStringT@_WV?$StrTraitMFC@_WV?$ChTraitsCRT@_W@ATL@@@@@ATL@@V12@@std@@@4@$0A@@std@@@std@@QAE?AViterator@12@ABV?$CStringT@_WV?$StrTraitMFC@_WV?$ChTraitsCRT@_W@ATL@@@@@ATL@@@Z 00485010 f i XMLReader.obj
 0001:00084010       ?find@?$_Tree@V?$_Tmap_traits@V?$CStringT@_WV?$StrTraitMFC@_WV?$ChTraitsCRT@_W@ATL@@@@@ATL@@HU?$less@V?$CStringT@_WV?$StrTraitMFC@_WV?$ChTraitsCRT@_W@ATL@@@@@ATL@@@std@@V?$allocator@U?$pair@$$CBV?$CStringT@_WV?$StrTraitMFC@_WV?$ChTraitsCRT@_W@ATL@@@@@ATL@@H@std@@@4@$0A@@std@@@std@@QAE?AViterator@12@ABV?$CStringT@_WV?$StrTraitMFC@_WV?$ChTraitsCRT@_W@ATL@@@@@ATL@@@Z 00485010 f i Library.obj
 0001:00084090       ?front@?$deque@PAVxml_parse_tag@@V?$allocator@PAVxml_parse_tag@@@std@@@std@@QAEAAPAVxml_parse_tag@@XZ 00485090 f i XMLReader.obj
 0001:000840d0       ??1CXMLReader@@UAE@XZ      004850d0 f   XMLReader.obj
 0001:000841e0       ?get_current_tag@CXMLReader@@AAEPAVxml_parse_tag@@XZ 004851e0 f   XMLReader.obj
 0001:00084220       ??_GCXMLReader@@UAEPAXI@Z  00485220 f i XMLReader.obj
 0001:00084220       ??_ECXMLReader@@UAEPAXI@Z  00485220 f i XMLReader.obj
 0001:00084240       ?internal_getAttribute@CXMLReader@@AAE_NPB_WAAV?$CStringT@_WV?$StrTraitMFC@_WV?$ChTraitsCRT@_W@ATL@@@@@ATL@@@Z 00485240 f   XMLReader.obj
 0001:00084380       ?child_data@CXMLReader@@AAEXPB_W@Z 00485380 f   XMLReader.obj
 0001:00084410       ?handleSystemTag@CXMLReader@@AAEXXZ 00485410 f   XMLReader.obj
 0001:00084500       ?getNextTag@CXMLReader@@AAE_NAAV?$CStringT@_WV?$StrTraitMFC@_WV?$ChTraitsCRT@_W@ATL@@@@@ATL@@@Z 00485500 f   XMLReader.obj
 0001:000846c0       ??$getAttribute@I@CXMLReader@@QAE_NPB_WAAI@Z 004856c0 f i XMLReader.obj
 0001:000847e0       ?intoTag@CXMLReader@@QAEXXZ 004857e0 f   XMLReader.obj
 0001:000848a0       ?outofTag@CXMLReader@@QAEXXZ 004858a0 f   XMLReader.obj
 0001:00084a70       ??0CXMLReader@@QAE@PAVCStream@@@Z 00485a70 f   XMLReader.obj
 0001:00084b50       ?closeTag@CXMLReader@@AAE_NXZ 00485b50 f   XMLReader.obj
 0001:00084d10       ?nextTag@CXMLReader@@QAE_NAAV?$CStringT@_WV?$StrTraitMFC@_WV?$ChTraitsCRT@_W@ATL@@@@@ATL@@@Z 00485d10 f   XMLReader.obj
 0001:00084d40       ?internal_getChildData@CXMLReader@@AAE?AV?$CStringT@_WV?$StrTraitMFC@_WV?$ChTraitsCRT@_W@ATL@@@@@ATL@@XZ 00485d40 f   XMLReader.obj
 0001:00084d90       ?getChildDataUUdecode@CXMLReader@@QAEXAAPAEAAI@Z 00485d90 f   XMLReader.obj
 0001:00084e60       ?SendString@CXMLWriter@@AAEXPB_W@Z 00485e60 f   XMLWriter.obj
 0001:00084f00       ?addComment@CXMLWriter@@QAEXPB_W@Z 00485f00 f   XMLWriter.obj
 0001:00084f30       ?internal_addAttribute@CXMLWriter@@AAEXPB_W0@Z 00485f30 f   XMLWriter.obj
 0001:00085040       ??D?$_Deque_const_iterator@V?$CStringT@_WV?$StrTraitMFC@_WV?$ChTraitsCRT@_W@ATL@@@@@ATL@@V?$allocator@V?$CStringT@_WV?$StrTraitMFC@_WV?$ChTraitsCRT@_W@ATL@@@@@ATL@@@std@@$00@std@@QBEABV?$CStringT@_WV?$StrTraitMFC@_WV?$ChTraitsCRT@_W@ATL@@@@@ATL@@XZ 00486040 f i XMLWriter.obj
